LIBRARY Core
EXPORTS
    ??0?$TArray@G@@QAE@ABV0@@Z @1
    ??0?$TArray@G@@QAE@H@Z @2
    ??0?$TArray@G@@QAE@W4ENoInit@@@Z @3
    ??0?$TArray@G@@QAE@XZ @4
    ??0FArchive@@QAE@ABV0@@Z @5
    ??0FArchive@@QAE@XZ @6
    ??0FArchiveCountMem@@QAE@ABV0@@Z @7
    ??0FArchiveCountMem@@QAE@PAVUObject@@@Z @8
    ??0FArchiveDummySave@@QAE@ABV0@@Z @9
    ??0FArchiveDummySave@@QAE@XZ @10
    ??0FArray@@IAE@HH@Z @11
    ??0FArray@@QAE@W4ENoInit@@@Z @12
    ??0FArray@@QAE@XZ @13
    ??0FBitReader@@QAE@ABU0@@Z @14
    ??0FBitReader@@QAE@PAEH@Z @15
    ??0FBitWriter@@QAE@ABU0@@Z @16
    ??0FBitWriter@@QAE@H@Z @17
    ??0FBitWriterMark@@QAE@AAUFBitWriter@@@Z @18
    ??0FBitWriterMark@@QAE@XZ @19
    ??0FBox@@QAE@ABVFVector@@0@Z @20
    ??0FBox@@QAE@H@Z @21
    ??0FBox@@QAE@PBVFVector@@H@Z @22
    ??0FBox@@QAE@XZ @23
    ??0FBufferReader@@QAE@ABV0@@Z @24
    ??0FBufferReader@@QAE@ABV?$TArray@E@@@Z @25
    ??0FClassNetCache@@QAE@ABV0@@Z @26
    ??0FClassNetCache@@QAE@PAVUClass@@@Z @27
    ??0FClassNetCache@@QAE@XZ @28
    ??0FCoords@@QAE@ABVFVector@@000@Z @29
    ??0FCoords@@QAE@ABVFVector@@@Z @30
    ??0FCoords@@QAE@XZ @31
    ??0FCylinder@@QAE@XZ @32
    ??0FDependency@@QAE@PAVUClass@@H@Z @33
    ??0FDependency@@QAE@XZ @34
    ??0FEdLoadError@@QAE@ABV0@@Z @35
    ??0FEdLoadError@@QAE@HPAG@Z @36
    ??0FEdLoadError@@QAE@XZ @37
    ??0FEdge@@QAE@VFVector@@0@Z @38
    ??0FEdge@@QAE@XZ @39
    ??0FErrorOutError@@QAE@ABV0@@Z @40
    ??0FErrorOutError@@QAE@XZ @41
    ??0FExec@@QAE@ABV0@@Z @42
    ??0FExec@@QAE@XZ @43
    ??0FFeedbackContext@@QAE@ABV0@@Z @44
    ??0FFeedbackContext@@QAE@XZ @45
    ??0FFieldNetCache@@QAE@PAVUField@@HH@Z @46
    ??0FFieldNetCache@@QAE@XZ @47
    ??0FFileManager@@QAE@ABV0@@Z @48
    ??0FFileManager@@QAE@XZ @49
    ??0FFileStream@@AAE@XZ @50
    ??0FFrame@@QAE@ABU0@@Z @51
    ??0FFrame@@QAE@PAVUObject@@@Z @52
    ??0FFrame@@QAE@PAVUObject@@PAVUStruct@@HPAX@Z @53
    ??0FGlobalMath@@QAE@XZ @54
    ??0FGuid@@QAE@KKKK@Z @55
    ??0FGuid@@QAE@XZ @56
    ??0FInterpCurve@@QAE@ABV0@@Z @57
    ??0FInterpCurve@@QAE@XZ @58
    ??0FInterpCurvePoint@@QAE@MM@Z @59
    ??0FInterpCurvePoint@@QAE@XZ @60
    ??0FLabelEntry@@QAE@VFName@@H@Z @61
    ??0FLogOutError@@QAE@ABV0@@Z @62
    ??0FLogOutError@@QAE@XZ @63
    ??0FMalloc@@QAE@ABV0@@Z @64
    ??0FMalloc@@QAE@XZ @65
    ??0FMatrix@@QAE@VFPlane@@000@Z @66
    ??0FMatrix@@QAE@XZ @67
    ??0FMemCache@@QAE@XZ @68
    ??0FMemMark@@QAE@AAVFMemStack@@@Z @69
    ??0FMemMark@@QAE@XZ @70
    ??0FModelCoords@@QAE@ABVFCoords@@0@Z @71
    ??0FModelCoords@@QAE@XZ @72
    ??0FName@@QAE@PBGW4EFindName@@@Z @73
    ??0FName@@QAE@W4EName@@@Z @74
    ??0FName@@QAE@XZ @75
    ??0FNotifyHook@@QAE@ABV0@@Z @76
    ??0FNotifyHook@@QAE@XZ @77
    ??0FNullOutError@@QAE@ABV0@@Z @78
    ??0FNullOutError@@QAE@XZ @79
    ??0FObjectExport@@QAE@PAVUObject@@@Z @80
    ??0FObjectExport@@QAE@XZ @81
    ??0FObjectImport@@QAE@PAVUObject@@@Z @82
    ??0FObjectImport@@QAE@XZ @83
    ??0FOutputDevice@@QAE@ABV0@@Z @84
    ??0FOutputDevice@@QAE@XZ @85
    ??0FOutputDeviceError@@QAE@ABV0@@Z @86
    ??0FOutputDeviceError@@QAE@XZ @87
    ??0FPackageInfo@@QAE@ABV0@@Z @88
    ??0FPackageInfo@@QAE@PAVULinkerLoad@@@Z @89
    ??0FPlane@@QAE@ABV0@@Z @90
    ??0FPlane@@QAE@ABVFVector@@@Z @91
    ??0FPlane@@QAE@MMMM@Z @92
    ??0FPlane@@QAE@VFVector@@00@Z @93
    ??0FPlane@@QAE@VFVector@@ABV1@@Z @94
    ??0FPlane@@QAE@VFVector@@M@Z @95
    ??0FPlane@@QAE@XZ @96
    ??0FPosition@@QAE@VFVector@@VFCoords@@@Z @97
    ??0FPosition@@QAE@XZ @98
    ??0FPreferencesInfo@@QAE@ABV0@@Z @99
    ??0FPreferencesInfo@@QAE@XZ @100
    ??0FQuat@@QAE@MMMM@Z @101
    ??0FQuat@@QAE@XZ @102
    ??0FRainbowPtr@@QAE@PAX@Z @103
    ??0FRainbowPtr@@QAE@XZ @104
    ??0FRange@@QAE@M@Z @105
    ??0FRange@@QAE@MM@Z @106
    ??0FRange@@QAE@XZ @107
    ??0FRangeVector@@QAE@VFRange@@00@Z @108
    ??0FRangeVector@@QAE@VFVector@@@Z @109
    ??0FRangeVector@@QAE@XZ @110
    ??0FRegistryObjectInfo@@QAE@ABV0@@Z @111
    ??0FRegistryObjectInfo@@QAE@XZ @112
    ??0FRotator@@QAE@HHH@Z @113
    ??0FRotator@@QAE@M@Z @114
    ??0FRotator@@QAE@XZ @115
    ??0FScale@@QAE@ABVFVector@@MW4ESheerAxis@@@Z @116
    ??0FScale@@QAE@XZ @117
    ??0FScriptDelegate@@QAE@XZ @118
    ??0FSphere@@QAE@ABV0@@Z @119
    ??0FSphere@@QAE@H@Z @120
    ??0FSphere@@QAE@PBVFVector@@H@Z @121
    ??0FSphere@@QAE@VFVector@@M@Z @122
    ??0FSphere@@QAE@XZ @123
    ??0FStateFrame@@QAE@ABU0@@Z @124
    ??0FStateFrame@@QAE@PAVUObject@@@Z @125
    ??0FString@@AAE@HPBG@Z @126
    ??0FString@@QAE@ABV0@@Z @127
    ??0FString@@QAE@CH@Z @128
    ??0FString@@QAE@EH@Z @129
    ??0FString@@QAE@FH@Z @130
    ??0FString@@QAE@GH@Z @131
    ??0FString@@QAE@HH@Z @132
    ??0FString@@QAE@KH@Z @133
    ??0FString@@QAE@MHHH@Z @134
    ??0FString@@QAE@NHHH@Z @135
    ??0FString@@QAE@PBG@Z @136
    ??0FString@@QAE@W4ENoInit@@@Z @137
    ??0FString@@QAE@XZ @138
    ??0FStringNoInit@@QAE@ABU0@@Z @139
    ??0FStringNoInit@@QAE@XZ @140
    ??0FThrowOut@@QAE@ABV0@@Z @141
    ??0FThrowOut@@QAE@XZ @142
    ??0FTransactionBase@@QAE@ABV0@@Z @143
    ??0FTransactionBase@@QAE@XZ @144
    ??0FUnknown@@QAE@ABV0@@Z @145
    ??0FUnknown@@QAE@XZ @146
    ??0FVector@@QAE@M@Z @147
    ??0FVector@@QAE@MMM@Z @148
    ??0FVector@@QAE@XZ @149
    ??0FVertexHit@@QAE@PAVABrush@@HH@Z @150
    ??0FVertexHit@@QAE@XZ @151
    ??0UArrayProperty@@QAE@ABV0@@Z @152
    ??0UArrayProperty@@QAE@W4ECppProperty@@HPBGK@Z @153
    ??0UArrayProperty@@QAE@XZ @154
    ??0UBoolProperty@@QAE@ABV0@@Z @155
    ??0UBoolProperty@@QAE@W4ECppProperty@@HPBGK@Z @156
    ??0UBoolProperty@@QAE@XZ @157
    ??0UByteProperty@@QAE@ABV0@@Z @158
    ??0UByteProperty@@QAE@W4ECppProperty@@HPBGKPAVUEnum@@@Z @159
    ??0UByteProperty@@QAE@XZ @160
    ??0UClass@@QAE@ABV0@@Z @161
    ??0UClass@@QAE@PAV0@@Z @162
    ??0UClass@@QAE@W4ENativeConstructor@@KKPAV0@1VFGuid@@PBG33KP6AXPAX@ZP8UObject@@AEXXZ@Z @163
    ??0UClass@@QAE@W4EStaticConstructor@@KKVFGuid@@PBG22KP6AXPAX@ZP8UObject@@AEXXZ@Z @164
    ??0UClass@@QAE@XZ @165
    ??0UClassProperty@@QAE@ABV0@@Z @166
    ??0UClassProperty@@QAE@W4ECppProperty@@HPBGKPAVUClass@@@Z @167
    ??0UClassProperty@@QAE@XZ @168
    ??0UCommandlet@@QAE@ABV0@@Z @169
    ??0UCommandlet@@QAE@XZ @170
    ??0UConst@@IAE@XZ @171
    ??0UConst@@QAE@ABV0@@Z @172
    ??0UConst@@QAE@PAV0@PBG@Z @173
    ??0UDelegateProperty@@QAE@ABV0@@Z @174
    ??0UDelegateProperty@@QAE@W4ECppProperty@@HPBGK@Z @175
    ??0UDelegateProperty@@QAE@XZ @176
    ??0UEnum@@IAE@XZ @177
    ??0UEnum@@QAE@ABV0@@Z @178
    ??0UEnum@@QAE@PAV0@@Z @179
    ??0UExporter@@QAE@ABV0@@Z @180
    ??0UExporter@@QAE@XZ @181
    ??0UFactory@@QAE@ABV0@@Z @182
    ??0UFactory@@QAE@XZ @183
    ??0UField@@IAE@XZ @184
    ??0UField@@QAE@ABV0@@Z @185
    ??0UField@@QAE@PAV0@@Z @186
    ??0UField@@QAE@W4ENativeConstructor@@PAVUClass@@PBG2KPAV0@@Z @187
    ??0UField@@QAE@W4EStaticConstructor@@PBG1K@Z @188
    ??0UFixedArrayProperty@@QAE@ABV0@@Z @189
    ??0UFixedArrayProperty@@QAE@W4ECppProperty@@HPBGK@Z @190
    ??0UFixedArrayProperty@@QAE@XZ @191
    ??0UFloatProperty@@QAE@ABV0@@Z @192
    ??0UFloatProperty@@QAE@W4ECppProperty@@HPBGK@Z @193
    ??0UFloatProperty@@QAE@XZ @194
    ??0UFunction@@IAE@XZ @195
    ??0UFunction@@QAE@ABV0@@Z @196
    ??0UFunction@@QAE@PAV0@@Z @197
    ??0UIntProperty@@QAE@ABV0@@Z @198
    ??0UIntProperty@@QAE@W4ECppProperty@@HPBGK@Z @199
    ??0UIntProperty@@QAE@XZ @200
    ??0ULanguage@@IAE@XZ @201
    ??0ULanguage@@QAE@ABV0@@Z @202
    ??0ULinker@@IAE@XZ @203
    ??0ULinker@@QAE@ABV0@@Z @204
    ??0ULinker@@QAE@PAVUObject@@PBG@Z @205
    ??0UMapProperty@@QAE@ABV0@@Z @206
    ??0UMapProperty@@QAE@W4ECppProperty@@HPBGK@Z @207
    ??0UMapProperty@@QAE@XZ @208
    ??0UNameProperty@@QAE@ABV0@@Z @209
    ??0UNameProperty@@QAE@W4ECppProperty@@HPBGK@Z @210
    ??0UNameProperty@@QAE@XZ @211
    ??0UObject@@QAE@ABV0@@Z @212
    ??0UObject@@QAE@W4EInPlaceConstructor@@PAVUClass@@PAV0@VFName@@K@Z @213
    ??0UObject@@QAE@W4ENativeConstructor@@PAVUClass@@PBG2K@Z @214
    ??0UObject@@QAE@W4EStaticConstructor@@PBG1K@Z @215
    ??0UObject@@QAE@XZ @216
    ??0UObjectExporterT3D@@QAE@ABV0@@Z @217
    ??0UObjectExporterT3D@@QAE@XZ @218
    ??0UObjectProperty@@QAE@ABV0@@Z @219
    ??0UObjectProperty@@QAE@W4ECppProperty@@HPBGKPAVUClass@@@Z @220
    ??0UObjectProperty@@QAE@XZ @221
    ??0UPackage@@QAE@ABV0@@Z @222
    ??0UPackage@@QAE@XZ @223
    ??0UPackageMap@@QAE@ABV0@@Z @224
    ??0UPackageMap@@QAE@XZ @225
    ??0UProperty@@QAE@ABV0@@Z @226
    ??0UProperty@@QAE@W4ECppProperty@@HPBGK@Z @227
    ??0UProperty@@QAE@XZ @228
    ??0UState@@IAE@XZ @229
    ??0UState@@QAE@ABV0@@Z @230
    ??0UState@@QAE@PAV0@@Z @231
    ??0UState@@QAE@W4ENativeConstructor@@HPBG1KPAV0@@Z @232
    ??0UState@@QAE@W4EStaticConstructor@@HPBG1K@Z @233
    ??0UStrProperty@@QAE@ABV0@@Z @234
    ??0UStrProperty@@QAE@W4ECppProperty@@HPBGK@Z @235
    ??0UStrProperty@@QAE@XZ @236
    ??0UStruct@@IAE@XZ @237
    ??0UStruct@@QAE@ABV0@@Z @238
    ??0UStruct@@QAE@PAV0@@Z @239
    ??0UStruct@@QAE@W4ENativeConstructor@@HPBG1KPAV0@@Z @240
    ??0UStruct@@QAE@W4EStaticConstructor@@HPBG1K@Z @241
    ??0UStructProperty@@QAE@ABV0@@Z @242
    ??0UStructProperty@@QAE@W4ECppProperty@@HPBGKPAVUStruct@@@Z @243
    ??0UStructProperty@@QAE@XZ @244
    ??0USubsystem@@IAE@XZ @245
    ??0USubsystem@@QAE@ABV0@@Z @246
    ??0USystem@@QAE@ABV0@@Z @247
    ??0USystem@@QAE@XZ @248
    ??0UTextBuffer@@QAE@ABV0@@Z @249
    ??0UTextBuffer@@QAE@PBG@Z @250
    ??0UTextBufferFactory@@QAE@ABV0@@Z @251
    ??0UTextBufferFactory@@QAE@XZ @252
    ??1?$TArray@G@@QAE@XZ @253
    ??1FArchive@@UAE@XZ @254
    ??1FArchiveCountMem@@UAE@XZ @255
    ??1FArchiveDummySave@@UAE@XZ @256
    ??1FArray@@QAE@XZ @257
    ??1FBitReader@@UAE@XZ @258
    ??1FBitWriter@@UAE@XZ @259
    ??1FBufferReader@@UAE@XZ @260
    ??1FClassNetCache@@QAE@XZ @261
    ??1FEdLoadError@@QAE@XZ @262
    ??1FFileStream@@AAE@XZ @263
    ??1FInterpCurve@@QAE@XZ @264
    ??1FMatrix@@QAE@XZ @265
    ??1FPackageInfo@@QAE@XZ @266
    ??1FPreferencesInfo@@QAE@XZ @267
    ??1FRegistryObjectInfo@@QAE@XZ @268
    ??1FString@@QAE@XZ @269
    ??1FStringNoInit@@QAE@XZ @270
    ??1UArrayProperty@@UAE@XZ @271
    ??1UBoolProperty@@UAE@XZ @272
    ??1UByteProperty@@UAE@XZ @273
    ??1UClass@@UAE@XZ @274
    ??1UClassProperty@@UAE@XZ @275
    ??1UCommandlet@@UAE@XZ @276
    ??1UConst@@UAE@XZ @277
    ??1UDelegateProperty@@UAE@XZ @278
    ??1UEnum@@UAE@XZ @279
    ??1UExporter@@UAE@XZ @280
    ??1UFactory@@UAE@XZ @281
    ??1UField@@UAE@XZ @282
    ??1UFixedArrayProperty@@UAE@XZ @283
    ??1UFloatProperty@@UAE@XZ @284
    ??1UFunction@@UAE@XZ @285
    ??1UIntProperty@@UAE@XZ @286
    ??1ULanguage@@UAE@XZ @287
    ??1ULinker@@UAE@XZ @288
    ??1UMapProperty@@UAE@XZ @289
    ??1UNameProperty@@UAE@XZ @290
    ??1UObject@@UAE@XZ @291
    ??1UObjectExporterT3D@@UAE@XZ @292
    ??1UObjectProperty@@UAE@XZ @293
    ??1UPackage@@UAE@XZ @294
    ??1UPackageMap@@UAE@XZ @295
    ??1UProperty@@UAE@XZ @296
    ??1UState@@UAE@XZ @297
    ??1UStrProperty@@UAE@XZ @298
    ??1UStruct@@UAE@XZ @299
    ??1UStructProperty@@UAE@XZ @300
    ??1USubsystem@@UAE@XZ @301
    ??1USystem@@UAE@XZ @302
    ??1UTextBuffer@@UAE@XZ @303
    ??1UTextBufferFactory@@UAE@XZ @304
    ??2UArrayProperty@@SAPAXIPAVUObject@@VFName@@K@Z @305
    ??2UArrayProperty@@SAPAXIPAW4EInternal@@@Z @306
    ??2UBoolProperty@@SAPAXIPAVUObject@@VFName@@K@Z @307
    ??2UBoolProperty@@SAPAXIPAW4EInternal@@@Z @308
    ??2UByteProperty@@SAPAXIPAVUObject@@VFName@@K@Z @309
    ??2UByteProperty@@SAPAXIPAW4EInternal@@@Z @310
    ??2UClass@@SAPAXIPAVUObject@@VFName@@K@Z @311
    ??2UClass@@SAPAXIPAW4EInternal@@@Z @312
    ??2UClassProperty@@SAPAXIPAVUObject@@VFName@@K@Z @313
    ??2UClassProperty@@SAPAXIPAW4EInternal@@@Z @314
    ??2UCommandlet@@SAPAXIPAVUObject@@VFName@@K@Z @315
    ??2UCommandlet@@SAPAXIPAW4EInternal@@@Z @316
    ??2UConst@@SAPAXIPAVUObject@@VFName@@K@Z @317
    ??2UConst@@SAPAXIPAW4EInternal@@@Z @318
    ??2UDelegateProperty@@SAPAXIPAVUObject@@VFName@@K@Z @319
    ??2UDelegateProperty@@SAPAXIPAW4EInternal@@@Z @320
    ??2UEnum@@SAPAXIPAVUObject@@VFName@@K@Z @321
    ??2UEnum@@SAPAXIPAW4EInternal@@@Z @322
    ??2UExporter@@SAPAXIPAVUObject@@VFName@@K@Z @323
    ??2UExporter@@SAPAXIPAW4EInternal@@@Z @324
    ??2UFactory@@SAPAXIPAVUObject@@VFName@@K@Z @325
    ??2UFactory@@SAPAXIPAW4EInternal@@@Z @326
    ??2UField@@SAPAXIPAVUObject@@VFName@@K@Z @327
    ??2UField@@SAPAXIPAW4EInternal@@@Z @328
    ??2UFixedArrayProperty@@SAPAXIPAVUObject@@VFName@@K@Z @329
    ??2UFixedArrayProperty@@SAPAXIPAW4EInternal@@@Z @330
    ??2UFloatProperty@@SAPAXIPAVUObject@@VFName@@K@Z @331
    ??2UFloatProperty@@SAPAXIPAW4EInternal@@@Z @332
    ??2UFunction@@SAPAXIPAVUObject@@VFName@@K@Z @333
    ??2UFunction@@SAPAXIPAW4EInternal@@@Z @334
    ??2UIntProperty@@SAPAXIPAVUObject@@VFName@@K@Z @335
    ??2UIntProperty@@SAPAXIPAW4EInternal@@@Z @336
    ??2ULanguage@@SAPAXIPAVUObject@@VFName@@K@Z @337
    ??2ULanguage@@SAPAXIPAW4EInternal@@@Z @338
    ??2ULinker@@SAPAXIPAVUObject@@VFName@@K@Z @339
    ??2ULinker@@SAPAXIPAW4EInternal@@@Z @340
    ??2UMapProperty@@SAPAXIPAVUObject@@VFName@@K@Z @341
    ??2UMapProperty@@SAPAXIPAW4EInternal@@@Z @342
    ??2UNameProperty@@SAPAXIPAVUObject@@VFName@@K@Z @343
    ??2UNameProperty@@SAPAXIPAW4EInternal@@@Z @344
    ??2UObject@@SAPAXIPAV0@VFName@@K@Z @345
    ??2UObject@@SAPAXIPAW4EInternal@@@Z @346
    ??2UObjectExporterT3D@@SAPAXIPAVUObject@@VFName@@K@Z @347
    ??2UObjectExporterT3D@@SAPAXIPAW4EInternal@@@Z @348
    ??2UObjectProperty@@SAPAXIPAVUObject@@VFName@@K@Z @349
    ??2UObjectProperty@@SAPAXIPAW4EInternal@@@Z @350
    ??2UPackage@@SAPAXIPAVUObject@@VFName@@K@Z @351
    ??2UPackage@@SAPAXIPAW4EInternal@@@Z @352
    ??2UPackageMap@@SAPAXIPAVUObject@@VFName@@K@Z @353
    ??2UPackageMap@@SAPAXIPAW4EInternal@@@Z @354
    ??2UProperty@@SAPAXIPAVUObject@@VFName@@K@Z @355
    ??2UProperty@@SAPAXIPAW4EInternal@@@Z @356
    ??2UState@@SAPAXIPAVUObject@@VFName@@K@Z @357
    ??2UState@@SAPAXIPAW4EInternal@@@Z @358
    ??2UStrProperty@@SAPAXIPAVUObject@@VFName@@K@Z @359
    ??2UStrProperty@@SAPAXIPAW4EInternal@@@Z @360
    ??2UStruct@@SAPAXIPAVUObject@@VFName@@K@Z @361
    ??2UStruct@@SAPAXIPAW4EInternal@@@Z @362
    ??2UStructProperty@@SAPAXIPAVUObject@@VFName@@K@Z @363
    ??2UStructProperty@@SAPAXIPAW4EInternal@@@Z @364
    ??2USubsystem@@SAPAXIPAVUObject@@VFName@@K@Z @365
    ??2USubsystem@@SAPAXIPAW4EInternal@@@Z @366
    ??2USystem@@SAPAXIPAVUObject@@VFName@@K@Z @367
    ??2USystem@@SAPAXIPAW4EInternal@@@Z @368
    ??2UTextBuffer@@SAPAXIPAVUObject@@VFName@@K@Z @369
    ??2UTextBuffer@@SAPAXIPAW4EInternal@@@Z @370
    ??2UTextBufferFactory@@SAPAXIPAVUObject@@VFName@@K@Z @371
    ??2UTextBufferFactory@@SAPAXIPAW4EInternal@@@Z @372
    ??3UObject@@SAXPAXI@Z @373
    ??4?$TArray@G@@QAEAAV0@ABV0@@Z @374
    ??4FArchive@@QAEAAV0@ABV0@@Z @375
    ??4FArchiveCountMem@@QAEAAV0@ABV0@@Z @376
    ??4FArchiveDummySave@@QAEAAV0@ABV0@@Z @377
    ??4FArray@@QAEAAV0@ABV0@@Z @378
    ??4FBitReader@@QAEAAU0@ABU0@@Z @379
    ??4FBitWriter@@QAEAAU0@ABU0@@Z @380
    ??4FBitWriterMark@@QAEAAU0@ABU0@@Z @381
    ??4FBox@@QAEAAV0@ABV0@@Z @382
    ??4FCacheItem@FMemCache@@QAEAAV01@ABV01@@Z @383
    ??4FClassNetCache@@QAEAAV0@ABV0@@Z @384
    ??4FCompactIndex@@QAEAAV0@ABV0@@Z @385
    ??4FCoords@@QAEAAV0@ABV0@@Z @386
    ??4FCylinder@@QAEAAV0@ABV0@@Z @387
    ??4FDependency@@QAEAAV0@ABV0@@Z @388
    ??4FEdLoadError@@QAEAAV0@V0@@Z @389
    ??4FEdge@@QAEAAV0@ABV0@@Z @390
    ??4FErrorOutError@@QAEAAV0@ABV0@@Z @391
    ??4FExec@@QAEAAV0@ABV0@@Z @392
    ??4FFeedbackContext@@QAEAAV0@ABV0@@Z @393
    ??4FFieldNetCache@@QAEAAV0@ABV0@@Z @394
    ??4FFileManager@@QAEAAV0@ABV0@@Z @395
    ??4FFileStream@@QAEAAV0@ABV0@@Z @396
    ??4FFrame@@QAEAAU0@ABU0@@Z @397
    ??4FGuid@@QAEAAV0@ABV0@@Z @398
    ??4FInterpCurve@@QAEAAV0@ABV0@@Z @399
    ??4FInterpCurvePoint@@QAEAAV0@ABV0@@Z @400
    ??4FLabelEntry@@QAEAAU0@ABU0@@Z @401
    ??4FLogOutError@@QAEAAV0@ABV0@@Z @402
    ??4FMalloc@@QAEAAV0@ABV0@@Z @403
    ??4FMatrix@@QAEAAV0@ABV0@@Z @404
    ??4FMemCache@@QAEAAV0@ABV0@@Z @405
    ??4FMemMark@@QAEAAV0@ABV0@@Z @406
    ??4FMemStack@@QAEAAV0@ABV0@@Z @407
    ??4FModelCoords@@QAEAAV0@ABV0@@Z @408
    ??4FName@@QAEAAV0@ABV0@@Z @409
    ??4FNotifyHook@@QAEAAV0@ABV0@@Z @410
    ??4FNullOutError@@QAEAAV0@ABV0@@Z @411
    ??4FObjectExport@@QAEAAU0@ABU0@@Z @412
    ??4FObjectImport@@QAEAAU0@ABU0@@Z @413
    ??4FOutputDevice@@QAEAAV0@ABV0@@Z @414
    ??4FOutputDeviceError@@QAEAAV0@ABV0@@Z @415
    ??4FPackageInfo@@QAEAAV0@ABV0@@Z @416
    ??4FPlane@@QAEAAV0@ABV0@@Z @417
    ??4FPosition@@QAEAAV0@ABV0@@Z @418
    ??4FPreferencesInfo@@QAEAAV0@ABV0@@Z @419
    ??4FQuat@@QAEAAV0@ABV0@@Z @420
    ??4FRainbowPtr@@QAEAAT0@ABT0@@Z @421
    ??4FRange@@QAEAAV0@ABV0@@Z @422
    ??4FRangeVector@@QAEAAV0@ABV0@@Z @423
    ??4FRegistryObjectInfo@@QAEAAV0@ABV0@@Z @424
    ??4FRotator@@QAEAAV0@ABV0@@Z @425
    ??4FScale@@QAEAAV0@ABV0@@Z @426
    ??4FScriptDelegate@@QAEAAU0@ABU0@@Z @427
    ??4FSphere@@QAEAAV0@ABV0@@Z @428
    ??4FStateFrame@@QAEAAU0@ABU0@@Z @429
    ??4FString@@QAEAAV0@ABV0@@Z @430
    ??4FString@@QAEAAV0@PBG@Z @431
    ??4FStringNoInit@@QAEAAU0@ABU0@@Z @432
    ??4FStringNoInit@@QAEAAU0@ABVFString@@@Z @433
    ??4FStringNoInit@@QAEAAU0@PBG@Z @434
    ??4FThrowOut@@QAEAAV0@ABV0@@Z @435
    ??4FTransactionBase@@QAEAAV0@ABV0@@Z @436
    ??4FUnknown@@QAEAAV0@ABV0@@Z @437
    ??4FVector@@QAEAAV0@ABV0@@Z @438
    ??4FVertexHit@@QAEAAV0@ABV0@@Z @439
    ??4UArrayProperty@@QAEAAV0@ABV0@@Z @440
    ??4UBoolProperty@@QAEAAV0@ABV0@@Z @441
    ??4UByteProperty@@QAEAAV0@ABV0@@Z @442
    ??4UClass@@QAEAAV0@ABV0@@Z @443
    ??4UClassProperty@@QAEAAV0@ABV0@@Z @444
    ??4UCommandlet@@QAEAAV0@ABV0@@Z @445
    ??4UConst@@QAEAAV0@ABV0@@Z @446
    ??4UDelegateProperty@@QAEAAV0@ABV0@@Z @447
    ??4UEnum@@QAEAAV0@ABV0@@Z @448
    ??4UExporter@@QAEAAV0@ABV0@@Z @449
    ??4UFactory@@QAEAAV0@ABV0@@Z @450
    ??4UField@@QAEAAV0@ABV0@@Z @451
    ??4UFixedArrayProperty@@QAEAAV0@ABV0@@Z @452
    ??4UFloatProperty@@QAEAAV0@ABV0@@Z @453
    ??4UFunction@@QAEAAV0@ABV0@@Z @454
    ??4UIntProperty@@QAEAAV0@ABV0@@Z @455
    ??4ULanguage@@QAEAAV0@ABV0@@Z @456
    ??4ULinker@@QAEAAV0@ABV0@@Z @457
    ??4UMapProperty@@QAEAAV0@ABV0@@Z @458
    ??4UNameProperty@@QAEAAV0@ABV0@@Z @459
    ??4UObject@@QAEAAV0@ABV0@@Z @460
    ??4UObjectExporterT3D@@QAEAAV0@ABV0@@Z @461
    ??4UObjectProperty@@QAEAAV0@ABV0@@Z @462
    ??4UPackage@@QAEAAV0@ABV0@@Z @463
    ??4UPackageMap@@QAEAAV0@ABV0@@Z @464
    ??4UProperty@@QAEAAV0@ABV0@@Z @465
    ??4UState@@QAEAAV0@ABV0@@Z @466
    ??4UStrProperty@@QAEAAV0@ABV0@@Z @467
    ??4UStruct@@QAEAAV0@ABV0@@Z @468
    ??4UStructProperty@@QAEAAV0@ABV0@@Z @469
    ??4USubsystem@@QAEAAV0@ABV0@@Z @470
    ??4USystem@@QAEAAV0@ABV0@@Z @471
    ??4UTextBuffer@@QAEAAV0@ABV0@@Z @472
    ??4UTextBufferFactory@@QAEAAV0@ABV0@@Z @473
    ??6@YAAAVFArchive@@AAV0@AAUFLabelEntry@@@Z @474
    ??6@YAAAVFArchive@@AAV0@AAUFNameEntry@@@Z @475
    ??6@YAAAVFArchive@@AAV0@AAVFClassNetCache@@@Z @476
    ??6@YAAAVFArchive@@AAV0@AAVFCompactIndex@@@Z @477
    ??6@YAAAVFArchive@@AAV0@AAVFDependency@@@Z @478
    ??6@YAAAVFArchive@@AAV0@AAVFFieldNetCache@@@Z @479
    ??6@YAAAVFArchive@@AAV0@AAVFPackageInfo@@@Z @480
    ??6@YAAAVFArchive@@AAV0@AAVFString@@@Z @481
    ??6FArchive@@UAEAAV0@AAPAVUObject@@@Z @482
    ??6FArchive@@UAEAAV0@AAVFName@@@Z @483
    ??8FEdLoadError@@QBEHABV0@@Z @484
    ??8FEdge@@QBEHABV0@@Z @485
    ??8FInterpCurvePoint@@QAEHABV0@@Z @486
    ??8FMatrix@@QBEHAAV0@@Z @487
    ??8FName@@QBEHABV0@@Z @488
    ??8FPlane@@QBEHABV0@@Z @489
    ??8FRange@@QBEHABV0@@Z @490
    ??8FRangeVector@@QBEHABV0@@Z @491
    ??8FRotator@@QBEHABV0@@Z @492
    ??8FScale@@QBEHABV0@@Z @493
    ??8FString@@QBEHABV0@@Z @494
    ??8FString@@QBEHPBG@Z @495
    ??8FVector@@QBEHABV0@@Z @496
    ??8FVertexHit@@QBEHABV0@@Z @497
    ??9FMatrix@@QBEHAAV0@@Z @498
    ??9FName@@QBEHABV0@@Z @499
    ??9FPlane@@QBEHABV0@@Z @500
    ??9FQuat@@QBEHABV0@@Z @501
    ??9FRange@@QBEHABV0@@Z @502
    ??9FRangeVector@@QBEHABV0@@Z @503
    ??9FRotator@@QBEHABV0@@Z @504
    ??9FString@@QBEHABV0@@Z @505
    ??9FString@@QBEHPBG@Z @506
    ??9FVector@@QBEHABV0@@Z @507
    ??9FVertexHit@@QBEHABV0@@Z @508
    ??AFBox@@QAEAAVFVector@@H@Z @509
    ??AFVector@@QAEAAMH@Z @510
    ??BFString@@QBEHXZ @511
    ??DFCoords@@QBE?AV0@ABV0@@Z @512
    ??DFCoords@@QBE?AV0@ABVFRotator@@@Z @513
    ??DFCoords@@QBE?AV0@ABVFScale@@@Z @514
    ??DFCoords@@QBE?AV0@ABVFVector@@@Z @515
    ??DFMatrix@@QBE?AV0@V0@@Z @516
    ??DFName@@QBEPBGXZ @517
    ??DFPlane@@QAE?AV0@ABV0@@Z @518
    ??DFPlane@@QBE?AV0@M@Z @519
    ??DFQuat@@QBE?AV0@ABM@Z @520
    ??DFQuat@@QBE?AV0@ABV0@@Z @521
    ??DFRange@@QBE?AV0@ABV0@@Z @522
    ??DFRange@@QBE?AV0@M@Z @523
    ??DFRangeVector@@QBE?AV0@ABV0@@Z @524
    ??DFRangeVector@@QBE?AV0@M@Z @525
    ??DFRotator@@QBE?AV0@M@Z @526
    ??DFString@@QBE?AV0@ABV0@@Z @527
    ??DFString@@QBE?AV0@PBG@Z @528
    ??DFString@@QBEPBGXZ @529
    ??DFVector@@QBE?AV0@ABV0@@Z @530
    ??DFVector@@QBE?AV0@M@Z @531
    ??GFPlane@@QBE?AV0@ABV0@@Z @532
    ??GFQuat@@QBE?AV0@ABV0@@Z @533
    ??GFQuat@@QBE?AV0@XZ @534
    ??GFRange@@QBE?AV0@ABV0@@Z @535
    ??GFRange@@QBE?AV0@M@Z @536
    ??GFRange@@QBE?AV0@XZ @537
    ??GFRangeVector@@QBE?AV0@ABV0@@Z @538
    ??GFRangeVector@@QBE?AV0@ABVFVector@@@Z @539
    ??GFRangeVector@@QBE?AV0@XZ @540
    ??GFRotator@@QBE?AV0@ABV0@@Z @541
    ??GFVector@@QBE?AV0@ABV0@@Z @542
    ??GFVector@@QBE?AV0@XZ @543
    ??H?$TArray@G@@QAEAAV0@ABV0@@Z @544
    ??HFBox@@QBE?AV0@ABV0@@Z @545
    ??HFBox@@QBE?AV0@ABVFVector@@@Z @546
    ??HFPlane@@QBE?AV0@ABV0@@Z @547
    ??HFQuat@@QBE?AV0@ABV0@@Z @548
    ??HFRange@@QBE?AV0@ABV0@@Z @549
    ??HFRange@@QBE?AV0@M@Z @550
    ??HFRangeVector@@QBE?AV0@ABV0@@Z @551
    ??HFRangeVector@@QBE?AV0@ABVFVector@@@Z @552
    ??HFRotator@@QBE?AV0@ABV0@@Z @553
    ??HFString@@QAE?AV0@ABV0@@Z @554
    ??HFString@@QAE?AV0@PBG@Z @555
    ??HFVector@@QBE?AV0@ABV0@@Z @556
    ??KFCoords@@QBE?AV0@ABVFRotator@@@Z @557
    ??KFCoords@@QBE?AV0@ABVFScale@@@Z @558
    ??KFCoords@@QBE?AV0@ABVFVector@@@Z @559
    ??KFPlane@@QBE?AV0@M@Z @560
    ??KFRange@@QBE?AV0@M@Z @561
    ??KFRangeVector@@QBE?AV0@M@Z @562
    ??KFVector@@QBE?AV0@M@Z @563
    ??MFString@@QBEHPBG@Z @564
    ??NFString@@QBEHPBG@Z @565
    ??OFString@@QBEHPBG@Z @566
    ??PFString@@QBEHPBG@Z @567
    ??R?$TArray@G@@QAEAAGH@Z @568
    ??R?$TArray@G@@QBEABGH@Z @569
    ??TFVector@@QBE?AV0@ABV0@@Z @570
    ??UFVector@@QBEMABV0@@Z @571
    ??XFCoords@@QAEAAV0@ABV0@@Z @572
    ??XFCoords@@QAEAAV0@ABVFRotator@@@Z @573
    ??XFCoords@@QAEAAV0@ABVFScale@@@Z @574
    ??XFCoords@@QAEAAV0@ABVFVector@@@Z @575
    ??XFMatrix@@QAEXV0@@Z @576
    ??XFPlane@@QAE?AV0@ABV0@@Z @577
    ??XFPlane@@QAE?AV0@M@Z @578
    ??XFRange@@QAE?AV0@ABV0@@Z @579
    ??XFRange@@QAE?AV0@M@Z @580
    ??XFRangeVector@@QAE?AV0@ABV0@@Z @581
    ??XFRangeVector@@QAE?AV0@M@Z @582
    ??XFRotator@@QAE?AV0@M@Z @583
    ??XFString@@QAEAAV0@ABV0@@Z @584
    ??XFString@@QAEAAV0@PBG@Z @585
    ??XFVector@@QAE?AV0@ABV0@@Z @586
    ??XFVector@@QAE?AV0@M@Z @587
    ??Y?$TArray@G@@QAEAAV0@ABV0@@Z @588
    ??YFBox@@QAEAAV0@ABV0@@Z @589
    ??YFBox@@QAEAAV0@ABVFVector@@@Z @590
    ??YFPlane@@QAE?AV0@ABV0@@Z @591
    ??YFRange@@QAE?AV0@ABV0@@Z @592
    ??YFRange@@QAE?AV0@M@Z @593
    ??YFRangeVector@@QAE?AV0@ABV0@@Z @594
    ??YFRangeVector@@QAE?AV0@ABVFVector@@@Z @595
    ??YFRotator@@QAE?AV0@ABV0@@Z @596
    ??YFString@@QAEAAV0@ABV0@@Z @597
    ??YFString@@QAEAAV0@PBG@Z @598
    ??YFVector@@QAE?AV0@ABV0@@Z @599
    ??ZFPlane@@QAE?AV0@ABV0@@Z @600
    ??ZFRange@@QAE?AV0@ABV0@@Z @601
    ??ZFRange@@QAE?AV0@M@Z @602
    ??ZFRangeVector@@QAE?AV0@ABV0@@Z @603
    ??ZFRangeVector@@QAE?AV0@ABVFVector@@@Z @604
    ??ZFRotator@@QAE?AV0@ABV0@@Z @605
    ??ZFVector@@QAE?AV0@ABV0@@Z @606
    ??_0FCoords@@QAEAAV0@ABVFRotator@@@Z @607
    ??_0FCoords@@QAEAAV0@ABVFScale@@@Z @608
    ??_0FCoords@@QAEAAV0@ABVFVector@@@Z @609
    ??_0FPlane@@QAE?AV0@M@Z @610
    ??_0FRange@@QAE?AV0@ABV0@@Z @611
    ??_0FRange@@QAE?AV0@M@Z @612
    ??_0FRangeVector@@QAE?AV0@ABV0@@Z @613
    ??_0FRangeVector@@QAE?AV0@M@Z @614
    ??_0FVector@@QAE?AV0@ABV0@@Z @615
    ??_0FVector@@QAE?AV0@M@Z @616
    ??_7FArchive@@6B@ @617
    ??_7FArchiveCountMem@@6B@ @618
    ??_7FArchiveDummySave@@6B@ @619
    ??_7FBitReader@@6B@ @620
    ??_7FBitWriter@@6B@ @621
    ??_7FBufferReader@@6B@ @622
    ??_7FErrorOutError@@6B@ @623
    ??_7FExec@@6B@ @624
    ??_7FFeedbackContext@@6B@ @625
    ??_7FFileManager@@6B@ @626
    ??_7FFrame@@6B@ @627
    ??_7FLogOutError@@6B@ @628
    ??_7FMalloc@@6B@ @629
    ??_7FNotifyHook@@6B@ @630
    ??_7FNullOutError@@6B@ @631
    ??_7FOutputDevice@@6B@ @632
    ??_7FOutputDeviceError@@6B@ @633
    ??_7FStateFrame@@6B@ @634
    ??_7FThrowOut@@6B@ @635
    ??_7FTransactionBase@@6B@ @636
    ??_7FUnknown@@6B@ @637
    ??_7UArrayProperty@@6B@ @638
    ??_7UBoolProperty@@6B@ @639
    ??_7UByteProperty@@6B@ @640
    ??_7UClass@@6B@ @641
    ??_7UClassProperty@@6B@ @642
    ??_7UCommandlet@@6B@ @643
    ??_7UConst@@6B@ @644
    ??_7UDelegateProperty@@6B@ @645
    ??_7UEnum@@6B@ @646
    ??_7UExporter@@6B@ @647
    ??_7UFactory@@6B@ @648
    ??_7UField@@6B@ @649
    ??_7UFixedArrayProperty@@6B@ @650
    ??_7UFloatProperty@@6B@ @651
    ??_7UFunction@@6B@ @652
    ??_7UIntProperty@@6B@ @653
    ??_7ULanguage@@6B@ @654
    ??_7ULinker@@6B@ @655
    ??_7UMapProperty@@6B@ @656
    ??_7UNameProperty@@6B@ @657
    ??_7UObject@@6B@ @658
    ??_7UObjectExporterT3D@@6B@ @659
    ??_7UObjectProperty@@6B@ @660
    ??_7UPackage@@6B@ @661
    ??_7UPackageMap@@6B@ @662
    ??_7UProperty@@6B@ @663
    ??_7UState@@6B@ @664
    ??_7UStrProperty@@6B@ @665
    ??_7UStruct@@6B@ @666
    ??_7UStructProperty@@6B@ @667
    ??_7USubsystem@@6BFExec@@@ @668
    ??_7USubsystem@@6BUObject@@@ @669
    ??_7USystem@@6BFExec@@@ @670
    ??_7USystem@@6BUObject@@@ @671
    ??_7UTextBuffer@@6BFOutputDevice@@@ @672
    ??_7UTextBuffer@@6BUObject@@@ @673
    ??_7UTextBufferFactory@@6B@ @674
    ??_FFBitReader@@QAEXXZ @675
    ??_FFPackageInfo@@QAEXXZ @676
    ??_FUTextBuffer@@QAEXXZ @677
    ?Add@?$TArray@G@@QAEHH@Z @678
    ?Add@FArray@@QAEHHH@Z @679
    ?Add@FRotator@@QAE?AV1@HHH@Z @680
    ?AddBounded@FRotator@@QAE?AV1@HHH@Z @681
    ?AddBounded@FVector@@QAEXABV1@M@Z @682
    ?AddCppProperty@UArrayProperty@@UAEXPAVUProperty@@@Z @683
    ?AddCppProperty@UField@@UAEXPAVUProperty@@@Z @684
    ?AddCppProperty@UFixedArrayProperty@@QAEXPAVUProperty@@H@Z @685
    ?AddCppProperty@UStruct@@UAEXPAVUProperty@@@Z @686
    ?AddDependency@UClass@@QAEXPAV1@H@Z @687
    ?AddItem@?$TArray@G@@QAEHABG@Z @688
    ?AddLinker@UPackageMap@@UAEHPAVULinkerLoad@@@Z @689
    ?AddObject@UObject@@AAEXH@Z @690
    ?AddPoint@FInterpCurve@@QAEXMM@Z @691
    ?AddRef@FUnknown@@UAGKXZ @692
    ?AddRef@UObject@@UAGKXZ @693
    ?AddToRoot@UObject@@QAEXXZ @694
    ?AddUniqueItem@?$TArray@G@@QAEHABG@Z @695
    ?AddZeroed@?$TArray@G@@QAEHH@Z @696
    ?AddZeroed@FArray@@QAEHHH@Z @697
    ?AllocateNameEntry@@YAPAUFNameEntry@@PBGKKPAU1@@Z @698
    ?AllocateNewChunk@FMemStack@@AAEPAEH@Z @699
    ?AngAxisToFQuat@FQuat@@QAE?AV1@XZ @700
    ?ApplyPivot@FCoords@@QBE?AV1@ABV1@@Z @701
    ?AtEnd@FArchive@@UAEHXZ @702
    ?AtEnd@FBitReader@@UAEHXZ @703
    ?AtEnd@FBufferReader@@UAEHXZ @704
    ?AtStopper@FArchive@@UAEHXZ @705
    ?AttachLazyLoader@FArchive@@UAEXPAVFLazyLoader@@@Z @706
    ?AttemptDelete@UObject@@SAHAAPAV1@KH@Z @707
    ?Available@FName@@0V?$TArray@H@@A @708
    ?BeginLoad@UObject@@SAXXZ @709
    ?Bind@UClass@@UAEXXZ @710
    ?Bind@UField@@UAEXXZ @711
    ?Bind@UFunction@@UAEXXZ @712
    ?BindPackage@UObject@@SAXPAVUPackage@@@Z @713
    ?Booleanize@FRange@@QAEHXZ @714
    ?Booleanize@FVector@@QAEHXZ @715
    ?BoundToCube@FVector@@QAE?AV1@M@Z @716
    ?ByteOrderSerialize@FArchive@@QAEAAV1@PAXH@Z @717
    ?CacheDrivers@UObject@@CAXH@Z @718
    ?CallFunction@UObject@@UAEXAAUFFrame@@QAXPAVUFunction@@@Z @719
    ?CanSerializeObject@UPackageMap@@UAEHPAVUObject@@@Z @720
    ?Caps@FString@@QBE?AV1@XZ @721
    ?CheckState@FMemCache@@QAEXXZ @722
    ?Chr@FString@@SA?AV1@G@Z @723
    ?Clamp@FRotator@@QAE?AV1@XZ @724
    ?ClampPos@FRotator@@QAE?AV1@XZ @725
    ?CleanupDestroyed@UArrayProperty@@UBEXPAE@Z @726
    ?CleanupDestroyed@UDelegateProperty@@UBEXPAE@Z @727
    ?CleanupDestroyed@UFixedArrayProperty@@UBEXPAE@Z @728
    ?CleanupDestroyed@UObjectProperty@@UBEXPAE@Z @729
    ?CleanupDestroyed@UProperty@@UBEXPAE@Z @730
    ?CleanupDestroyed@UStruct@@UAEXPAE@Z @731
    ?CleanupDestroyed@UStructProperty@@UBEXPAE@Z @732
    ?ClearFlags@FName@@QBEXK@Z @733
    ?ClearFlags@UObject@@QAEXK@Z @734
    ?Close@FArchive@@UAEHXZ @735
    ?CollectGarbage@UObject@@SAXK@Z @736
    ?Component@FRange@@QAEAAMH@Z @737
    ?Component@FRangeVector@@QAEAAVFRange@@H@Z @738
    ?Component@FVector@@QAEAAMH@Z @739
    ?Compute@UPackageMap@@UAEXXZ @740
    ?ConditionalCheckState@FMemCache@@AAEXXZ @741
    ?ConditionalDestroy@UObject@@QAEHXZ @742
    ?ConditionalPostLoad@UObject@@QAEXXZ @743
    ?ConditionalRegister@UObject@@QAEXXZ @744
    ?ConditionalShutdownAfterError@UObject@@QAEXXZ @745
    ?Coords@FMatrix@@QAE?AVFCoords@@XZ @746
    ?Copy@UPackageMap@@QAEXPAV1@@Z @747
    ?CopyCompleteValue@UArrayProperty@@UBEXPAX0PAVUObject@@@Z @748
    ?CopyCompleteValue@UByteProperty@@UBEXPAX0PAVUObject@@@Z @749
    ?CopyCompleteValue@UDelegateProperty@@UBEXPAX0PAVUObject@@@Z @750
    ?CopyCompleteValue@UFloatProperty@@UBEXPAX0PAVUObject@@@Z @751
    ?CopyCompleteValue@UIntProperty@@UBEXPAX0PAVUObject@@@Z @752
    ?CopyCompleteValue@UNameProperty@@UBEXPAX0PAVUObject@@@Z @753
    ?CopyCompleteValue@UObjectProperty@@UBEXPAX0PAVUObject@@@Z @754
    ?CopyCompleteValue@UProperty@@UBEXPAX0PAVUObject@@@Z @755
    ?CopyLinkers@UPackageMap@@QAEXPAV1@@Z @756
    ?CopySingleValue@UBoolProperty@@UBEXPAX0PAVUObject@@@Z @757
    ?CopySingleValue@UByteProperty@@UBEXPAX0PAVUObject@@@Z @758
    ?CopySingleValue@UDelegateProperty@@UBEXPAX0PAVUObject@@@Z @759
    ?CopySingleValue@UFixedArrayProperty@@UBEXPAX0PAVUObject@@@Z @760
    ?CopySingleValue@UFloatProperty@@UBEXPAX0PAVUObject@@@Z @761
    ?CopySingleValue@UIntProperty@@UBEXPAX0PAVUObject@@@Z @762
    ?CopySingleValue@UMapProperty@@UBEXPAX0PAVUObject@@@Z @763
    ?CopySingleValue@UNameProperty@@UBEXPAX0PAVUObject@@@Z @764
    ?CopySingleValue@UObjectProperty@@UBEXPAX0PAVUObject@@@Z @765
    ?CopySingleValue@UProperty@@UBEXPAX0PAVUObject@@@Z @766
    ?CopySingleValue@UStrProperty@@UBEXPAX0PAVUObject@@@Z @767
    ?CopySingleValue@UStructProperty@@UBEXPAX0PAVUObject@@@Z @768
    ?CosFloat@FGlobalMath@@QAEMM@Z @769
    ?CosTab@FGlobalMath@@QAEMH@Z @770
    ?CountBytes@?$TArray@G@@QAEXAAVFArchive@@@Z @771
    ?CountBytes@FArchive@@UAEXKK@Z @772
    ?CountBytes@FArchiveCountMem@@UAEXKK@Z @773
    ?CountBytes@FArray@@QAEXAAVFArchive@@H@Z @774
    ?Create@FFileStream@@QAEHHPBG@Z @775
    ?Create@FMemCache@@QAEPAE_KAAPAVFCacheItem@1@HHH@Z @776
    ?CreateNewFreeSpace@FMemCache@@AAEXPAE0PAVFCacheItem@1@1H@Z @777
    ?CreatePackage@UObject@@SAPAVUPackage@@PAV1@PBG@Z @778
    ?CreateStream@FFileStream@@QAEHPBGHHPAXW4EFileStreamType@@1@Z @779
    ?DeleteEntry@FName@@SAXH@Z @780
    ?Describe@FStateFrame@@QAEPBGXZ @781
    ?Destroy@FFileStream@@QAEHH@Z @782
    ?Destroy@FFileStream@@SAXXZ @783
    ?Destroy@UClass@@UAEXXZ @784
    ?Destroy@UObject@@UAEXXZ @785
    ?Destroy@UPackage@@UAEXXZ @786
    ?Destroy@UPackageMap@@UAEXXZ @787
    ?Destroy@UState@@UAEXXZ @788
    ?Destroy@UStruct@@UAEXXZ @789
    ?DestroyStream@FFileStream@@QAEXHH@Z @790
    ?DestroyValue@UArrayProperty@@UBEXPAX@Z @791
    ?DestroyValue@UFixedArrayProperty@@UBEXPAX@Z @792
    ?DestroyValue@UMapProperty@@UBEXPAX@Z @793
    ?DestroyValue@UProperty@@UBEXPAX@Z @794
    ?DestroyValue@UStrProperty@@UBEXPAX@Z @795
    ?DestroyValue@UStructProperty@@UBEXPAX@Z @796
    ?Destroyed@FFileStream@@2HA @797
    ?DetachLazyLoader@FArchive@@UAEXPAVFLazyLoader@@@Z @798
    ?Determinant@FMatrix@@QBEMXZ @799
    ?DisplayHash@FName@@SAXAAVFOutputDevice@@@Z @800
    ?EdClearLoadErrors@@YAXXZ @801
    ?EdLoadErrorf@@YAXHPBGZZ @802
    ?Empty@?$TArray@G@@QAEXH@Z @803
    ?Empty@FArray@@QAEXHH@Z @804
    ?Empty@FString@@QAEXXZ @805
    ?EndLoad@UObject@@SAXXZ @806
    ?Enter@FFileStream@@QAEXH@Z @807
    ?Eval@FInterpCurve@@QAEMM@Z @808
    ?Exec@FMemCache@@QAEHPBGAAVFOutputDevice@@@Z @809
    ?Exec@USystem@@UAEHPBGAAVFOutputDevice@@@Z @810
    ?Exit@FMemCache@@QAEXH@Z @811
    ?Exit@FMemStack@@QAEXXZ @812
    ?ExitProperties@UObject@@SAXPAEPAVUClass@@@Z @813
    ?ExpandBy@FBox@@QBE?AV1@M@Z @814
    ?ExportBinary@UExporter@@UAEHPAVUObject@@PBGAAVFArchive@@PAVFFeedbackContext@@@Z @815
    ?ExportCpp@UProperty@@UBEXAAVFOutputDevice@@HHH@Z @816
    ?ExportCppItem@UArrayProperty@@UBEXAAVFOutputDevice@@H@Z @817
    ?ExportCppItem@UBoolProperty@@UBEXAAVFOutputDevice@@H@Z @818
    ?ExportCppItem@UByteProperty@@UBEXAAVFOutputDevice@@H@Z @819
    ?ExportCppItem@UDelegateProperty@@UBEXAAVFOutputDevice@@H@Z @820
    ?ExportCppItem@UFixedArrayProperty@@UBEXAAVFOutputDevice@@H@Z @821
    ?ExportCppItem@UFloatProperty@@UBEXAAVFOutputDevice@@H@Z @822
    ?ExportCppItem@UIntProperty@@UBEXAAVFOutputDevice@@H@Z @823
    ?ExportCppItem@UMapProperty@@UBEXAAVFOutputDevice@@H@Z @824
    ?ExportCppItem@UNameProperty@@UBEXAAVFOutputDevice@@H@Z @825
    ?ExportCppItem@UObjectProperty@@UBEXAAVFOutputDevice@@H@Z @826
    ?ExportCppItem@UStrProperty@@UBEXAAVFOutputDevice@@H@Z @827
    ?ExportCppItem@UStructProperty@@UBEXAAVFOutputDevice@@H@Z @828
    ?ExportProperties@UObject@@SAXAAVFOutputDevice@@PAVUClass@@PAEH12@Z @829
    ?ExportText@UExporter@@UAEHPAVUObject@@PBGAAVFOutputDevice@@PAVFFeedbackContext@@@Z @830
    ?ExportText@UObjectExporterT3D@@UAEHPAVUObject@@PBGAAVFOutputDevice@@PAVFFeedbackContext@@@Z @831
    ?ExportText@UProperty@@UBEHHPAGPAE1H@Z @832
    ?ExportTextItem@UArrayProperty@@UBEXPAGPAE1H@Z @833
    ?ExportTextItem@UBoolProperty@@UBEXPAGPAE1H@Z @834
    ?ExportTextItem@UByteProperty@@UBEXPAGPAE1H@Z @835
    ?ExportTextItem@UDelegateProperty@@UBEXPAGPAE1H@Z @836
    ?ExportTextItem@UFixedArrayProperty@@UBEXPAGPAE1H@Z @837
    ?ExportTextItem@UFloatProperty@@UBEXPAGPAE1H@Z @838
    ?ExportTextItem@UIntProperty@@UBEXPAGPAE1H@Z @839
    ?ExportTextItem@UMapProperty@@UBEXPAGPAE1H@Z @840
    ?ExportTextItem@UNameProperty@@UBEXPAGPAE1H@Z @841
    ?ExportTextItem@UObjectProperty@@UBEXPAGPAE1H@Z @842
    ?ExportTextItem@UStrProperty@@UBEXPAGPAE1H@Z @843
    ?ExportTextItem@UStructProperty@@UBEXPAGPAE1H@Z @844
    ?ExportToArchive@UExporter@@SAXPAVUObject@@PAV1@AAVFArchive@@PBG@Z @845
    ?ExportToFile@UExporter@@SAHPAVUObject@@PAV1@PBGHH@Z @846
    ?ExportToOutputDevice@UExporter@@SAXPAVUObject@@PAV1@AAVFOutputDevice@@PBGH@Z @847
    ?FLineExtentBoxIntersection@@YAHABVFBox@@ABVFVector@@11AAV2@2AAM@Z @848
    ?FQuatToAngAxis@FQuat@@QAE?AV1@XZ @849
    ?FVector0@FVector@@2V1@B @850
    ?FactoryCreateBinary@UFactory@@UAEPAVUObject@@PAVUClass@@PAV2@VFName@@K1PBGAAPBEPBEPAVFFeedbackContext@@@Z @851
    ?FactoryCreateNew@UFactory@@UAEPAVUObject@@PAVUClass@@PAV2@VFName@@K1PAVFFeedbackContext@@@Z @852
    ?FactoryCreateText@UFactory@@UAEPAVUObject@@PAVULevel@@PAVUClass@@PAV2@VFName@@K2PBGAAPBG4PAVFFeedbackContext@@@Z @853
    ?FactoryCreateText@UTextBufferFactory@@UAEPAVUObject@@PAVULevel@@PAVUClass@@PAV2@VFName@@K2PBGAAPBG4PAVFFeedbackContext@@@Z @854
    ?FindBestAxisVectors@FVector@@QAEXAAV1@0@Z @855
    ?FindExporter@UExporter@@SAPAV1@PAVUObject@@PBG@Z @856
    ?FindFunction@UObject@@QAEPAVUFunction@@VFName@@H@Z @857
    ?FindFunctionChecked@UObject@@QAEPAVUFunction@@VFName@@H@Z @858
    ?FindItem@?$TArray@G@@QBEHABGAAH@Z @859
    ?FindItemIndex@?$TArray@G@@QBEHABG@Z @860
    ?FindObjectField@UObject@@QAEPAVUField@@VFName@@H@Z @861
    ?FindState@UObject@@QAEPAVUState@@VFName@@@Z @862
    ?First@FMemCache@@QAEPAVFCacheItem@1@XZ @863
    ?Flip@FPlane@@QBE?AV1@XZ @864
    ?Flush@FArchive@@UAEXXZ @865
    ?Flush@FMemCache@@QAEX_KKH@Z @866
    ?FlushItem@FMemCache@@AAEPAVFCacheItem@1@PAV21@H@Z @867
    ?ForClient@FArchive@@QAEHXZ @868
    ?ForEdit@FArchive@@QAEHXZ @869
    ?ForServer@FArchive@@QAEHXZ @870
    ?FormatAsNumber@FString@@SA?AV1@H@Z @871
    ?FreeChunks@FMemStack@@AAEXPAUFTaggedMemory@1@@Z @872
    ?GAudioDefaultRadius@@3MA @873
    ?GAudioMaxRadiusMultiplier@@3MA @874
    ?GAutoRegister@UObject@@0PAV1@A @875
    ?GCRCTable@@3PAKA @876
    ?GCastDuplicate@@3HA @877
    ?GCasts@@3PAP8UObject@@AEXAAUFFrame@@QAX@ZA @878
    ?GCdPath@@3PAGA @879
    ?GCompileMaterialsRevision@@3EA @880
    ?GConfig@@3PAVFConfigCache@@A @881
    ?GDebugger@@3PAVUDebugger@@A @882
    ?GDummySave@@3PAVFArchive@@A @883
    ?GEdLoadErrors@@3V?$TArray@VFEdLoadError@@@@A @884
    ?GEdSelectionLock@@3HA @885
    ?GEdShowFogInViewports@@3HA @886
    ?GError@@3PAVFOutputDeviceError@@A @887
    ?GErrorHist@@3PAGA @888
    ?GExec@@3PAVFExec@@A @889
    ?GFalse@@3PAGA @890
    ?GFileManager@@3PAVFFileManager@@A @891
    ?GFileStream@@3PAVFFileStream@@A @892
    ?GHash@FMemCache@@QAEKK@Z @893
    ?GHideHiddenInEditor@@3HA @894
    ?GImportCount@UObject@@0HA @895
    ?GIndexArrayDebugPkg@@3V?$TArray@H@@A @896
    ?GIndexDebugPkg@@3HA @897
    ?GInitRunaway@@YAXXZ @898
    ?GIntArrayDebugPkg@@3V?$TArray@H@@A @899
    ?GIsClient@@3HA @900
    ?GIsCriticalError@@3HA @901
    ?GIsEditor@@3HA @902
    ?GIsErrorNotABug@@3HA @903
    ?GIsGarbageCollecting@@3HA @904
    ?GIsGuarded@@3HA @905
    ?GIsNightmare@@3HA @906
    ?GIsNullDebugPkg@@3EA @907
    ?GIsRenderingMenus@@3HA @908
    ?GIsRequestingExit@@3HA @909
    ?GIsRunning@@3HA @910
    ?GIsScriptable@@3HA @911
    ?GIsServer@@3HA @912
    ?GIsSlowTask@@3HA @913
    ?GIsStarted@@3HA @914
    ?GIsStrict@@3HA @915
    ?GIsUCC@@3HA @916
    ?GLanguage@UObject@@0PAGA @917
    ?GLazyLoad@@3HA @918
    ?GLog@@3PAVFOutputDevice@@A @919
    ?GLogHook@@3PAVFOutputDevice@@A @920
    ?GMachineCPU@@3PAGA @921
    ?GMachineOS@@3PAGA @922
    ?GMachineVideo@@3PAGA @923
    ?GMalloc@@3PAVFMalloc@@A @924
    ?GMath@@3VFGlobalMath@@A @925
    ?GMem@@3VFMemStack@@A @926
    ?GNativeDuplicate@@3HA @927
    ?GNatives@@3PAP8UObject@@AEXAAUFFrame@@QAX@ZA @928
    ?GNightVisionActive@@3HA @929
    ?GNo@@3PAGA @930
    ?GNone@@3PAGA @931
    ?GNull@@3PAVFOutputDevice@@A @932
    ?GObjAvailable@UObject@@0V?$TArray@H@@A @933
    ?GObjBeginLoadCount@UObject@@0HA @934
    ?GObjCachedLanguage@UObject@@0PAGA @935
    ?GObjDrivers@UObject@@0V?$TArray@VFRegistryObjectInfo@@@@A @936
    ?GObjHash@UObject@@0PAPAV1@A @937
    ?GObjInitialized@UObject@@0HA @938
    ?GObjLoaded@UObject@@0V?$TArray@PAVUObject@@@@A @939
    ?GObjLoaders@UObject@@0V?$TArray@PAVUObject@@@@A @940
    ?GObjNoRegister@UObject@@0HA @941
    ?GObjObjects@UObject@@0V?$TArray@PAVUObject@@@@A @942
    ?GObjPackageRemap@UObject@@0PAV?$TMultiMap@VFName@@V1@@@A @943
    ?GObjPreferences@UObject@@0V?$TArray@VFPreferencesInfo@@@@A @944
    ?GObjRegisterCount@UObject@@0HA @945
    ?GObjRegistrants@UObject@@0V?$TArray@PAVUObject@@@@A @946
    ?GObjRoot@UObject@@0V?$TArray@PAVUObject@@@@A @947
    ?GObjTransientPkg@UObject@@0PAVUPackage@@A @948
    ?GObjetDebugPkg@@3PAXA @949
    ?GPageSize@@3KA @950
    ?GPhysicalMemory@@3KA @951
    ?GProcessorCount@@3KA @952
    ?GPropAddr@@3PAEA @953
    ?GPropObject@@3PAVUObject@@A @954
    ?GProperty@@3PAVUProperty@@A @955
    ?GRegisterCast@@YAEHABQ8UObject@@AEXAAUFFrame@@QAX@Z@Z @956
    ?GRegisterNative@@YAEHABQ8UObject@@AEXAAUFFrame@@QAX@Z@Z @957
    ?GRuntimeUCFlags@@3KA @958
    ?GScriptCycles@@3HA @959
    ?GScriptEntryTag@@3HA @960
    ?GSecondsPerCycle@@3NA @961
    ?GShowCollisionModel@@3HA @962
    ?GSys@@3PAVUSystem@@A @963
    ?GTagPropertyDebugPkg@@3PAXA @964
    ?GTempDouble@@3NA @965
    ?GTempFunc@@3P6AXPAX@ZA @966
    ?GThrow@@3PAVFOutputDevice@@A @967
    ?GTicks@@3_JA @968
    ?GTrue@@3PAGA @969
    ?GUglyHackFlags@@3KA @970
    ?GUndo@@3PAVFTransactionBase@@A @971
    ?GUnicode@@3HA @972
    ?GUnicodeOS@@3HA @973
    ?GUseCullDistance@@3HA @974
    ?GUseCullDistanceProjector@@3HA @975
    ?GUseStaticMeshSimpleCollision@@3HA @976
    ?GWarn@@3PAVFFeedbackContext@@A @977
    ?GWindowManager@@3PAVUSubsystem@@A @978
    ?GYes@@3PAGA @979
    ?GZoomAdjustment@@3MA @980
    ?GZoomAdjustmentSniperMode@@3MA @981
    ?GZoomAdjustmentSniperNoZoom@@3MA @982
    ?GZoomAdjustmentSniperZoom@@3MA @983
    ?Get@FMemCache@@QAEPAE_KAAPAVFCacheItem@1@H@Z @984
    ?GetAbsMax@FVector@@QBEMXZ @985
    ?GetByteCount@FMemStack@@QAEHXZ @986
    ?GetCenter@FBox@@QBE?AVFVector@@XZ @987
    ?GetCenter@FRange@@QBEMXZ @988
    ?GetCenter@FRangeVector@@QBE?AVFVector@@XZ @989
    ?GetCenterAndExtents@FBox@@QAEXAAVFVector@@0@Z @990
    ?GetCharArray@FString@@QAEAAV?$TArray@G@@XZ @991
    ?GetClass@UObject@@QBEPAVUClass@@XZ @992
    ?GetClassNetCache@UPackageMap@@UAEPAVFClassNetCache@@PAVUClass@@@Z @993
    ?GetCost@FCacheItem@FMemCache@@QAEHXZ @994
    ?GetData@FArray@@QAEPAXXZ @995
    ?GetData@FArray@@QBEPBXXZ @996
    ?GetData@FBitReader@@QAEPAEXZ @997
    ?GetData@FBitWriter@@QAEPAEXZ @998
    ?GetData@FCacheItem@FMemCache@@QAEPAEXZ @999
    ?GetDefaultActor@UClass@@QAEPAVAActor@@XZ @1000
    ?GetDefaultObject@UClass@@QAEPAVUObject@@XZ @1001
    ?GetDllExport@UPackage@@QAEPAXPBGH@Z @1002
    ?GetEntry@FName@@SAPAUFNameEntry@@H@Z @1003
    ?GetError@FArchive@@UAEHXZ @1004
    ?GetExportFullName@ULinker@@QAE?AVFString@@HPBG@Z @1005
    ?GetExtent@FBox@@QBE?AVFVector@@XZ @1006
    ?GetExtra@FCacheItem@FMemCache@@QAEEXZ @1007
    ?GetExtrema@FBox@@QAEAAVFVector@@H@Z @1008
    ?GetExtrema@FBox@@QBEABVFVector@@H@Z @1009
    ?GetFName@UObject@@QBE?BVFName@@XZ @1010
    ?GetFileAgeDays@@YAHPBG@Z @1011
    ?GetFlags@FName@@QBEKXZ @1012
    ?GetFlags@UObject@@QBEKXZ @1013
    ?GetFromField@FClassNetCache@@QAEPAVFFieldNetCache@@PAVUObject@@@Z @1014
    ?GetFromIndex@FClassNetCache@@QAEPAVFFieldNetCache@@H@Z @1015
    ?GetFullName@UObject@@QBEPBGPAG@Z @1016
    ?GetID@UClassProperty@@UBEEXZ @1017
    ?GetID@UProperty@@UBEEXZ @1018
    ?GetId@FCacheItem@FMemCache@@QAE_KXZ @1019
    ?GetImportFullName@ULinker@@QAE?AVFString@@H@Z @1020
    ?GetIndex@FName@@QBEHXZ @1021
    ?GetIndex@UObject@@QBEKXZ @1022
    ?GetIndexedObject@UObject@@SAPAV1@H@Z @1023
    ?GetInheritanceSuper@UClass@@UAEPAVUStruct@@XZ @1024
    ?GetInheritanceSuper@UFunction@@UAEPAVUStruct@@XZ @1025
    ?GetInheritanceSuper@UState@@UAEPAVUStruct@@XZ @1026
    ?GetInheritanceSuper@UStruct@@UAEPAV1@XZ @1027
    ?GetInitialized@FName@@SAHXZ @1028
    ?GetInitialized@UObject@@SAHXZ @1029
    ?GetLanguage@UObject@@SAPBGXZ @1030
    ?GetLinker@UObject@@QAEPAVULinkerLoad@@XZ @1031
    ?GetLinkerIndex@UObject@@QAEHXZ @1032
    ?GetLoader@UObject@@CAPAVULinkerLoad@@H@Z @1033
    ?GetMax@FArchiveCountMem@@QAEKXZ @1034
    ?GetMax@FRange@@QBEMXZ @1035
    ?GetMax@FRangeVector@@QBE?AVFVector@@XZ @1036
    ?GetMax@FVector@@QBEMXZ @1037
    ?GetMaxIndex@FClassNetCache@@QAEHXZ @1038
    ?GetMaxNames@FName@@SAHXZ @1039
    ?GetMaxObjectIndex@UPackageMap@@UAEHXZ @1040
    ?GetMemoryBlockSize@FMalloc@@UAEHPAX@Z @1041
    ?GetMin@FRange@@QBEMXZ @1042
    ?GetName@UObject@@QBEPBGXZ @1043
    ?GetNameCPP@UClass@@UAEPAGXZ @1044
    ?GetNameCPP@UStruct@@UAEPAGXZ @1045
    ?GetNonParallel@FVector@@QAE?AV1@XZ @1046
    ?GetNormalized@FVector@@QAE?AV1@XZ @1047
    ?GetNum@FArchiveCountMem@@QAEKXZ @1048
    ?GetNumBits@FBitReader@@QAEHXZ @1049
    ?GetNumBits@FBitWriter@@QAEHXZ @1050
    ?GetNumBits@FBitWriterMark@@QAEHXZ @1051
    ?GetNumBytes@FBitReader@@QAEHXZ @1052
    ?GetNumBytes@FBitWriter@@QAEHXZ @1053
    ?GetObjectHash@UObject@@SAHVFName@@H@Z @1054
    ?GetOuter@UObject@@QBEPAV1@XZ @1055
    ?GetOuterUField@UProperty@@QBEPAVUField@@XZ @1056
    ?GetOuterUPackage@UClass@@QBEPAVUPackage@@XZ @1057
    ?GetOuterUState@UFunction@@QBEPAVUState@@XZ @1058
    ?GetOuterUStruct@UConst@@QBEPAVUStruct@@XZ @1059
    ?GetOuterUStruct@UEnum@@QBEPAVUStruct@@XZ @1060
    ?GetOwnerClass@UField@@UAEPAVUClass@@XZ @1061
    ?GetPackageLinker@UObject@@SAPAVULinkerLoad@@PAV1@PBGKPAVUPackageMap@@PAVFGuid@@@Z @1062
    ?GetPathName@UObject@@QBEPBGPAV1@PAG@Z @1063
    ?GetPosBits@FBitReader@@QAEHXZ @1064
    ?GetPreferences@UObject@@SAXAAV?$TArray@VFPreferencesInfo@@@@PBGH@Z @1065
    ?GetPropertiesSize@UField@@UAEHXZ @1066
    ?GetPropertiesSize@UObject@@UAEHXZ @1067
    ?GetPropertiesSize@UStruct@@UAEHXZ @1068
    ?GetRand@FRange@@QBEMXZ @1069
    ?GetRand@FRangeVector@@QBE?AVFVector@@XZ @1070
    ?GetRegistryObjects@UObject@@SAXAAV?$TArray@VFRegistryObjectInfo@@@@PAVUClass@@1H@Z @1071
    ?GetRepConditionCount@FClassNetCache@@QAEHXZ @1072
    ?GetReturnProperty@UFunction@@QAEPAVUProperty@@XZ @1073
    ?GetSRand@FRange@@QBEMXZ @1074
    ?GetSRand@FRangeVector@@QBE?AVFVector@@XZ @1075
    ?GetScriptTextCRC@UStruct@@QAEKXZ @1076
    ?GetSize@FCacheItem@FMemCache@@QAEHXZ @1077
    ?GetSize@UProperty@@QBEHXZ @1078
    ?GetStateFrame@UObject@@QAEPAUFStateFrame@@XZ @1079
    ?GetSuperClass@UClass@@QBEPAV1@XZ @1080
    ?GetSuperConst@UConst@@QBEPAV1@XZ @1081
    ?GetSuperEnum@UEnum@@QBEPAV1@XZ @1082
    ?GetSuperFunction@UFunction@@QBEPAV1@XZ @1083
    ?GetSuperState@UState@@QBEPAV1@XZ @1084
    ?GetSuperStruct@UStruct@@QBEPAV1@XZ @1085
    ?GetTime@FCacheItem@FMemCache@@QAEGXZ @1086
    ?GetTime@FMemCache@@QAEHXZ @1087
    ?GetTransientPackage@UObject@@SAPAVUPackage@@XZ @1088
    ?GlobalSetProperty@UObject@@SAXPBGPAVUClass@@PAVUProperty@@HH@Z @1089
    ?GotoLabel@UObject@@UAEHVFName@@@Z @1090
    ?GotoState@UObject@@UAE?AW4EGotoState@@VFName@@@Z @1091
    ?GridSnap@FRange@@QAE?AV1@ABV1@@Z @1092
    ?GridSnap@FRangeVector@@QAE?AV1@ABV1@@Z @1093
    ?GridSnap@FRotator@@QAE?AV1@ABV1@@Z @1094
    ?GridSnap@FVector@@QAE?AV1@ABV1@@Z @1095
    ?HandleError@FErrorOutError@@UAEXXZ @1096
    ?Hardcode@FName@@SAXPAUFNameEntry@@@Z @1097
    ?HashObject@UObject@@AAEXXZ @1098
    ?Identical@UArrayProperty@@UBEHPBX0@Z @1099
    ?Identical@UBoolProperty@@UBEHPBX0@Z @1100
    ?Identical@UByteProperty@@UBEHPBX0@Z @1101
    ?Identical@UDelegateProperty@@UBEHPBX0@Z @1102
    ?Identical@UFixedArrayProperty@@UBEHPBX0@Z @1103
    ?Identical@UFloatProperty@@UBEHPBX0@Z @1104
    ?Identical@UIntProperty@@UBEHPBX0@Z @1105
    ?Identical@UMapProperty@@UBEHPBX0@Z @1106
    ?Identical@UNameProperty@@UBEHPBX0@Z @1107
    ?Identical@UObjectProperty@@UBEHPBX0@Z @1108
    ?Identical@UStrProperty@@UBEHPBX0@Z @1109
    ?Identical@UStructProperty@@UBEHPBX0@Z @1110
    ?Identity@FMatrix@@2V1@A @1111
    ?ImportText@UArrayProperty@@UBEPBGPBGPAEH@Z @1112
    ?ImportText@UBoolProperty@@UBEPBGPBGPAEH@Z @1113
    ?ImportText@UByteProperty@@UBEPBGPBGPAEH@Z @1114
    ?ImportText@UClassProperty@@UBEPBGPBGPAEH@Z @1115
    ?ImportText@UDelegateProperty@@UBEPBGPBGPAEH@Z @1116
    ?ImportText@UFixedArrayProperty@@UBEPBGPBGPAEH@Z @1117
    ?ImportText@UFloatProperty@@UBEPBGPBGPAEH@Z @1118
    ?ImportText@UIntProperty@@UBEPBGPBGPAEH@Z @1119
    ?ImportText@UMapProperty@@UBEPBGPBGPAEH@Z @1120
    ?ImportText@UNameProperty@@UBEPBGPBGPAEH@Z @1121
    ?ImportText@UObjectProperty@@UBEPBGPBGPAEH@Z @1122
    ?ImportText@UStrProperty@@UBEPBGPBGPAEH@Z @1123
    ?ImportText@UStructProperty@@UBEPBGPBGPAEH@Z @1124
    ?InStr@FString@@QBEHABV1@H@Z @1125
    ?InStr@FString@@QBEHPBGH@Z @1126
    ?IndexToObject@UPackageMap@@UAEPAVUObject@@HH@Z @1127
    ?Init@FBox@@QAEXXZ @1128
    ?Init@FFileManager@@UAEXH@Z @1129
    ?Init@FFileStream@@SAPAV1@H@Z @1130
    ?Init@FMemCache@@QAEXHHPAXH@Z @1131
    ?Init@FMemStack@@QAEXH@Z @1132
    ?InitClassDefaultObject@UObject@@QAEXPAVUClass@@H@Z @1133
    ?InitExecution@UObject@@UAEXXZ @1134
    ?InitProperties@UObject@@SAXPAEHPAVUClass@@0HPAV1@H@Z @1135
    ?Initialized@FName@@0HA @1136
    ?Insert@?$TArray@G@@QAEXHH@Z @1137
    ?Insert@FArray@@QAEXHHH@Z @1138
    ?InsertZeroed@?$TArray@G@@QAEXHH@Z @1139
    ?InsertZeroed@FArray@@QAEXHHH@Z @1140
    ?Instance@FFileStream@@2PAV1@A @1141
    ?InternalConstructor@UArrayProperty@@SAXPAX@Z @1142
    ?InternalConstructor@UBoolProperty@@SAXPAX@Z @1143
    ?InternalConstructor@UByteProperty@@SAXPAX@Z @1144
    ?InternalConstructor@UClass@@SAXPAX@Z @1145
    ?InternalConstructor@UClassProperty@@SAXPAX@Z @1146
    ?InternalConstructor@UCommandlet@@SAXPAX@Z @1147
    ?InternalConstructor@UConst@@SAXPAX@Z @1148
    ?InternalConstructor@UDelegateProperty@@SAXPAX@Z @1149
    ?InternalConstructor@UEnum@@SAXPAX@Z @1150
    ?InternalConstructor@UFixedArrayProperty@@SAXPAX@Z @1151
    ?InternalConstructor@UFloatProperty@@SAXPAX@Z @1152
    ?InternalConstructor@UFunction@@SAXPAX@Z @1153
    ?InternalConstructor@UIntProperty@@SAXPAX@Z @1154
    ?InternalConstructor@ULinker@@SAXPAX@Z @1155
    ?InternalConstructor@UMapProperty@@SAXPAX@Z @1156
    ?InternalConstructor@UNameProperty@@SAXPAX@Z @1157
    ?InternalConstructor@UObject@@SAXPAX@Z @1158
    ?InternalConstructor@UObjectExporterT3D@@SAXPAX@Z @1159
    ?InternalConstructor@UObjectProperty@@SAXPAX@Z @1160
    ?InternalConstructor@UPackage@@SAXPAX@Z @1161
    ?InternalConstructor@UPackageMap@@SAXPAX@Z @1162
    ?InternalConstructor@UState@@SAXPAX@Z @1163
    ?InternalConstructor@UStrProperty@@SAXPAX@Z @1164
    ?InternalConstructor@UStruct@@SAXPAX@Z @1165
    ?InternalConstructor@UStructProperty@@SAXPAX@Z @1166
    ?InternalConstructor@USystem@@SAXPAX@Z @1167
    ?InternalConstructor@UTextBuffer@@SAXPAX@Z @1168
    ?InternalConstructor@UTextBufferFactory@@SAXPAX@Z @1169
    ?Intersect@FBox@@QBE_NABV1@@Z @1170
    ?Inverse@FCoords@@QBE?AV1@XZ @1171
    ?Inverse@FMatrix@@QAE?AV1@XZ @1172
    ?Inverse@FModelCoords@@QAE?AV1@XZ @1173
    ?IsA@UClass@@ABEHPAV1@@Z @1174
    ?IsA@UObject@@QBEHPAVUClass@@@Z @1175
    ?IsChildOf@UStruct@@QBEHPBV1@@Z @1176
    ?IsCriticalError@FArchive@@QAEHXZ @1177
    ?IsError@FArchive@@QAEHXZ @1178
    ?IsIn@UObject@@QBEHPAV1@@Z @1179
    ?IsLoading@FArchive@@QAEHXZ @1180
    ?IsNearlyZero@FRange@@QBEHXZ @1181
    ?IsNearlyZero@FRangeVector@@QBEHXZ @1182
    ?IsNearlyZero@FVector@@QBEHXZ @1183
    ?IsNet@FArchive@@QAEHXZ @1184
    ?IsPendingDelete@UObject@@UAEHXZ @1185
    ?IsPendingKill@UObject@@UAEHXZ @1186
    ?IsPersistent@FArchive@@QAEHXZ @1187
    ?IsProbing@UObject@@QAEHVFName@@@Z @1188
    ?IsRavenShieldCDInDrive@@YAHXZ @1189
    ?IsReferenced@UObject@@SAHAAPAV1@KH@Z @1190
    ?IsSaving@FArchive@@QAEHXZ @1191
    ?IsTrans@FArchive@@QAEHXZ @1192
    ?IsUniform@FVector@@QAEHXZ @1193
    ?IsUpToDate@FDependency@@QAEHXZ @1194
    ?IsValid@FName@@QAEHXZ @1195
    ?IsValid@UObject@@QAEHXZ @1196
    ?IsValidIndex@FArray@@QBEHH@Z @1197
    ?IsZero@FRange@@QBEHXZ @1198
    ?IsZero@FRangeVector@@QBEHXZ @1199
    ?IsZero@FRotator@@QBEHXZ @1200
    ?IsZero@FVector@@QBEHXZ @1201
    ?LanguageChange@UObject@@UAEXXZ @1202
    ?Last@?$TArray@G@@QAEAAGH@Z @1203
    ?Last@?$TArray@G@@QBEABGH@Z @1204
    ?Last@FMemCache@@QAEPAVFCacheItem@1@XZ @1205
    ?Leave@FFileStream@@QAEXH@Z @1206
    ?Left@FString@@QBE?AV1@H@Z @1207
    ?LeftChop@FString@@QBE?AV1@H@Z @1208
    ?LeftPad@FString@@QAE?AV1@H@Z @1209
    ?Len@FString@@QBEHXZ @1210
    ?LicenseeVer@FArchive@@QAEHXZ @1211
    ?LineCheck@FCylinder@@QBEHABVFVector@@0AAV2@@Z @1212
    ?LineIntersection@FCylinder@@QBEHABVFVector@@0QAM@Z @1213
    ?Link@UArrayProperty@@UAEXAAVFArchive@@PAVUProperty@@@Z @1214
    ?Link@UBoolProperty@@UAEXAAVFArchive@@PAVUProperty@@@Z @1215
    ?Link@UByteProperty@@UAEXAAVFArchive@@PAVUProperty@@@Z @1216
    ?Link@UClass@@UAEXAAVFArchive@@H@Z @1217
    ?Link@UDelegateProperty@@UAEXAAVFArchive@@PAVUProperty@@@Z @1218
    ?Link@UFixedArrayProperty@@UAEXAAVFArchive@@PAVUProperty@@@Z @1219
    ?Link@UFloatProperty@@UAEXAAVFArchive@@PAVUProperty@@@Z @1220
    ?Link@UFunction@@UAEXAAVFArchive@@H@Z @1221
    ?Link@UIntProperty@@UAEXAAVFArchive@@PAVUProperty@@@Z @1222
    ?Link@UMapProperty@@UAEXAAVFArchive@@PAVUProperty@@@Z @1223
    ?Link@UNameProperty@@UAEXAAVFArchive@@PAVUProperty@@@Z @1224
    ?Link@UObjectProperty@@UAEXAAVFArchive@@PAVUProperty@@@Z @1225
    ?Link@UProperty@@UAEXAAVFArchive@@PAV1@@Z @1226
    ?Link@UState@@UAEXAAVFArchive@@H@Z @1227
    ?Link@UStrProperty@@UAEXAAVFArchive@@PAVUProperty@@@Z @1228
    ?Link@UStruct@@UAEXAAVFArchive@@H@Z @1229
    ?Link@UStructProperty@@UAEXAAVFArchive@@PAVUProperty@@@Z @1230
    ?LoadConfig@UObject@@QAEXHPAVUClass@@PBG@Z @1231
    ?LoadLocalized@UObject@@QAEXHPAVUClass@@@Z @1232
    ?LoadPackage@UObject@@SAPAV1@PAV1@PBGK@Z @1233
    ?Localize@@YAPBGPBD0PBG1HH@Z @1234
    ?Localize@@YAPBGPBG000HH@Z @1235
    ?LocalizeError@@YAPBGPBDPBG1@Z @1236
    ?LocalizeError@@YAPBGPBG00@Z @1237
    ?LocalizeGeneral@@YAPBGPBDPBG1@Z @1238
    ?LocalizeGeneral@@YAPBGPBG00@Z @1239
    ?LocalizeProgress@@YAPBGPBDPBG1@Z @1240
    ?LocalizeProgress@@YAPBGPBG00@Z @1241
    ?LocalizeQuery@@YAPBGPBDPBG1@Z @1242
    ?LocalizeQuery@@YAPBGPBG00@Z @1243
    ?Locs@FString@@QBE?AV1@XZ @1244
    ?Log@FOutputDevice@@QAEXABVFString@@@Z @1245
    ?Log@FOutputDevice@@QAEXPBG@Z @1246
    ?Log@FOutputDevice@@QAEXW4EName@@ABVFString@@@Z @1247
    ?Log@FOutputDevice@@QAEXW4EName@@PBG@Z @1248
    ?Logf@FOutputDevice@@QAAXPBGZZ @1249
    ?Logf@FOutputDevice@@QAAXW4EName@@PBGZZ @1250
    ?Main@UCommandlet@@UAEHPBG@Z @1251
    ?MakeUniqueObjectName@UObject@@CA?AVFName@@PAV1@PAVUClass@@@Z @1252
    ?MapCheck_Add@FFeedbackContext@@UAEXHPAXPBG@Z @1253
    ?MapCheck_Clear@FFeedbackContext@@UAEXXZ @1254
    ?MapCheck_Hide@FFeedbackContext@@UAEXXZ @1255
    ?MapCheck_Show@FFeedbackContext@@UAEXXZ @1256
    ?MapCheck_ShowConditionally@FFeedbackContext@@UAEXXZ @1257
    ?MapName@FArchive@@UAEHPAVFName@@@Z @1258
    ?MapObject@FArchive@@UAEHPAVUObject@@@Z @1259
    ?Matches@UProperty@@QBEHPBX0H@Z @1260
    ?Matrix@FCoords@@QBE?AVFMatrix@@XZ @1261
    ?MaxStreams@FFileStream@@2HA @1262
    ?MergeBools@UClass@@UAEHXZ @1263
    ?MergeBools@UField@@UAEHXZ @1264
    ?MergeBools@UFunction@@UAEHXZ @1265
    ?MergeBools@UState@@UAEHXZ @1266
    ?MergeWithNext@FMemCache@@AAEPAVFCacheItem@1@PAV21@@Z @1267
    ?Mid@FString@@QBE?AV1@HH@Z @1268
    ?MirrorByPlane@FCoords@@QBE?AV1@ABVFPlane@@@Z @1269
    ?MirrorByPlane@FVector@@QBE?AV1@ABVFPlane@@@Z @1270
    ?MirrorByVector@FCoords@@QBE?AV1@ABVFVector@@@Z @1271
    ?MirrorByVector@FVector@@QBE?AV1@ABV1@@Z @1272
    ?Modify@UObject@@UAEXXZ @1273
    ?NameHash@FName@@0PAPAUFNameEntry@@A @1274
    ?Names@FName@@0V?$TArray@PAUFNameEntry@@@@A @1275
    ?NetDirty@UObject@@UAEXPAVUProperty@@@Z @1276
    ?NetSerializeItem@UArrayProperty@@UBEHAAVFArchive@@PAVUPackageMap@@PAX@Z @1277
    ?NetSerializeItem@UBoolProperty@@UBEHAAVFArchive@@PAVUPackageMap@@PAX@Z @1278
    ?NetSerializeItem@UByteProperty@@UBEHAAVFArchive@@PAVUPackageMap@@PAX@Z @1279
    ?NetSerializeItem@UDelegateProperty@@UBEHAAVFArchive@@PAVUPackageMap@@PAX@Z @1280
    ?NetSerializeItem@UFixedArrayProperty@@UBEHAAVFArchive@@PAVUPackageMap@@PAX@Z @1281
    ?NetSerializeItem@UFloatProperty@@UBEHAAVFArchive@@PAVUPackageMap@@PAX@Z @1282
    ?NetSerializeItem@UIntProperty@@UBEHAAVFArchive@@PAVUPackageMap@@PAX@Z @1283
    ?NetSerializeItem@UMapProperty@@UBEHAAVFArchive@@PAVUPackageMap@@PAX@Z @1284
    ?NetSerializeItem@UObjectProperty@@UBEHAAVFArchive@@PAVUPackageMap@@PAX@Z @1285
    ?NetSerializeItem@UProperty@@UBEHAAVFArchive@@PAVUPackageMap@@PAX@Z @1286
    ?NetSerializeItem@UStructProperty@@UBEHAAVFArchive@@PAVUPackageMap@@PAX@Z @1287
    ?NetVer@FArchive@@QAEHXZ @1288
    ?Next@FMemCache@@QAEPAVFCacheItem@1@PAV21@@Z @1289
    ?Normalize@FQuat@@QAEHXZ @1290
    ?Normalize@FVector@@QAEHXZ @1291
    ?NotifyDestroy@FNotifyHook@@UAEXPAX@Z @1292
    ?NotifyExec@FNotifyHook@@UAEXPAXPBG@Z @1293
    ?NotifyPostChange@FNotifyHook@@UAEXPAX@Z @1294
    ?NotifyPreChange@FNotifyHook@@UAEXPAX@Z @1295
    ?Num@FArray@@QBEHXZ @1296
    ?ObjectToIndex@UPackageMap@@UAEHPAVUObject@@@Z @1297
    ?Orientation@FScale@@QAEMXZ @1298
    ?OrthoRotation@FCoords@@QBE?AVFRotator@@XZ @1299
    ?Parse@@YAHPBG0AAC@Z @1300
    ?Parse@@YAHPBG0AAE@Z @1301
    ?Parse@@YAHPBG0AAF@Z @1302
    ?Parse@@YAHPBG0AAG@Z @1303
    ?Parse@@YAHPBG0AAH@Z @1304
    ?Parse@@YAHPBG0AAK@Z @1305
    ?Parse@@YAHPBG0AAM@Z @1306
    ?Parse@@YAHPBG0AAVFGuid@@@Z @1307
    ?Parse@@YAHPBG0AAVFName@@@Z @1308
    ?Parse@@YAHPBG0AAVFString@@@Z @1309
    ?Parse@@YAHPBG0AA_J@Z @1310
    ?Parse@@YAHPBG0AA_K@Z @1311
    ?Parse@@YAHPBG0PAGH@Z @1312
    ?ParseCommand@@YAHPAPBGPBG@Z @1313
    ?ParseIntoArray@FString@@QAEHPBGPAV?$TArray@VFString@@@@@Z @1314
    ?ParseLine@@YAHPAPBGAAVFString@@H@Z @1315
    ?ParseLine@@YAHPAPBGPAGHH@Z @1316
    ?ParseNext@@YAXPAPBG@Z @1317
    ?ParseObject@@YAHPBG0PAVUClass@@AAPAVUObject@@PAV2@@Z @1318
    ?ParseParam@@YAHPBG0@Z @1319
    ?ParseParms@UObject@@QAEXPBG@Z @1320
    ?ParseToken@@YA?AVFString@@AAPBGH@Z @1321
    ?ParseToken@@YAHAAPBGAAVFString@@H@Z @1322
    ?ParseToken@@YAHAAPBGPAGHH@Z @1323
    ?ParseUBOOL@@YAHPBG0AAH@Z @1324
    ?PivotInverse@FCoords@@QBE?AV1@XZ @1325
    ?PivotTransform@FVector@@QBE?AV1@ABVFCoords@@@Z @1326
    ?PlaneDot@FPlane@@QBEMABVFVector@@@Z @1327
    ?Pop@?$TArray@G@@QAEGXZ @1328
    ?Pop@FBitWriterMark@@QAEXAAUFBitWriter@@@Z @1329
    ?Pop@FMemMark@@QAEXXZ @1330
    ?Port@UProperty@@UBEHXZ @1331
    ?PostEditChange@UObject@@UAEXXZ @1332
    ?PostLoad@UClass@@UAEXXZ @1333
    ?PostLoad@UField@@UAEXXZ @1334
    ?PostLoad@UFunction@@UAEXXZ @1335
    ?PostLoad@UObject@@UAEXXZ @1336
    ?PostLoad@UStruct@@UAEXXZ @1337
    ?Precache@FArchive@@UAEXH@Z @1338
    ?Preload@FArchive@@UAEXPAVUObject@@@Z @1339
    ?Printf@FString@@SA?AV1@PBGZZ @1340
    ?PrivateStaticClass@UArrayProperty@@0VUClass@@A @1341
    ?PrivateStaticClass@UBoolProperty@@0VUClass@@A @1342
    ?PrivateStaticClass@UByteProperty@@0VUClass@@A @1343
    ?PrivateStaticClass@UClass@@0V1@A @1344
    ?PrivateStaticClass@UClassProperty@@0VUClass@@A @1345
    ?PrivateStaticClass@UCommandlet@@0VUClass@@A @1346
    ?PrivateStaticClass@UConst@@0VUClass@@A @1347
    ?PrivateStaticClass@UDelegateProperty@@0VUClass@@A @1348
    ?PrivateStaticClass@UEnum@@0VUClass@@A @1349
    ?PrivateStaticClass@UExporter@@0VUClass@@A @1350
    ?PrivateStaticClass@UFactory@@0VUClass@@A @1351
    ?PrivateStaticClass@UField@@0VUClass@@A @1352
    ?PrivateStaticClass@UFixedArrayProperty@@0VUClass@@A @1353
    ?PrivateStaticClass@UFloatProperty@@0VUClass@@A @1354
    ?PrivateStaticClass@UFunction@@0VUClass@@A @1355
    ?PrivateStaticClass@UIntProperty@@0VUClass@@A @1356
    ?PrivateStaticClass@ULanguage@@0VUClass@@A @1357
    ?PrivateStaticClass@ULinker@@0VUClass@@A @1358
    ?PrivateStaticClass@UMapProperty@@0VUClass@@A @1359
    ?PrivateStaticClass@UNameProperty@@0VUClass@@A @1360
    ?PrivateStaticClass@UObject@@0VUClass@@A @1361
    ?PrivateStaticClass@UObjectExporterT3D@@0VUClass@@A @1362
    ?PrivateStaticClass@UObjectProperty@@0VUClass@@A @1363
    ?PrivateStaticClass@UPackage@@0VUClass@@A @1364
    ?PrivateStaticClass@UPackageMap@@0VUClass@@A @1365
    ?PrivateStaticClass@UProperty@@0VUClass@@A @1366
    ?PrivateStaticClass@UState@@0VUClass@@A @1367
    ?PrivateStaticClass@UStrProperty@@0VUClass@@A @1368
    ?PrivateStaticClass@UStruct@@0VUClass@@A @1369
    ?PrivateStaticClass@UStructProperty@@0VUClass@@A @1370
    ?PrivateStaticClass@USubsystem@@0VUClass@@A @1371
    ?PrivateStaticClass@USystem@@0VUClass@@A @1372
    ?PrivateStaticClass@UTextBuffer@@0VUClass@@A @1373
    ?PrivateStaticClass@UTextBufferFactory@@0VUClass@@A @1374
    ?ProcessDelegate@UObject@@UAEXVFName@@PAUFScriptDelegate@@PAX2@Z @1375
    ?ProcessEvent@UObject@@UAEXPAVUFunction@@PAX1@Z @1376
    ?ProcessInternal@UObject@@QAEXAAUFFrame@@QAX@Z @1377
    ?ProcessRegistrants@UObject@@SAXXZ @1378
    ?ProcessRemoteFunction@UObject@@UAEHPAVUFunction@@PAXPAUFFrame@@@Z @1379
    ?ProcessState@UObject@@UAEXM@Z @1380
    ?Projection@FVector@@QBE?AV1@XZ @1381
    ?PurgeGarbage@UObject@@CAXXZ @1382
    ?PushBytes@FMemStack@@QAEPAEHH@Z @1383
    ?QueryInterface@FUnknown@@UAGKABVFGuid@@PAPAX@Z @1384
    ?QueryInterface@UObject@@UAGKABVFGuid@@PAPAX@Z @1385
    ?QueryStream@FFileStream@@QAEHHAAH@Z @1386
    ?Read@FFileStream@@QAEHHH@Z @1387
    ?ReadBit@FBitReader@@QAEEXZ @1388
    ?ReadFloat@FFrame@@QAEMXZ @1389
    ?ReadInt@FBitReader@@QAEKK@Z @1390
    ?ReadInt@FFrame@@QAEHXZ @1391
    ?ReadName@FFrame@@QAE?AVFName@@XZ @1392
    ?ReadObject@FFrame@@QAEPAVUObject@@XZ @1393
    ?ReadWord@FFrame@@QAEHXZ @1394
    ?Realloc@FArray@@IAEXH@Z @1395
    ?Reduce@FRotator@@QBE?AV1@XZ @1396
    ?RegGet@@YAHVFString@@0AAV1@@Z @1397
    ?RegSet@@YAHVFString@@00@Z @1398
    ?Register@UClass@@UAEXXZ @1399
    ?Register@UField@@UAEXXZ @1400
    ?Register@UObject@@UAEXXZ @1401
    ?Register@UStruct@@UAEXXZ @1402
    ?Release@FUnknown@@UAGKXZ @1403
    ?Release@UObject@@UAGKXZ @1404
    ?Remove@?$TArray@G@@QAEXHH@Z @1405
    ?Remove@FArray@@QAEXHHH@Z @1406
    ?RemoveFromRoot@UObject@@QAEXXZ @1407
    ?RemoveItem@?$TArray@G@@QAEHABG@Z @1408
    ?Rename@UObject@@QAEXPBGPAV1@@Z @1409
    ?RequestChunks@FFileStream@@QAEXHHPAX@Z @1410
    ?ResetConfig@UObject@@SAXPAVUClass@@PBGH@Z @1411
    ?ResetLoaders@UObject@@SAXPAV1@HH@Z @1412
    ?ResolveName@UObject@@CAHAAPAV1@AAPBGHH@Z @1413
    ?Reverse@FString@@QAE?AV1@XZ @1414
    ?Right@FString@@QBE?AV1@H@Z @1415
    ?RightPad@FString@@QAE?AV1@H@Z @1416
    ?RotateAngleAxis@FVector@@QBE?AV1@HABV1@@Z @1417
    ?Rotation@FVector@@QAE?AVFRotator@@XZ @1418
    ?SafeLoadError@UObject@@CAXKPBG0ZZ @1419
    ?SafeNormal@FVector@@QBE?AV1@XZ @1420
    ?SafeString@FName@@SAPBGW4EName@@@Z @1421
    ?SafeSuppressed@FName@@SAHW4EName@@@Z @1422
    ?SaveConfig@UObject@@QAEXKPBG@Z @1423
    ?SavePackage@UObject@@SAHPAV1@0KPBGPAVFOutputDevice@@PAVULinkerLoad@@@Z @1424
    ?ScriptConsoleExec@UObject@@UAEHPBGAAVFOutputDevice@@PAV1@@Z @1425
    ?Seek@FArchive@@UAEXH@Z @1426
    ?Seek@FBufferReader@@UAEXH@Z @1427
    ?Serialize@FArchive@@UAEXPAXH@Z @1428
    ?Serialize@FBitReader@@UAEXPAXH@Z @1429
    ?Serialize@FBitWriter@@UAEXPAXH@Z @1430
    ?Serialize@FBufferReader@@UAEXPAXH@Z @1431
    ?Serialize@FErrorOutError@@UAEXPBGW4EName@@@Z @1432
    ?Serialize@FFrame@@UAEXPBGW4EName@@@Z @1433
    ?Serialize@FLogOutError@@UAEXPBGW4EName@@@Z @1434
    ?Serialize@FNullOutError@@UAEXPBGW4EName@@@Z @1435
    ?Serialize@FObjectExport@@QAEAAVFArchive@@AAV2@@Z @1436
    ?Serialize@FObjectImport@@QAEAAVFArchive@@AAV2@@Z @1437
    ?Serialize@FThrowOut@@UAEXPBGW4EName@@@Z @1438
    ?Serialize@UArrayProperty@@UAEXAAVFArchive@@@Z @1439
    ?Serialize@UBoolProperty@@UAEXAAVFArchive@@@Z @1440
    ?Serialize@UByteProperty@@UAEXAAVFArchive@@@Z @1441
    ?Serialize@UClass@@UAEXAAVFArchive@@@Z @1442
    ?Serialize@UClassProperty@@UAEXAAVFArchive@@@Z @1443
    ?Serialize@UConst@@UAEXAAVFArchive@@@Z @1444
    ?Serialize@UDelegateProperty@@UAEXAAVFArchive@@@Z @1445
    ?Serialize@UEnum@@UAEXAAVFArchive@@@Z @1446
    ?Serialize@UExporter@@UAEXAAVFArchive@@@Z @1447
    ?Serialize@UFactory@@UAEXAAVFArchive@@@Z @1448
    ?Serialize@UField@@UAEXAAVFArchive@@@Z @1449
    ?Serialize@UFixedArrayProperty@@UAEXAAVFArchive@@@Z @1450
    ?Serialize@UFunction@@UAEXAAVFArchive@@@Z @1451
    ?Serialize@ULinker@@UAEXAAVFArchive@@@Z @1452
    ?Serialize@UMapProperty@@UAEXAAVFArchive@@@Z @1453
    ?Serialize@UObject@@UAEXAAVFArchive@@@Z @1454
    ?Serialize@UObjectProperty@@UAEXAAVFArchive@@@Z @1455
    ?Serialize@UPackage@@UAEXAAVFArchive@@@Z @1456
    ?Serialize@UPackageMap@@UAEXAAVFArchive@@@Z @1457
    ?Serialize@UProperty@@UAEXAAVFArchive@@@Z @1458
    ?Serialize@UState@@UAEXAAVFArchive@@@Z @1459
    ?Serialize@UStrProperty@@UAEXAAVFArchive@@@Z @1460
    ?Serialize@UStruct@@UAEXAAVFArchive@@@Z @1461
    ?Serialize@UStructProperty@@UAEXAAVFArchive@@@Z @1462
    ?Serialize@UTextBuffer@@UAEXAAVFArchive@@@Z @1463
    ?Serialize@UTextBuffer@@UAEXPBGW4EName@@@Z @1464
    ?SerializeBin@UStruct@@UAEXAAVFArchive@@PAEH@Z @1465
    ?SerializeBits@FArchive@@UAEXPAXH@Z @1466
    ?SerializeBits@FBitReader@@UAEXPAXH@Z @1467
    ?SerializeBits@FBitWriter@@UAEXPAXH@Z @1468
    ?SerializeExpr@UStruct@@UAE?AW4EExprToken@@AAHAAVFArchive@@@Z @1469
    ?SerializeInt@FArchive@@UAEXAAKK@Z @1470
    ?SerializeInt@FBitReader@@UAEXAAKK@Z @1471
    ?SerializeInt@FBitWriter@@UAEXAAKK@Z @1472
    ?SerializeItem@UArrayProperty@@UBEXAAVFArchive@@PAXH@Z @1473
    ?SerializeItem@UBoolProperty@@UBEXAAVFArchive@@PAXH@Z @1474
    ?SerializeItem@UByteProperty@@UBEXAAVFArchive@@PAXH@Z @1475
    ?SerializeItem@UDelegateProperty@@UBEXAAVFArchive@@PAXH@Z @1476
    ?SerializeItem@UFixedArrayProperty@@UBEXAAVFArchive@@PAXH@Z @1477
    ?SerializeItem@UFloatProperty@@UBEXAAVFArchive@@PAXH@Z @1478
    ?SerializeItem@UIntProperty@@UBEXAAVFArchive@@PAXH@Z @1479
    ?SerializeItem@UMapProperty@@UBEXAAVFArchive@@PAXH@Z @1480
    ?SerializeItem@UNameProperty@@UBEXAAVFArchive@@PAXH@Z @1481
    ?SerializeItem@UObjectProperty@@UBEXAAVFArchive@@PAXH@Z @1482
    ?SerializeItem@UStrProperty@@UBEXAAVFArchive@@PAXH@Z @1483
    ?SerializeItem@UStructProperty@@UBEXAAVFArchive@@PAXH@Z @1484
    ?SerializeName@UPackageMap@@UAEHAAVFArchive@@AAVFName@@@Z @1485
    ?SerializeObject@UPackageMap@@UAEHAAVFArchive@@PAVUClass@@AAPAVUObject@@@Z @1486
    ?SerializeRootSet@UObject@@SAXAAVFArchive@@KK@Z @1487
    ?SerializeTaggedProperties@UStruct@@UAEXAAVFArchive@@PAEPAVUClass@@@Z @1488
    ?SetClass@UObject@@QAEXPAVUClass@@@Z @1489
    ?SetData@FBitReader@@QAEXAAU1@H@Z @1490
    ?SetExtra@FCacheItem@FMemCache@@QAEXE@Z @1491
    ?SetFlags@FName@@QBEXK@Z @1492
    ?SetFlags@UObject@@QAEXK@Z @1493
    ?SetIdentity@FMatrix@@QAEXXZ @1494
    ?SetKey@UObject@@SAXPAVUClass@@PBG@Z @1495
    ?SetLanguage@UObject@@SAXPBG@Z @1496
    ?SetLinker@UObject@@AAEXPAVULinkerLoad@@H@Z @1497
    ?SetOverflowed@FBitReader@@QAEXXZ @1498
    ?SetOverflowed@FBitWriter@@QAEXXZ @1499
    ?SetPropertiesSize@UStruct@@QAEXH@Z @1500
    ?SetStopper@FArchive@@UAEXH@Z @1501
    ?ShouldSerializeValue@UProperty@@QBEHAAVFArchive@@@Z @1502
    ?Shrink@?$TArray@G@@QAEXXZ @1503
    ?Shrink@FArray@@QAEXH@Z @1504
    ?Shrink@FString@@QAEXXZ @1505
    ?ShutdownAfterError@UObject@@UAEXXZ @1506
    ?SinFloat@FGlobalMath@@QAEMM@Z @1507
    ?SinTab@FGlobalMath@@QAEMH@Z @1508
    ?Size2D@FVector@@QBEMXZ @1509
    ?Size@FRange@@QBEMXZ @1510
    ?Size@FVector@@QBEMXZ @1511
    ?SizeSquared2D@FVector@@QBEMXZ @1512
    ?SizeSquared@FVector@@QBEMXZ @1513
    ?SpecialGUIDArmPatches@FGuid@@2V1@A @1514
    ?Split@FString@@QBEHABV1@PAV1@1H@Z @1515
    ?Sqrt@FGlobalMath@@QAEMH@Z @1516
    ?StaticAllocateObject@UObject@@SAPAV1@PAVUClass@@PAV1@VFName@@K1PAVFOutputDevice@@1H@Z @1517
    ?StaticClass@UArrayProperty@@SAPAVUClass@@XZ @1518
    ?StaticClass@UBoolProperty@@SAPAVUClass@@XZ @1519
    ?StaticClass@UByteProperty@@SAPAVUClass@@XZ @1520
    ?StaticClass@UClass@@SAPAV1@XZ @1521
    ?StaticClass@UClassProperty@@SAPAVUClass@@XZ @1522
    ?StaticClass@UCommandlet@@SAPAVUClass@@XZ @1523
    ?StaticClass@UConst@@SAPAVUClass@@XZ @1524
    ?StaticClass@UDelegateProperty@@SAPAVUClass@@XZ @1525
    ?StaticClass@UEnum@@SAPAVUClass@@XZ @1526
    ?StaticClass@UExporter@@SAPAVUClass@@XZ @1527
    ?StaticClass@UFactory@@SAPAVUClass@@XZ @1528
    ?StaticClass@UField@@SAPAVUClass@@XZ @1529
    ?StaticClass@UFixedArrayProperty@@SAPAVUClass@@XZ @1530
    ?StaticClass@UFloatProperty@@SAPAVUClass@@XZ @1531
    ?StaticClass@UFunction@@SAPAVUClass@@XZ @1532
    ?StaticClass@UIntProperty@@SAPAVUClass@@XZ @1533
    ?StaticClass@ULanguage@@SAPAVUClass@@XZ @1534
    ?StaticClass@ULinker@@SAPAVUClass@@XZ @1535
    ?StaticClass@UMapProperty@@SAPAVUClass@@XZ @1536
    ?StaticClass@UNameProperty@@SAPAVUClass@@XZ @1537
    ?StaticClass@UObject@@SAPAVUClass@@XZ @1538
    ?StaticClass@UObjectExporterT3D@@SAPAVUClass@@XZ @1539
    ?StaticClass@UObjectProperty@@SAPAVUClass@@XZ @1540
    ?StaticClass@UPackage@@SAPAVUClass@@XZ @1541
    ?StaticClass@UPackageMap@@SAPAVUClass@@XZ @1542
    ?StaticClass@UProperty@@SAPAVUClass@@XZ @1543
    ?StaticClass@UState@@SAPAVUClass@@XZ @1544
    ?StaticClass@UStrProperty@@SAPAVUClass@@XZ @1545
    ?StaticClass@UStruct@@SAPAVUClass@@XZ @1546
    ?StaticClass@UStructProperty@@SAPAVUClass@@XZ @1547
    ?StaticClass@USubsystem@@SAPAVUClass@@XZ @1548
    ?StaticClass@USystem@@SAPAVUClass@@XZ @1549
    ?StaticClass@UTextBuffer@@SAPAVUClass@@XZ @1550
    ?StaticClass@UTextBufferFactory@@SAPAVUClass@@XZ @1551
    ?StaticConfigName@UObject@@SAPBGXZ @1552
    ?StaticConstructObject@UObject@@SAPAV1@PAVUClass@@PAV1@VFName@@K1PAVFOutputDevice@@H@Z @1553
    ?StaticConstructor@UExporter@@QAEXXZ @1554
    ?StaticConstructor@UFactory@@QAEXXZ @1555
    ?StaticConstructor@UObject@@QAEXXZ @1556
    ?StaticConstructor@UObjectExporterT3D@@QAEXXZ @1557
    ?StaticConstructor@USystem@@QAEXXZ @1558
    ?StaticConstructor@UTextBufferFactory@@QAEXXZ @1559
    ?StaticExec@UObject@@SAHPBGAAVFOutputDevice@@H@Z @1560
    ?StaticExit@FName@@SAXXZ @1561
    ?StaticExit@UObject@@SAXXZ @1562
    ?StaticFindObject@UObject@@SAPAV1@PAVUClass@@PAV1@PBGH@Z @1563
    ?StaticFindObjectChecked@UObject@@SAPAV1@PAVUClass@@PAV1@PBGH@Z @1564
    ?StaticImportObject@UFactory@@SAPAVUObject@@PAVULevel@@PAVUClass@@PAV2@VFName@@KPBG2PAV1@4PAVFFeedbackContext@@@Z @1565
    ?StaticInit@FName@@SAXXZ @1566
    ?StaticInit@UObject@@SAXXZ @1567
    ?StaticLoadClass@UObject@@SAPAVUClass@@PAV2@PAV1@PBG2KPAVUPackageMap@@@Z @1568
    ?StaticLoadObject@UObject@@SAPAV1@PAVUClass@@PAV1@PBG2KPAVUPackageMap@@@Z @1569
    ?StaticShutdownAfterError@UObject@@SAXXZ @1570
    ?StaticTick@UObject@@SAXXZ @1571
    ?Status@FMemCache@@QAEXPAG@Z @1572
    ?Step@FFrame@@QAEXPAVUObject@@QAX@Z @1573
    ?StreamIndex@FFileStream@@2HA @1574
    ?Streams@FFileStream@@2PAUFStream@@A @1575
    ?String@FGuid@@QBEPAGXZ @1576
    ?StructCompare@UStruct@@QAEHPBX0@Z @1577
    ?SupportsPackage@UPackageMap@@UAEHPAVUObject@@@Z @1578
    ?Tell@FArchive@@UAEHXZ @1579
    ?Tell@FBufferReader@@UAEHXZ @1580
    ?Tick@FMemCache@@QAEXXZ @1581
    ?Tick@FMemStack@@QAEXXZ @1582
    ?Tick@USubsystem@@UAEXM@Z @1583
    ?TotalSize@FArchive@@UAEHXZ @1584
    ?TotalSize@FBufferReader@@UAEHXZ @1585
    ?TransformBy@FBox@@QBE?AV1@ABVFCoords@@@Z @1586
    ?TransformBy@FBox@@QBE?AV1@ABVFMatrix@@@Z @1587
    ?TransformBy@FPlane@@QBE?AV1@ABVFCoords@@@Z @1588
    ?TransformBy@FPlane@@QBE?AV1@ABVFMatrix@@@Z @1589
    ?TransformBy@FSphere@@QBE?AV1@ABVFMatrix@@@Z @1590
    ?TransformByUsingAdjointT@FPlane@@QBE?AV1@ABVFMatrix@@0@Z @1591
    ?TransformFPlane@FMatrix@@QBE?AVFPlane@@ABV2@@Z @1592
    ?TransformFVector@FMatrix@@QBE?AVFVector@@ABV2@@Z @1593
    ?TransformNormal@FMatrix@@QBE?AVFPlane@@ABVFVector@@@Z @1594
    ?TransformPlaneByOrtho@FPlane@@QBE?AV1@ABVFCoords@@@Z @1595
    ?TransformPlaneByOrtho@FPlane@@QBE?AV1@ABVFMatrix@@@Z @1596
    ?TransformPointBy@FVector@@QBE?AV1@ABVFCoords@@@Z @1597
    ?TransformVectorBy@FVector@@QBE?AV1@ABVFCoords@@@Z @1598
    ?TransformVectorByTranspose@FVector@@QBE?AV1@ABVFCoords@@@Z @1599
    ?Transpose@FCoords@@QBE?AV1@XZ @1600
    ?Transpose@FMatrix@@QAE?AV1@XZ @1601
    ?TransposeAdjoint@FMatrix@@QBE?AV1@XZ @1602
    ?Unhash@FMemCache@@AAEX_K@Z @1603
    ?UnhashObject@UObject@@AAEXH@Z @1604
    ?Unlock@FCacheItem@FMemCache@@QAEXXZ @1605
    ?UnsafeNormal@FVector@@QBE?AV1@XZ @1606
    ?UnusedChunks@FMemStack@@0PAUFTaggedMemory@1@A @1607
    ?Vector@FRotator@@QAE?AVFVector@@XZ @1608
    ?Ver@FArchive@@QAEHXZ @1609
    ?VerifyLinker@UObject@@SAXPAVULinkerLoad@@@Z @1610
    ?WriteBit@FBitWriter@@QAEXE@Z @1611
    ?WriteInt@FBitWriter@@QAEXKK@Z @1612
    ?__FUNC_NAME__@?2???3UObject@@SAXPAXI@Z@4QBGB = __gfn_OpDelete @1613
    ?__FUNC_NAME__@?2??AddDependency@UClass@@QAEXPAV2@H@Z@4QBGB = __gfn_AddDependency @1614
    ?__FUNC_NAME__@?2??ParseIntoArray@FString@@QAEHPBGPAV?$TArray@VFString@@@@@Z@4QBGB = __gfn_ParseIntoArray @1615
    ?__FUNC_NAME__@?2??Reverse@FString@@QAE?AV2@XZ@4QBGB = __gfn_Reverse @1616
    ?__FUNC_NAME__@?2??Serialize@FObjectExport@@QAEAAVFArchive@@AAV3@@Z@4QBGB = __gfn_SerializeExp @1617
    ?__FUNC_NAME__@?2??Serialize@FObjectImport@@QAEAAVFArchive@@AAV3@@Z@4QBGB = __gfn_SerializeImp @1618
    ?appAcos@@YANN@Z @1619
    ?appAnsiStaticString1024@@YAPADXZ @1620
    ?appAsin@@YANN@Z @1621
    ?appAtan2@@YANNN@Z @1622
    ?appAtan@@YANN@Z @1623
    ?appAtof@@YAMPBG@Z @1624
    ?appAtoi@@YAHPBG@Z @1625
    ?appBaseDir@@YAPBGXZ @1626
    ?appCeil@@YAHM@Z @1627
    ?appCeilLogTwo@@YAEK@Z @1628
    ?appCharUpper@@YAPAGPAG@Z @1629
    ?appCleanFileCache@@YAXXZ @1630
    ?appClipboardCopy@@YAXPBG@Z @1631
    ?appClipboardPaste@@YA?AVFString@@XZ @1632
    ?appCmdLine@@YAPBGXZ @1633
    ?appComputerName@@YAPBGXZ @1634
    ?appCos@@YANN@Z @1635
    ?appCreateBitmap@@YAHPBGHHPAKPAVFFileManager@@@Z @1636
    ?appCreateGuid@@YA?AVFGuid@@XZ @1637
    ?appCreateProc@@YAPAXPBG0@Z @1638
    ?appCreateTempFilename@@YAXPBGPAG@Z @1639
    ?appDebugBreak@@YAXXZ @1640
    ?appDebugMessagef@@YAXPBGZZ @1641
    ?appEnableFastMath@@YAXH@Z @1642
    ?appExit@@YAXXZ @1643
    ?appExp@@YANN@Z @1644
    ?appFExt@@YAPBGPBG@Z @1645
    ?appFailAssert@@YAXPBD0H@Z @1646
    ?appFindPackageFile@@YAHPBGPBVFGuid@@PAG@Z @1647
    ?appFloor@@YAHM@Z @1648
    ?appFmod@@YANNN@Z @1649
    ?appFormat@@YA?AVFString@@V1@ABV?$TMultiMap@VFString@@V1@@@@Z @1650
    ?appFractional@@YAMM@Z @1651
    ?appFrand@@YAMXZ @1652
    ?appFreeDllHandle@@YAXPAX@Z @1653
    ?appFromAnsi@@YAPBGPBD@Z @1654
    ?appFromUnicode@@YAPBGPBG@Z @1655
    ?appGetDllExport@@YAPAXPAXPBG@Z @1656
    ?appGetDllHandle@@YAPAXPBG@Z @1657
    ?appGetGMTRef@@YA?AVFString@@XZ @1658
    ?appGetLastError@@YAXXZ @1659
    ?appGetProcReturnCode@@YAHPAXPAH@Z @1660
    ?appGetSystemErrorMessage@@YAPBGH@Z @1661
    ?appGetVarArgs@@YAHPAGHAAPBG@Z @1662
    ?appInit@@YAXPBG0PAVFMalloc@@PAVFOutputDevice@@PAVFOutputDeviceError@@PAVFFeedbackContext@@PAVFFileManager@@P6APAVFConfigCache@@XZH@Z @1663
    ?appIsDebuggerPresent@@YAHXZ @1664
    ?appIsNan@@YAHN@Z @1665
    ?appIsPBInstalled@@YAHXZ @1666
    ?appIsPureAnsi@@YAHPBG@Z @1667
    ?appItoa@@YAPAGH@Z @1668
    ?appLaunchURL@@YAXPBG0PAVFString@@@Z @1669
    ?appLoadFileToArray@@YAHAAV?$TArray@E@@PBGPAVFFileManager@@@Z @1670
    ?appLoadFileToString@@YAHAAVFString@@PBGPAVFFileManager@@@Z @1671
    ?appLoge@@YANN@Z @1672
    ?appMD5Decode@@YAXPAKPAEH@Z @1673
    ?appMD5Encode@@YAXPAEPAKH@Z @1674
    ?appMD5Final@@YAXPAEPAUFMD5Context@@@Z @1675
    ?appMD5Init@@YAXPAUFMD5Context@@@Z @1676
    ?appMD5Transform@@YAXPAKPAE@Z @1677
    ?appMD5Update@@YAXPAUFMD5Context@@PAEH@Z @1678
    ?appMemCrc@@YAKPBXHK@Z @1679
    ?appMemIsZero@@YAHPBXH@Z @1680
    ?appMemcmp@@YAHPBX0H@Z @1681
    ?appMemmove@@YAPAXPAXPBXH@Z @1682
    ?appMemset@@YAXPAXHH@Z @1683
    ?appMemswap@@YAXPAX0K@Z @1684
    ?appMsgf@@YA?BHHPBGZZ @1685
    ?appPackage@@YAPBGXZ @1686
    ?appPow@@YANNN@Z @1687
    ?appPreExit@@YAXXZ @1688
    ?appQsort@@YAXPAXHHP6AHPBX1@Z@Z @1689
    ?appRand@@YAHXZ @1690
    ?appRandInit@@YAXH@Z @1691
    ?appRequestExit@@YAXH@Z @1692
    ?appRound@@YAHM@Z @1693
    ?appSRand@@YAMXZ @1694
    ?appSRandInit@@YAXH@Z @1695
    ?appSaveArrayToFile@@YAHABV?$TArray@E@@PBGPAVFFileManager@@@Z @1696
    ?appSaveStringToFile@@YAHABVFString@@PBGPAVFFileManager@@@Z @1697
    ?appSecondsSlow@@YANXZ @1698
    ?appSin@@YANN@Z @1699
    ?appSleep@@YAXM@Z @1700
    ?appSpc@@YAPBGH@Z @1701
    ?appSprintf@@YAHPAGPBGZZ @1702
    ?appSqrt@@YANN@Z @1703
    ?appStaticString1024@@YAPAGXZ @1704
    ?appStrCrc@@YAKPBG@Z @1705
    ?appStrCrcCaps@@YAKPBG@Z @1706
    ?appStrcat@@YAPAGPAGPBG@Z @1707
    ?appStrchr@@YAPAGPBGH@Z @1708
    ?appStrcmp@@YAHPBG0@Z @1709
    ?appStrcpy@@YAPAGPAGPBG@Z @1710
    ?appStrfind@@YAPBGPBG0@Z @1711
    ?appStricmp@@YAHPBG0@Z @1712
    ?appStrlen@@YAHPBG@Z @1713
    ?appStrncat@@YAPAGPAGPBGH@Z @1714
    ?appStrncmp@@YAHPBG0H@Z @1715
    ?appStrncpy@@YAPAGPAGPBGH@Z @1716
    ?appStrnicmp@@YAHPBG0H@Z @1717
    ?appStrstr@@YAPAGPBG0@Z @1718
    ?appStrtoi@@YAHPBGPAPAGH@Z @1719
    ?appStrupr@@YAPAGPAG@Z @1720
    ?appSystemTime@@YAXAAH0000000@Z @1721
    ?appTan@@YANN@Z @1722
    ?appThrowf@@YAXPBGZZ @1723
    ?appTimestamp@@YAPBGXZ @1724
    ?appToAnsi@@YAPBDPBG@Z @1725
    ?appToUnicode@@YAPBGPBG@Z @1726
    ?appTrimSpaces@@YAXPAD@Z @1727
    ?appUnwindf@@YAXPBGZZ @1728
    ?appUpdateFileModTime@@YAHPAG@Z @1729
    ?appUserName@@YAPBGXZ @1730
    ?eventBeginState@UObject@@QAEXXZ @1731
    ?eventEndState@UObject@@QAEXXZ @1732
    ?eventMain@UCommandlet@@QAEHABVFString@@@Z @1733
    ?execAbs@UObject@@QAEXAAUFFrame@@QAX@Z @1734
    ?execAcos@UObject@@QAEXAAUFFrame@@QAX@Z @1735
    ?execAddAdd_Byte@UObject@@QAEXAAUFFrame@@QAX@Z @1736
    ?execAddAdd_Int@UObject@@QAEXAAUFFrame@@QAX@Z @1737
    ?execAddAdd_PreByte@UObject@@QAEXAAUFFrame@@QAX@Z @1738
    ?execAddAdd_PreInt@UObject@@QAEXAAUFFrame@@QAX@Z @1739
    ?execAddEqual_ByteByte@UObject@@QAEXAAUFFrame@@QAX@Z @1740
    ?execAddEqual_FloatFloat@UObject@@QAEXAAUFFrame@@QAX@Z @1741
    ?execAddEqual_IntInt@UObject@@QAEXAAUFFrame@@QAX@Z @1742
    ?execAddEqual_RotatorRotator@UObject@@QAEXAAUFFrame@@QAX@Z @1743
    ?execAddEqual_VectorVector@UObject@@QAEXAAUFFrame@@QAX@Z @1744
    ?execAdd_FloatFloat@UObject@@QAEXAAUFFrame@@QAX@Z @1745
    ?execAdd_IntInt@UObject@@QAEXAAUFFrame@@QAX@Z @1746
    ?execAdd_RotatorRotator@UObject@@QAEXAAUFFrame@@QAX@Z @1747
    ?execAdd_VectorVector@UObject@@QAEXAAUFFrame@@QAX@Z @1748
    ?execAndAnd_BoolBool@UObject@@QAEXAAUFFrame@@QAX@Z @1749
    ?execAnd_IntInt@UObject@@QAEXAAUFFrame@@QAX@Z @1750
    ?execArrayElement@UObject@@QAEXAAUFFrame@@QAX@Z @1751
    ?execAsc@UObject@@QAEXAAUFFrame@@QAX@Z @1752
    ?execAsin@UObject@@QAEXAAUFFrame@@QAX@Z @1753
    ?execAssert@UObject@@QAEXAAUFFrame@@QAX@Z @1754
    ?execAt_StringString@UObject@@QAEXAAUFFrame@@QAX@Z @1755
    ?execAtan@UObject@@QAEXAAUFFrame@@QAX@Z @1756
    ?execAtoi@UObject@@QAEXAAUFFrame@@QAX@Z @1757
    ?execBoolToByte@UObject@@QAEXAAUFFrame@@QAX@Z @1758
    ?execBoolToFloat@UObject@@QAEXAAUFFrame@@QAX@Z @1759
    ?execBoolToInt@UObject@@QAEXAAUFFrame@@QAX@Z @1760
    ?execBoolToString@UObject@@QAEXAAUFFrame@@QAX@Z @1761
    ?execBoolVariable@UObject@@QAEXAAUFFrame@@QAX@Z @1762
    ?execByteConst@UObject@@QAEXAAUFFrame@@QAX@Z @1763
    ?execByteToBool@UObject@@QAEXAAUFFrame@@QAX@Z @1764
    ?execByteToFloat@UObject@@QAEXAAUFFrame@@QAX@Z @1765
    ?execByteToInt@UObject@@QAEXAAUFFrame@@QAX@Z @1766
    ?execByteToString@UObject@@QAEXAAUFFrame@@QAX@Z @1767
    ?execCaps@UObject@@QAEXAAUFFrame@@QAX@Z @1768
    ?execCase@UObject@@QAEXAAUFFrame@@QAX@Z @1769
    ?execChr@UObject@@QAEXAAUFFrame@@QAX@Z @1770
    ?execClamp@UObject@@QAEXAAUFFrame@@QAX@Z @1771
    ?execClassContext@UObject@@QAEXAAUFFrame@@QAX@Z @1772
    ?execClassIsChildOf@UObject@@QAEXAAUFFrame@@QAX@Z @1773
    ?execClearOuter@UObject@@QAEXAAUFFrame@@QAX@Z @1774
    ?execClock@UObject@@QAEXAAUFFrame@@QAX@Z @1775
    ?execClockwiseFrom_IntInt@UObject@@QAEXAAUFFrame@@QAX@Z @1776
    ?execComplementEqual_FloatFloat@UObject@@QAEXAAUFFrame@@QAX@Z @1777
    ?execComplementEqual_StringString@UObject@@QAEXAAUFFrame@@QAX@Z @1778
    ?execComplement_PreInt@UObject@@QAEXAAUFFrame@@QAX@Z @1779
    ?execConcat_StringString@UObject@@QAEXAAUFFrame@@QAX@Z @1780
    ?execContext@UObject@@QAEXAAUFFrame@@QAX@Z @1781
    ?execCos@UObject@@QAEXAAUFFrame@@QAX@Z @1782
    ?execCross_VectorVector@UObject@@QAEXAAUFFrame@@QAX@Z @1783
    ?execDebugInfo@UObject@@QAEXAAUFFrame@@QAX@Z @1784
    ?execDefaultVariable@UObject@@QAEXAAUFFrame@@QAX@Z @1785
    ?execDelegateFunction@UObject@@QAEXAAUFFrame@@QAX@Z @1786
    ?execDelegateProperty@UObject@@QAEXAAUFFrame@@QAX@Z @1787
    ?execDisable@UObject@@QAEXAAUFFrame@@QAX@Z @1788
    ?execDivideEqual_ByteByte@UObject@@QAEXAAUFFrame@@QAX@Z @1789
    ?execDivideEqual_FloatFloat@UObject@@QAEXAAUFFrame@@QAX@Z @1790
    ?execDivideEqual_IntFloat@UObject@@QAEXAAUFFrame@@QAX@Z @1791
    ?execDivideEqual_RotatorFloat@UObject@@QAEXAAUFFrame@@QAX@Z @1792
    ?execDivideEqual_VectorFloat@UObject@@QAEXAAUFFrame@@QAX@Z @1793
    ?execDivide_FloatFloat@UObject@@QAEXAAUFFrame@@QAX@Z @1794
    ?execDivide_IntInt@UObject@@QAEXAAUFFrame@@QAX@Z @1795
    ?execDivide_RotatorFloat@UObject@@QAEXAAUFFrame@@QAX@Z @1796
    ?execDivide_VectorFloat@UObject@@QAEXAAUFFrame@@QAX@Z @1797
    ?execDot_VectorVector@UObject@@QAEXAAUFFrame@@QAX@Z @1798
    ?execDynArrayElement@UObject@@QAEXAAUFFrame@@QAX@Z @1799
    ?execDynArrayInsert@UObject@@QAEXAAUFFrame@@QAX@Z @1800
    ?execDynArrayLength@UObject@@QAEXAAUFFrame@@QAX@Z @1801
    ?execDynArrayRemove@UObject@@QAEXAAUFFrame@@QAX@Z @1802
    ?execDynamicCast@UObject@@QAEXAAUFFrame@@QAX@Z @1803
    ?execDynamicLoadObject@UObject@@QAEXAAUFFrame@@QAX@Z @1804
    ?execEatString@UObject@@QAEXAAUFFrame@@QAX@Z @1805
    ?execEnable@UObject@@QAEXAAUFFrame@@QAX@Z @1806
    ?execEndFunctionParms@UObject@@QAEXAAUFFrame@@QAX@Z @1807
    ?execEqualEqual_BoolBool@UObject@@QAEXAAUFFrame@@QAX@Z @1808
    ?execEqualEqual_FloatFloat@UObject@@QAEXAAUFFrame@@QAX@Z @1809
    ?execEqualEqual_IntInt@UObject@@QAEXAAUFFrame@@QAX@Z @1810
    ?execEqualEqual_NameName@UObject@@QAEXAAUFFrame@@QAX@Z @1811
    ?execEqualEqual_ObjectObject@UObject@@QAEXAAUFFrame@@QAX@Z @1812
    ?execEqualEqual_RotatorRotator@UObject@@QAEXAAUFFrame@@QAX@Z @1813
    ?execEqualEqual_StringString@UObject@@QAEXAAUFFrame@@QAX@Z @1814
    ?execEqualEqual_VectorVector@UObject@@QAEXAAUFFrame@@QAX@Z @1815
    ?execExp@UObject@@QAEXAAUFFrame@@QAX@Z @1816
    ?execFClamp@UObject@@QAEXAAUFFrame@@QAX@Z @1817
    ?execFMax@UObject@@QAEXAAUFFrame@@QAX@Z @1818
    ?execFMin@UObject@@QAEXAAUFFrame@@QAX@Z @1819
    ?execFRand@UObject@@QAEXAAUFFrame@@QAX@Z @1820
    ?execFalse@UObject@@QAEXAAUFFrame@@QAX@Z @1821
    ?execFinalFunction@UObject@@QAEXAAUFFrame@@QAX@Z @1822
    ?execFindObject@UObject@@QAEXAAUFFrame@@QAX@Z @1823
    ?execFloatConst@UObject@@QAEXAAUFFrame@@QAX@Z @1824
    ?execFloatToBool@UObject@@QAEXAAUFFrame@@QAX@Z @1825
    ?execFloatToByte@UObject@@QAEXAAUFFrame@@QAX@Z @1826
    ?execFloatToInt@UObject@@QAEXAAUFFrame@@QAX@Z @1827
    ?execFloatToString@UObject@@QAEXAAUFFrame@@QAX@Z @1828
    ?execFreePackageObjects@UObject@@QAEXAAUFFrame@@QAX@Z @1829
    ?execGetAxes@UObject@@QAEXAAUFFrame@@QAX@Z @1830
    ?execGetEnum@UObject@@QAEXAAUFFrame@@QAX@Z @1831
    ?execGetFirstPackageClass@UObject@@QAEXAAUFFrame@@QAX@Z @1832
    ?execGetNextClass@UObject@@QAEXAAUFFrame@@QAX@Z @1833
    ?execGetPropertyText@UObject@@QAEXAAUFFrame@@QAX@Z @1834
    ?execGetRegistryKey@UObject@@QAEXAAUFFrame@@QAX@Z @1835
    ?execGetStateName@UObject@@QAEXAAUFFrame@@QAX@Z @1836
    ?execGetUnAxes@UObject@@QAEXAAUFFrame@@QAX@Z @1837
    ?execGlobalFunction@UObject@@QAEXAAUFFrame@@QAX@Z @1838
    ?execGotoLabel@UObject@@QAEXAAUFFrame@@QAX@Z @1839
    ?execGotoState@UObject@@QAEXAAUFFrame@@QAX@Z @1840
    ?execGreaterEqual_FloatFloat@UObject@@QAEXAAUFFrame@@QAX@Z @1841
    ?execGreaterEqual_IntInt@UObject@@QAEXAAUFFrame@@QAX@Z @1842
    ?execGreaterEqual_StringString@UObject@@QAEXAAUFFrame@@QAX@Z @1843
    ?execGreaterGreaterGreater_IntInt@UObject@@QAEXAAUFFrame@@QAX@Z @1844
    ?execGreaterGreater_IntInt@UObject@@QAEXAAUFFrame@@QAX@Z @1845
    ?execGreaterGreater_VectorRotator@UObject@@QAEXAAUFFrame@@QAX@Z @1846
    ?execGreater_FloatFloat@UObject@@QAEXAAUFFrame@@QAX@Z @1847
    ?execGreater_IntInt@UObject@@QAEXAAUFFrame@@QAX@Z @1848
    ?execGreater_StringString@UObject@@QAEXAAUFFrame@@QAX@Z @1849
    ?execHighNative0@UObject@@QAEXAAUFFrame@@QAX@Z @1850
    ?execHighNative10@UObject@@QAEXAAUFFrame@@QAX@Z @1851
    ?execHighNative11@UObject@@QAEXAAUFFrame@@QAX@Z @1852
    ?execHighNative12@UObject@@QAEXAAUFFrame@@QAX@Z @1853
    ?execHighNative13@UObject@@QAEXAAUFFrame@@QAX@Z @1854
    ?execHighNative14@UObject@@QAEXAAUFFrame@@QAX@Z @1855
    ?execHighNative15@UObject@@QAEXAAUFFrame@@QAX@Z @1856
    ?execHighNative1@UObject@@QAEXAAUFFrame@@QAX@Z @1857
    ?execHighNative2@UObject@@QAEXAAUFFrame@@QAX@Z @1858
    ?execHighNative3@UObject@@QAEXAAUFFrame@@QAX@Z @1859
    ?execHighNative4@UObject@@QAEXAAUFFrame@@QAX@Z @1860
    ?execHighNative5@UObject@@QAEXAAUFFrame@@QAX@Z @1861
    ?execHighNative6@UObject@@QAEXAAUFFrame@@QAX@Z @1862
    ?execHighNative7@UObject@@QAEXAAUFFrame@@QAX@Z @1863
    ?execHighNative8@UObject@@QAEXAAUFFrame@@QAX@Z @1864
    ?execHighNative9@UObject@@QAEXAAUFFrame@@QAX@Z @1865
    ?execInStr@UObject@@QAEXAAUFFrame@@QAX@Z @1866
    ?execInstanceVariable@UObject@@QAEXAAUFFrame@@QAX@Z @1867
    ?execIntConst@UObject@@QAEXAAUFFrame@@QAX@Z @1868
    ?execIntConstByte@UObject@@QAEXAAUFFrame@@QAX@Z @1869
    ?execIntOne@UObject@@QAEXAAUFFrame@@QAX@Z @1870
    ?execIntToBool@UObject@@QAEXAAUFFrame@@QAX@Z @1871
    ?execIntToByte@UObject@@QAEXAAUFFrame@@QAX@Z @1872
    ?execIntToFloat@UObject@@QAEXAAUFFrame@@QAX@Z @1873
    ?execIntToString@UObject@@QAEXAAUFFrame@@QAX@Z @1874
    ?execIntZero@UObject@@QAEXAAUFFrame@@QAX@Z @1875
    ?execInterpCurveEval@UObject@@QAEXAAUFFrame@@QAX@Z @1876
    ?execInvert@UObject@@QAEXAAUFFrame@@QAX@Z @1877
    ?execIsA@UObject@@QAEXAAUFFrame@@QAX@Z @1878
    ?execIsInState@UObject@@QAEXAAUFFrame@@QAX@Z @1879
    ?execIterator@UObject@@QAEXAAUFFrame@@QAX@Z @1880
    ?execItoa@UObject@@QAEXAAUFFrame@@QAX@Z @1881
    ?execJump@UObject@@QAEXAAUFFrame@@QAX@Z @1882
    ?execJumpIfNot@UObject@@QAEXAAUFFrame@@QAX@Z @1883
    ?execLeft@UObject@@QAEXAAUFFrame@@QAX@Z @1884
    ?execLen@UObject@@QAEXAAUFFrame@@QAX@Z @1885
    ?execLerp@UObject@@QAEXAAUFFrame@@QAX@Z @1886
    ?execLessEqual_FloatFloat@UObject@@QAEXAAUFFrame@@QAX@Z @1887
    ?execLessEqual_IntInt@UObject@@QAEXAAUFFrame@@QAX@Z @1888
    ?execLessEqual_StringString@UObject@@QAEXAAUFFrame@@QAX@Z @1889
    ?execLessLess_IntInt@UObject@@QAEXAAUFFrame@@QAX@Z @1890
    ?execLessLess_VectorRotator@UObject@@QAEXAAUFFrame@@QAX@Z @1891
    ?execLess_FloatFloat@UObject@@QAEXAAUFFrame@@QAX@Z @1892
    ?execLess_IntInt@UObject@@QAEXAAUFFrame@@QAX@Z @1893
    ?execLess_StringString@UObject@@QAEXAAUFFrame@@QAX@Z @1894
    ?execLet@UObject@@QAEXAAUFFrame@@QAX@Z @1895
    ?execLetBool@UObject@@QAEXAAUFFrame@@QAX@Z @1896
    ?execLetDelegate@UObject@@QAEXAAUFFrame@@QAX@Z @1897
    ?execLoadConfig@UObject@@QAEXAAUFFrame@@QAX@Z @1898
    ?execLocalVariable@UObject@@QAEXAAUFFrame@@QAX@Z @1899
    ?execLocalize@UObject@@QAEXAAUFFrame@@QAX@Z @1900
    ?execLog@UObject@@QAEXAAUFFrame@@QAX@Z @1901
    ?execLogSnd@UObject@@QAEXAAUFFrame@@QAX@Z @1902
    ?execLoge@UObject@@QAEXAAUFFrame@@QAX@Z @1903
    ?execMain@UCommandlet@@QAEXAAUFFrame@@QAX@Z @1904
    ?execMax@UObject@@QAEXAAUFFrame@@QAX@Z @1905
    ?execMetaCast@UObject@@QAEXAAUFFrame@@QAX@Z @1906
    ?execMid@UObject@@QAEXAAUFFrame@@QAX@Z @1907
    ?execMin@UObject@@QAEXAAUFFrame@@QAX@Z @1908
    ?execMirrorVectorByNormal@UObject@@QAEXAAUFFrame@@QAX@Z @1909
    ?execMultiplyEqual_ByteByte@UObject@@QAEXAAUFFrame@@QAX@Z @1910
    ?execMultiplyEqual_FloatFloat@UObject@@QAEXAAUFFrame@@QAX@Z @1911
    ?execMultiplyEqual_IntFloat@UObject@@QAEXAAUFFrame@@QAX@Z @1912
    ?execMultiplyEqual_RotatorFloat@UObject@@QAEXAAUFFrame@@QAX@Z @1913
    ?execMultiplyEqual_VectorFloat@UObject@@QAEXAAUFFrame@@QAX@Z @1914
    ?execMultiplyEqual_VectorVector@UObject@@QAEXAAUFFrame@@QAX@Z @1915
    ?execMultiplyMultiply_FloatFloat@UObject@@QAEXAAUFFrame@@QAX@Z @1916
    ?execMultiply_FloatFloat@UObject@@QAEXAAUFFrame@@QAX@Z @1917
    ?execMultiply_FloatRotator@UObject@@QAEXAAUFFrame@@QAX@Z @1918
    ?execMultiply_FloatVector@UObject@@QAEXAAUFFrame@@QAX@Z @1919
    ?execMultiply_IntInt@UObject@@QAEXAAUFFrame@@QAX@Z @1920
    ?execMultiply_RotatorFloat@UObject@@QAEXAAUFFrame@@QAX@Z @1921
    ?execMultiply_VectorFloat@UObject@@QAEXAAUFFrame@@QAX@Z @1922
    ?execMultiply_VectorVector@UObject@@QAEXAAUFFrame@@QAX@Z @1923
    ?execNameConst@UObject@@QAEXAAUFFrame@@QAX@Z @1924
    ?execNameToBool@UObject@@QAEXAAUFFrame@@QAX@Z @1925
    ?execNameToString@UObject@@QAEXAAUFFrame@@QAX@Z @1926
    ?execNativeParm@UObject@@QAEXAAUFFrame@@QAX@Z @1927
    ?execNew@UObject@@QAEXAAUFFrame@@QAX@Z @1928
    ?execNoObject@UObject@@QAEXAAUFFrame@@QAX@Z @1929
    ?execNormal@UObject@@QAEXAAUFFrame@@QAX@Z @1930
    ?execNormalize@UObject@@QAEXAAUFFrame@@QAX@Z @1931
    ?execNotEqual_BoolBool@UObject@@QAEXAAUFFrame@@QAX@Z @1932
    ?execNotEqual_FloatFloat@UObject@@QAEXAAUFFrame@@QAX@Z @1933
    ?execNotEqual_IntInt@UObject@@QAEXAAUFFrame@@QAX@Z @1934
    ?execNotEqual_NameName@UObject@@QAEXAAUFFrame@@QAX@Z @1935
    ?execNotEqual_ObjectObject@UObject@@QAEXAAUFFrame@@QAX@Z @1936
    ?execNotEqual_RotatorRotator@UObject@@QAEXAAUFFrame@@QAX@Z @1937
    ?execNotEqual_StringString@UObject@@QAEXAAUFFrame@@QAX@Z @1938
    ?execNotEqual_VectorVector@UObject@@QAEXAAUFFrame@@QAX@Z @1939
    ?execNot_PreBool@UObject@@QAEXAAUFFrame@@QAX@Z @1940
    ?execNothing@UObject@@QAEXAAUFFrame@@QAX@Z @1941
    ?execObjectConst@UObject@@QAEXAAUFFrame@@QAX@Z @1942
    ?execObjectToBool@UObject@@QAEXAAUFFrame@@QAX@Z @1943
    ?execObjectToString@UObject@@QAEXAAUFFrame@@QAX@Z @1944
    ?execOrOr_BoolBool@UObject@@QAEXAAUFFrame@@QAX@Z @1945
    ?execOr_IntInt@UObject@@QAEXAAUFFrame@@QAX@Z @1946
    ?execOrthoRotation@UObject@@QAEXAAUFFrame@@QAX@Z @1947
    ?execPercent_FloatFloat@UObject@@QAEXAAUFFrame@@QAX@Z @1948
    ?execPrimitiveCast@UObject@@QAEXAAUFFrame@@QAX@Z @1949
    ?execRand@UObject@@QAEXAAUFFrame@@QAX@Z @1950
    ?execRemoveInvalidChars@UObject@@QAEXAAUFFrame@@QAX@Z @1951
    ?execResetConfig@UObject@@QAEXAAUFFrame@@QAX@Z @1952
    ?execRewindToFirstClass@UObject@@QAEXAAUFFrame@@QAX@Z @1953
    ?execRight@UObject@@QAEXAAUFFrame@@QAX@Z @1954
    ?execRotRand@UObject@@QAEXAAUFFrame@@QAX@Z @1955
    ?execRotationConst@UObject@@QAEXAAUFFrame@@QAX@Z @1956
    ?execRotatorToBool@UObject@@QAEXAAUFFrame@@QAX@Z @1957
    ?execRotatorToString@UObject@@QAEXAAUFFrame@@QAX@Z @1958
    ?execRotatorToVector@UObject@@QAEXAAUFFrame@@QAX@Z @1959
    ?execSaveConfig@UObject@@QAEXAAUFFrame@@QAX@Z @1960
    ?execSelf@UObject@@QAEXAAUFFrame@@QAX@Z @1961
    ?execSetPropertyText@UObject@@QAEXAAUFFrame@@QAX@Z @1962
    ?execSetRegistryKey@UObject@@QAEXAAUFFrame@@QAX@Z @1963
    ?execShortestAngle2D@UObject@@QAEXAAUFFrame@@QAX@Z @1964
    ?execSin@UObject@@QAEXAAUFFrame@@QAX@Z @1965
    ?execSmerp@UObject@@QAEXAAUFFrame@@QAX@Z @1966
    ?execSqrt@UObject@@QAEXAAUFFrame@@QAX@Z @1967
    ?execSquare@UObject@@QAEXAAUFFrame@@QAX@Z @1968
    ?execStaticSaveConfig@UObject@@QAEXAAUFFrame@@QAX@Z @1969
    ?execStop@UObject@@QAEXAAUFFrame@@QAX@Z @1970
    ?execStringConst@UObject@@QAEXAAUFFrame@@QAX@Z @1971
    ?execStringToBool@UObject@@QAEXAAUFFrame@@QAX@Z @1972
    ?execStringToByte@UObject@@QAEXAAUFFrame@@QAX@Z @1973
    ?execStringToFloat@UObject@@QAEXAAUFFrame@@QAX@Z @1974
    ?execStringToInt@UObject@@QAEXAAUFFrame@@QAX@Z @1975
    ?execStringToRotator@UObject@@QAEXAAUFFrame@@QAX@Z @1976
    ?execStringToVector@UObject@@QAEXAAUFFrame@@QAX@Z @1977
    ?execStrnicmp@UObject@@QAEXAAUFFrame@@QAX@Z @1978
    ?execStructCmpEq@UObject@@QAEXAAUFFrame@@QAX@Z @1979
    ?execStructCmpNe@UObject@@QAEXAAUFFrame@@QAX@Z @1980
    ?execStructMember@UObject@@QAEXAAUFFrame@@QAX@Z @1981
    ?execSubtractEqual_ByteByte@UObject@@QAEXAAUFFrame@@QAX@Z @1982
    ?execSubtractEqual_FloatFloat@UObject@@QAEXAAUFFrame@@QAX@Z @1983
    ?execSubtractEqual_IntInt@UObject@@QAEXAAUFFrame@@QAX@Z @1984
    ?execSubtractEqual_RotatorRotator@UObject@@QAEXAAUFFrame@@QAX@Z @1985
    ?execSubtractEqual_VectorVector@UObject@@QAEXAAUFFrame@@QAX@Z @1986
    ?execSubtractSubtract_Byte@UObject@@QAEXAAUFFrame@@QAX@Z @1987
    ?execSubtractSubtract_Int@UObject@@QAEXAAUFFrame@@QAX@Z @1988
    ?execSubtractSubtract_PreByte@UObject@@QAEXAAUFFrame@@QAX@Z @1989
    ?execSubtractSubtract_PreInt@UObject@@QAEXAAUFFrame@@QAX@Z @1990
    ?execSubtract_FloatFloat@UObject@@QAEXAAUFFrame@@QAX@Z @1991
    ?execSubtract_IntInt@UObject@@QAEXAAUFFrame@@QAX@Z @1992
    ?execSubtract_PreFloat@UObject@@QAEXAAUFFrame@@QAX@Z @1993
    ?execSubtract_PreInt@UObject@@QAEXAAUFFrame@@QAX@Z @1994
    ?execSubtract_PreVector@UObject@@QAEXAAUFFrame@@QAX@Z @1995
    ?execSubtract_RotatorRotator@UObject@@QAEXAAUFFrame@@QAX@Z @1996
    ?execSubtract_VectorVector@UObject@@QAEXAAUFFrame@@QAX@Z @1997
    ?execSwitch@UObject@@QAEXAAUFFrame@@QAX@Z @1998
    ?execTan@UObject@@QAEXAAUFFrame@@QAX@Z @1999
    ?execTrue@UObject@@QAEXAAUFFrame@@QAX@Z @2000
    ?execUnclock@UObject@@QAEXAAUFFrame@@QAX@Z @2001
    ?execUndefined@UObject@@QAEXAAUFFrame@@QAX@Z @2002
    ?execUnicodeStringConst@UObject@@QAEXAAUFFrame@@QAX@Z @2003
    ?execVRand@UObject@@QAEXAAUFFrame@@QAX@Z @2004
    ?execVSize@UObject@@QAEXAAUFFrame@@QAX@Z @2005
    ?execVectorConst@UObject@@QAEXAAUFFrame@@QAX@Z @2006
    ?execVectorToBool@UObject@@QAEXAAUFFrame@@QAX@Z @2007
    ?execVectorToRotator@UObject@@QAEXAAUFFrame@@QAX@Z @2008
    ?execVectorToString@UObject@@QAEXAAUFFrame@@QAX@Z @2009
    ?execVirtualFunction@UObject@@QAEXAAUFFrame@@QAX@Z @2010
    ?execWarn@UObject@@QAEXAAUFFrame@@QAX@Z @2011
    ?execXorXor_BoolBool@UObject@@QAEXAAUFFrame@@QAX@Z @2012
    ?execXor_IntInt@UObject@@QAEXAAUFFrame@@QAX@Z @2013
    ?winAnsiToTCHAR@@YAPAGPAD@Z @2014
    ?winGetSizeANSI@@YAHPBG@Z @2015
    ?winGetSizeUNICODE@@YAHPBD@Z @2016
    ?winToANSI@@YAPADPADPBGH@Z @2017
    ?winToUNICODE@@YAPAGPAGPBDH@Z @2018
    GIsMMX @2020
    GIsPentiumPro @2021
    GIsSSE @2022
    GPackage @2023
    _DllMain@12 @2019
    autoclassUArrayProperty @2024
    autoclassUBoolProperty @2025
    autoclassUByteProperty @2026
    autoclassUClass @2027
    autoclassUClassProperty @2028
    autoclassUCommandlet @2029
    autoclassUConst @2030
    autoclassUDelegateProperty @2031
    autoclassUEnum @2032
    autoclassUExporter @2033
    autoclassUFactory @2034
    autoclassUField @2035
    autoclassUFixedArrayProperty @2036
    autoclassUFloatProperty @2037
    autoclassUFunction @2038
    autoclassUIntProperty @2039
    autoclassULanguage @2040
    autoclassULinker @2041
    autoclassULinkerLoad @2042
    autoclassULinkerSave @2043
    autoclassUMapProperty @2044
    autoclassUNameProperty @2045
    autoclassUObject @2046
    autoclassUObjectExporterT3D @2047
    autoclassUObjectProperty @2048
    autoclassUPackage @2049
    autoclassUPackageMap @2050
    autoclassUProperty @2051
    autoclassUState @2052
    autoclassUStrProperty @2053
    autoclassUStruct @2054
    autoclassUStructProperty @2055
    autoclassUSubsystem @2056
    autoclassUSystem @2057
    autoclassUTextBuffer @2058
    autoclassUTextBufferFactory @2059
    intUCommandletexecMain @2060
    intUObjectexecAbs @2061
    intUObjectexecAcos @2062
    intUObjectexecAddAdd_Byte @2063
    intUObjectexecAddAdd_Int @2064
    intUObjectexecAddAdd_PreByte @2065
    intUObjectexecAddAdd_PreInt @2066
    intUObjectexecAddEqual_ByteByte @2067
    intUObjectexecAddEqual_FloatFloat @2068
    intUObjectexecAddEqual_IntInt @2069
    intUObjectexecAddEqual_RotatorRotator @2070
    intUObjectexecAddEqual_VectorVector @2071
    intUObjectexecAdd_FloatFloat @2072
    intUObjectexecAdd_IntInt @2073
    intUObjectexecAdd_RotatorRotator @2074
    intUObjectexecAdd_VectorVector @2075
    intUObjectexecAndAnd_BoolBool @2076
    intUObjectexecAnd_IntInt @2077
    intUObjectexecArrayElement @2078
    intUObjectexecAsc @2079
    intUObjectexecAsin @2080
    intUObjectexecAssert @2081
    intUObjectexecAt_StringString @2082
    intUObjectexecAtan @2083
    intUObjectexecAtoi @2084
    intUObjectexecBoolToByte @2085
    intUObjectexecBoolToFloat @2086
    intUObjectexecBoolToInt @2087
    intUObjectexecBoolToString @2088
    intUObjectexecBoolVariable @2089
    intUObjectexecByteConst @2090
    intUObjectexecByteToBool @2091
    intUObjectexecByteToFloat @2092
    intUObjectexecByteToInt @2093
    intUObjectexecByteToString @2094
    intUObjectexecCaps @2095
    intUObjectexecCase @2096
    intUObjectexecChr @2097
    intUObjectexecClamp @2098
    intUObjectexecClassContext @2099
    intUObjectexecClassIsChildOf @2100
    intUObjectexecClearOuter @2101
    intUObjectexecClock @2102
    intUObjectexecClockwiseFrom_IntInt @2103
    intUObjectexecComplementEqual_FloatFloat @2104
    intUObjectexecComplementEqual_StringString @2105
    intUObjectexecComplement_PreInt @2106
    intUObjectexecConcat_StringString @2107
    intUObjectexecContext @2108
    intUObjectexecCos @2109
    intUObjectexecCross_VectorVector @2110
    intUObjectexecDebugInfo @2111
    intUObjectexecDefaultVariable @2112
    intUObjectexecDelegateFunction @2113
    intUObjectexecDelegateProperty @2114
    intUObjectexecDisable @2115
    intUObjectexecDivideEqual_ByteByte @2116
    intUObjectexecDivideEqual_FloatFloat @2117
    intUObjectexecDivideEqual_IntFloat @2118
    intUObjectexecDivideEqual_RotatorFloat @2119
    intUObjectexecDivideEqual_VectorFloat @2120
    intUObjectexecDivide_FloatFloat @2121
    intUObjectexecDivide_IntInt @2122
    intUObjectexecDivide_RotatorFloat @2123
    intUObjectexecDivide_VectorFloat @2124
    intUObjectexecDot_VectorVector @2125
    intUObjectexecDynArrayElement @2126
    intUObjectexecDynArrayInsert @2127
    intUObjectexecDynArrayLength @2128
    intUObjectexecDynArrayRemove @2129
    intUObjectexecDynamicCast @2130
    intUObjectexecDynamicLoadObject @2131
    intUObjectexecEatString @2132
    intUObjectexecEnable @2133
    intUObjectexecEndFunctionParms @2134
    intUObjectexecEqualEqual_BoolBool @2135
    intUObjectexecEqualEqual_FloatFloat @2136
    intUObjectexecEqualEqual_IntInt @2137
    intUObjectexecEqualEqual_NameName @2138
    intUObjectexecEqualEqual_ObjectObject @2139
    intUObjectexecEqualEqual_RotatorRotator @2140
    intUObjectexecEqualEqual_StringString @2141
    intUObjectexecEqualEqual_VectorVector @2142
    intUObjectexecExp @2143
    intUObjectexecFClamp @2144
    intUObjectexecFMax @2145
    intUObjectexecFMin @2146
    intUObjectexecFRand @2147
    intUObjectexecFalse @2148
    intUObjectexecFinalFunction @2149
    intUObjectexecFindObject @2150
    intUObjectexecFloatConst @2151
    intUObjectexecFloatToBool @2152
    intUObjectexecFloatToByte @2153
    intUObjectexecFloatToInt @2154
    intUObjectexecFloatToString @2155
    intUObjectexecFreePackageObjects @2156
    intUObjectexecGetAxes @2157
    intUObjectexecGetEnum @2158
    intUObjectexecGetFirstPackageClass @2159
    intUObjectexecGetNextClass @2160
    intUObjectexecGetPropertyText @2161
    intUObjectexecGetRegistryKey @2162
    intUObjectexecGetStateName @2163
    intUObjectexecGetUnAxes @2164
    intUObjectexecGlobalFunction @2165
    intUObjectexecGotoLabel @2166
    intUObjectexecGotoState @2167
    intUObjectexecGreaterEqual_FloatFloat @2168
    intUObjectexecGreaterEqual_IntInt @2169
    intUObjectexecGreaterEqual_StringString @2170
    intUObjectexecGreaterGreaterGreater_IntInt @2171
    intUObjectexecGreaterGreater_IntInt @2172
    intUObjectexecGreaterGreater_VectorRotator @2173
    intUObjectexecGreater_FloatFloat @2174
    intUObjectexecGreater_IntInt @2175
    intUObjectexecGreater_StringString @2176
    intUObjectexecHighNative0 @2177
    intUObjectexecHighNative1 @2178
    intUObjectexecHighNative10 @2179
    intUObjectexecHighNative11 @2180
    intUObjectexecHighNative12 @2181
    intUObjectexecHighNative13 @2182
    intUObjectexecHighNative14 @2183
    intUObjectexecHighNative15 @2184
    intUObjectexecHighNative2 @2185
    intUObjectexecHighNative3 @2186
    intUObjectexecHighNative4 @2187
    intUObjectexecHighNative5 @2188
    intUObjectexecHighNative6 @2189
    intUObjectexecHighNative7 @2190
    intUObjectexecHighNative8 @2191
    intUObjectexecHighNative9 @2192
    intUObjectexecInStr @2193
    intUObjectexecInstanceVariable @2194
    intUObjectexecIntConst @2195
    intUObjectexecIntConstByte @2196
    intUObjectexecIntOne @2197
    intUObjectexecIntToBool @2198
    intUObjectexecIntToByte @2199
    intUObjectexecIntToFloat @2200
    intUObjectexecIntToString @2201
    intUObjectexecIntZero @2202
    intUObjectexecInterpCurveEval @2203
    intUObjectexecInvert @2204
    intUObjectexecIsA @2205
    intUObjectexecIsInState @2206
    intUObjectexecIterator @2207
    intUObjectexecItoa @2208
    intUObjectexecJump @2209
    intUObjectexecJumpIfNot @2210
    intUObjectexecLeft @2211
    intUObjectexecLen @2212
    intUObjectexecLerp @2213
    intUObjectexecLessEqual_FloatFloat @2214
    intUObjectexecLessEqual_IntInt @2215
    intUObjectexecLessEqual_StringString @2216
    intUObjectexecLessLess_IntInt @2217
    intUObjectexecLessLess_VectorRotator @2218
    intUObjectexecLess_FloatFloat @2219
    intUObjectexecLess_IntInt @2220
    intUObjectexecLess_StringString @2221
    intUObjectexecLet @2222
    intUObjectexecLetBool @2223
    intUObjectexecLetDelegate @2224
    intUObjectexecLoadConfig @2225
    intUObjectexecLocalVariable @2226
    intUObjectexecLocalize @2227
    intUObjectexecLog @2228
    intUObjectexecLogSnd @2229
    intUObjectexecLoge @2230
    intUObjectexecMax @2231
    intUObjectexecMetaCast @2232
    intUObjectexecMid @2233
    intUObjectexecMin @2234
    intUObjectexecMirrorVectorByNormal @2235
    intUObjectexecMultiplyEqual_ByteByte @2236
    intUObjectexecMultiplyEqual_FloatFloat @2237
    intUObjectexecMultiplyEqual_IntFloat @2238
    intUObjectexecMultiplyEqual_RotatorFloat @2239
    intUObjectexecMultiplyEqual_VectorFloat @2240
    intUObjectexecMultiplyEqual_VectorVector @2241
    intUObjectexecMultiplyMultiply_FloatFloat @2242
    intUObjectexecMultiply_FloatFloat @2243
    intUObjectexecMultiply_FloatRotator @2244
    intUObjectexecMultiply_FloatVector @2245
    intUObjectexecMultiply_IntInt @2246
    intUObjectexecMultiply_RotatorFloat @2247
    intUObjectexecMultiply_VectorFloat @2248
    intUObjectexecMultiply_VectorVector @2249
    intUObjectexecNameConst @2250
    intUObjectexecNameToBool @2251
    intUObjectexecNameToString @2252
    intUObjectexecNativeParm @2253
    intUObjectexecNew @2254
    intUObjectexecNoObject @2255
    intUObjectexecNormal @2256
    intUObjectexecNormalize @2257
    intUObjectexecNotEqual_BoolBool @2258
    intUObjectexecNotEqual_FloatFloat @2259
    intUObjectexecNotEqual_IntInt @2260
    intUObjectexecNotEqual_NameName @2261
    intUObjectexecNotEqual_ObjectObject @2262
    intUObjectexecNotEqual_RotatorRotator @2263
    intUObjectexecNotEqual_StringString @2264
    intUObjectexecNotEqual_VectorVector @2265
    intUObjectexecNot_PreBool @2266
    intUObjectexecNothing @2267
    intUObjectexecObjectConst @2268
    intUObjectexecObjectToBool @2269
    intUObjectexecObjectToString @2270
    intUObjectexecOrOr_BoolBool @2271
    intUObjectexecOr_IntInt @2272
    intUObjectexecOrthoRotation @2273
    intUObjectexecPercent_FloatFloat @2274
    intUObjectexecPrimitiveCast @2275
    intUObjectexecRand @2276
    intUObjectexecRemoveInvalidChars @2277
    intUObjectexecResetConfig @2278
    intUObjectexecRewindToFirstClass @2279
    intUObjectexecRight @2280
    intUObjectexecRotRand @2281
    intUObjectexecRotationConst @2282
    intUObjectexecRotatorToBool @2283
    intUObjectexecRotatorToString @2284
    intUObjectexecRotatorToVector @2285
    intUObjectexecSaveConfig @2286
    intUObjectexecSelf @2287
    intUObjectexecSetPropertyText @2288
    intUObjectexecSetRegistryKey @2289
    intUObjectexecShortestAngle2D @2290
    intUObjectexecSin @2291
    intUObjectexecSmerp @2292
    intUObjectexecSqrt @2293
    intUObjectexecSquare @2294
    intUObjectexecStaticSaveConfig @2295
    intUObjectexecStop @2296
    intUObjectexecStringConst @2297
    intUObjectexecStringToBool @2298
    intUObjectexecStringToByte @2299
    intUObjectexecStringToFloat @2300
    intUObjectexecStringToInt @2301
    intUObjectexecStringToRotator @2302
    intUObjectexecStringToVector @2303
    intUObjectexecStrnicmp @2304
    intUObjectexecStructCmpEq @2305
    intUObjectexecStructCmpNe @2306
    intUObjectexecStructMember @2307
    intUObjectexecSubtractEqual_ByteByte @2308
    intUObjectexecSubtractEqual_FloatFloat @2309
    intUObjectexecSubtractEqual_IntInt @2310
    intUObjectexecSubtractEqual_RotatorRotator @2311
    intUObjectexecSubtractEqual_VectorVector @2312
    intUObjectexecSubtractSubtract_Byte @2313
    intUObjectexecSubtractSubtract_Int @2314
    intUObjectexecSubtractSubtract_PreByte @2315
    intUObjectexecSubtractSubtract_PreInt @2316
    intUObjectexecSubtract_FloatFloat @2317
    intUObjectexecSubtract_IntInt @2318
    intUObjectexecSubtract_PreFloat @2319
    intUObjectexecSubtract_PreInt @2320
    intUObjectexecSubtract_PreVector @2321
    intUObjectexecSubtract_RotatorRotator @2322
    intUObjectexecSubtract_VectorVector @2323
    intUObjectexecSwitch @2324
    intUObjectexecTan @2325
    intUObjectexecTrue @2326
    intUObjectexecUnclock @2327
    intUObjectexecUnicodeStringConst @2328
    intUObjectexecVRand @2329
    intUObjectexecVSize @2330
    intUObjectexecVectorConst @2331
    intUObjectexecVectorToBool @2332
    intUObjectexecVectorToRotator @2333
    intUObjectexecVectorToString @2334
    intUObjectexecVirtualFunction @2335
    intUObjectexecWarn @2336
    intUObjectexecXorXor_BoolBool @2337
    intUObjectexecXor_IntInt @2338
