LIBRARY Engine
EXPORTS
    ??0?$TArray@E@@QAE@ABV0@@Z @1
    ??0?$TArray@E@@QAE@H@Z @2
    ??0?$TArray@E@@QAE@W4ENoInit@@@Z @3
    ??0?$TArray@E@@QAE@XZ @4
    ??0?$TLazyArray@E@@QAE@ABV0@@Z @5
    ??0?$TLazyArray@E@@QAE@H@Z @6
    ??0AAIController@@QAE@ABV0@@Z @7
    ??0AAIController@@QAE@XZ @8
    ??0AAIMarker@@QAE@ABV0@@Z @9
    ??0AAIMarker@@QAE@XZ @10
    ??0AAIScript@@QAE@ABV0@@Z @11
    ??0AAIScript@@QAE@XZ @12
    ??0AActor@@QAE@ABV0@@Z @13
    ??0AActor@@QAE@XZ @14
    ??0AActorManager@@IAE@XZ @15
    ??0AActorManager@@QAE@ABV0@@Z @16
    ??0AAntiPortalActor@@IAE@XZ @17
    ??0AAntiPortalActor@@QAE@ABV0@@Z @18
    ??0ABlockingVolume@@IAE@XZ @19
    ??0ABlockingVolume@@QAE@ABV0@@Z @20
    ??0ABrush@@QAE@ABV0@@Z @21
    ??0ABrush@@QAE@XZ @22
    ??0ACamera@@QAE@ABV0@@Z @23
    ??0ACamera@@QAE@XZ @24
    ??0AClipMarker@@IAE@XZ @25
    ??0AClipMarker@@QAE@ABV0@@Z @26
    ??0AController@@QAE@ABV0@@Z @27
    ??0AController@@QAE@XZ @28
    ??0ADecoVolumeObject@@IAE@XZ @29
    ??0ADecoVolumeObject@@QAE@ABV0@@Z @30
    ??0ADecorationList@@IAE@XZ @31
    ??0ADecorationList@@QAE@ABV0@@Z @32
    ??0ADefaultPhysicsVolume@@IAE@XZ @33
    ??0ADefaultPhysicsVolume@@QAE@ABV0@@Z @34
    ??0ADoor@@QAE@ABV0@@Z @35
    ??0ADoor@@QAE@XZ @36
    ??0AEmitter@@QAE@ABV0@@Z @37
    ??0AEmitter@@QAE@XZ @38
    ??0AFluidSurfaceInfo@@IAE@XZ @39
    ??0AFluidSurfaceInfo@@QAE@ABV0@@Z @40
    ??0AFluidSurfaceOscillator@@QAE@ABV0@@Z @41
    ??0AFluidSurfaceOscillator@@QAE@XZ @42
    ??0AGameInfo@@QAE@ABV0@@Z @43
    ??0AGameInfo@@QAE@XZ @44
    ??0AGameReplicationInfo@@QAE@ABV0@@Z @45
    ??0AGameReplicationInfo@@QAE@XZ @46
    ??0AHUD@@QAE@ABV0@@Z @47
    ??0AHUD@@QAE@XZ @48
    ??0AInfo@@IAE@XZ @49
    ??0AInfo@@QAE@ABV0@@Z @50
    ??0AInternetInfo@@IAE@XZ @51
    ??0AInternetInfo@@QAE@ABV0@@Z @52
    ??0AInterpolationPoint@@QAE@ABV0@@Z @53
    ??0AInterpolationPoint@@QAE@XZ @54
    ??0AJumpDest@@QAE@ABV0@@Z @55
    ??0AJumpDest@@QAE@XZ @56
    ??0AJumpPad@@QAE@ABV0@@Z @57
    ??0AJumpPad@@QAE@XZ @58
    ??0AKActor@@QAE@ABV0@@Z @59
    ??0AKActor@@QAE@XZ @60
    ??0AKBSJoint@@IAE@XZ @61
    ??0AKBSJoint@@QAE@ABV0@@Z @62
    ??0AKConeLimit@@QAE@ABV0@@Z @63
    ??0AKConeLimit@@QAE@XZ @64
    ??0AKConstraint@@QAE@ABV0@@Z @65
    ??0AKConstraint@@QAE@XZ @66
    ??0AKHinge@@QAE@ABV0@@Z @67
    ??0AKHinge@@QAE@XZ @68
    ??0AKeypoint@@IAE@XZ @69
    ??0AKeypoint@@QAE@ABV0@@Z @70
    ??0ALadder@@QAE@ABV0@@Z @71
    ??0ALadder@@QAE@XZ @72
    ??0ALadderVolume@@QAE@ABV0@@Z @73
    ??0ALadderVolume@@QAE@XZ @74
    ??0ALevelInfo@@QAE@ABV0@@Z @75
    ??0ALevelInfo@@QAE@XZ @76
    ??0ALiftCenter@@QAE@ABV0@@Z @77
    ??0ALiftCenter@@QAE@XZ @78
    ??0ALiftExit@@IAE@XZ @79
    ??0ALiftExit@@QAE@ABV0@@Z @80
    ??0ALight@@QAE@ABV0@@Z @81
    ??0ALight@@QAE@XZ @82
    ??0ALineOfSightTrigger@@QAE@ABV0@@Z @83
    ??0ALineOfSightTrigger@@QAE@XZ @84
    ??0ALookTarget@@IAE@XZ @85
    ??0ALookTarget@@QAE@ABV0@@Z @86
    ??0AMapList@@IAE@XZ @87
    ??0AMapList@@QAE@ABV0@@Z @88
    ??0AMover@@QAE@ABV0@@Z @89
    ??0AMover@@QAE@XZ @90
    ??0ANavigationPoint@@QAE@ABV0@@Z @91
    ??0ANavigationPoint@@QAE@XZ @92
    ??0ANote@@QAE@ABV0@@Z @93
    ??0ANote@@QAE@XZ @94
    ??0APathNode@@QAE@ABV0@@Z @95
    ??0APathNode@@QAE@XZ @96
    ??0APawn@@QAE@ABV0@@Z @97
    ??0APawn@@QAE@XZ @98
    ??0APhysicsVolume@@QAE@ABV0@@Z @99
    ??0APhysicsVolume@@QAE@XZ @100
    ??0APlayerController@@QAE@ABV0@@Z @101
    ??0APlayerController@@QAE@XZ @102
    ??0APlayerReplicationInfo@@QAE@ABV0@@Z @103
    ??0APlayerReplicationInfo@@QAE@XZ @104
    ??0APlayerStart@@QAE@ABV0@@Z @105
    ??0APlayerStart@@QAE@XZ @106
    ??0APolyMarker@@IAE@XZ @107
    ??0APolyMarker@@QAE@ABV0@@Z @108
    ??0APotentialClimbWatcher@@IAE@XZ @109
    ??0APotentialClimbWatcher@@QAE@ABV0@@Z @110
    ??0AProjector@@QAE@ABV0@@Z @111
    ??0AProjector@@QAE@XZ @112
    ??0AR6AbstractCircumstantialActionQuery@@QAE@ABV0@@Z @113
    ??0AR6AbstractCircumstantialActionQuery@@QAE@XZ @114
    ??0AR6AbstractClimbableObj@@IAE@XZ @115
    ; ??0AR6AbstractClimbableObj@@QAE@ABV0@@Z @116  ; header-only class — no dllexport, ordinal reserved
    ??0AR6ActionPointAbstract@@IAE@XZ @117
    ??0AR6ActionPointAbstract@@QAE@ABV0@@Z @118
    ??0AR6ActionSpot@@QAE@ABV0@@Z @119
    ??0AR6ActionSpot@@QAE@XZ @120
    ??0AR6ColBox@@QAE@ABV0@@Z @121
    ??0AR6ColBox@@QAE@XZ @122
    ??0AR6Decal@@IAE@XZ @123
    ??0AR6Decal@@QAE@ABV0@@Z @124
    ??0AR6DecalGroup@@QAE@ABV0@@Z @125
    ??0AR6DecalGroup@@QAE@XZ @126
    ??0AR6DecalManager@@QAE@ABV0@@Z @127
    ??0AR6DecalManager@@QAE@XZ @128
    ??0AR6DecalsBase@@QAE@ABV0@@Z @129
    ??0AR6DecalsBase@@QAE@XZ @130
    ??0AR6EngineFirstPersonWeapon@@IAE@XZ @131
    ??0AR6EngineFirstPersonWeapon@@QAE@ABV0@@Z @132
    ??0AR6EngineWeapon@@QAE@ABV0@@Z @133
    ??0AR6EngineWeapon@@QAE@XZ @134
    ??0AR6FootStep@@IAE@XZ @135
    ??0AR6FootStep@@QAE@ABV0@@Z @136
    ??0AR6GlowLight@@IAE@XZ @137
    ??0AR6GlowLight@@QAE@ABV0@@Z @138
    ??0AR6MapList@@IAE@XZ @139
    ??0AR6MapList@@QAE@ABV0@@Z @140
    ??0AR6MorphMeshActor@@IAE@XZ @141
    ??0AR6MorphMeshActor@@QAE@ABV0@@Z @142
    ??0AR6PawnReplicationInfo@@IAE@XZ @143
    ??0AR6PawnReplicationInfo@@QAE@ABV0@@Z @144
    ??0AR6RainbowStartInfo@@QAE@ABV0@@Z @145
    ??0AR6RainbowStartInfo@@QAE@XZ @146
    ??0AR6StartGameInfo@@QAE@ABV0@@Z @147
    ??0AR6StartGameInfo@@QAE@XZ @148
    ??0AR6TeamStartInfo@@QAE@ABV0@@Z @149
    ??0AR6TeamStartInfo@@QAE@XZ @150
    ??0AR6WallHit@@QAE@ABV0@@Z @151
    ??0AR6WallHit@@QAE@XZ @152
    ??0AR6eviLTesting@@QAE@ABV0@@Z @153
    ??0AR6eviLTesting@@QAE@XZ @154
    ??0AReplicationInfo@@IAE@XZ @155
    ??0AReplicationInfo@@QAE@ABV0@@Z @156
    ??0ASavedMove@@IAE@XZ @157
    ??0ASavedMove@@QAE@ABV0@@Z @158
    ??0ASceneManager@@QAE@ABV0@@Z @159
    ??0ASceneManager@@QAE@XZ @160
    ??0AScout@@QAE@ABV0@@Z @161
    ??0AScout@@QAE@XZ @162
    ??0ASkyZoneInfo@@IAE@XZ @163
    ??0ASkyZoneInfo@@QAE@ABV0@@Z @164
    ??0ASmallNavigationPoint@@IAE@XZ @165
    ??0ASmallNavigationPoint@@QAE@ABV0@@Z @166
    ??0AStatLog@@IAE@XZ @167
    ??0AStatLog@@QAE@ABV0@@Z @168
    ??0AStatLogFile@@IAE@XZ @169
    ??0AStatLogFile@@QAE@ABV0@@Z @170
    ??0AStaticMeshActor@@QAE@ABV0@@Z @171
    ??0AStaticMeshActor@@QAE@XZ @172
    ??0ATeleporter@@QAE@ABV0@@Z @173
    ??0ATeleporter@@QAE@XZ @174
    ??0ATerrainInfo@@QAE@ABV0@@Z @175
    ??0ATerrainInfo@@QAE@XZ @176
    ??0ATrigger@@IAE@XZ @177
    ??0ATrigger@@QAE@ABV0@@Z @178
    ??0ATriggers@@IAE@XZ @179
    ??0ATriggers@@QAE@ABV0@@Z @180
    ??0AVolume@@QAE@ABV0@@Z @181
    ??0AVolume@@QAE@XZ @182
    ??0AWarpZoneInfo@@QAE@ABV0@@Z @183
    ??0AWarpZoneInfo@@QAE@XZ @184
    ??0AWarpZoneMarker@@QAE@ABV0@@Z @185
    ??0AWarpZoneMarker@@QAE@XZ @186
    ??0AZoneInfo@@QAE@ABV0@@Z @187
    ??0AZoneInfo@@QAE@XZ @188
    ??0CBoneDescData@@QAE@ABV0@@Z @189
    ??0CBoneDescData@@QAE@XZ @190
    ??0ECLipSynchData@@QAE@PAVUMeshInstance@@PAVUSound@@1PAVAActor@@@Z @191
    ??0ECLipSynchData@@QAE@XZ @192
    ??0FActorSceneNode@@QAE@ABV0@@Z @193
    ??0FActorSceneNode@@QAE@PAVUViewport@@PAVAActor@@1VFVector@@VFRotator@@M@Z @194
    ??0FAnimMeshVertexStream@@QAE@ABV0@@Z @195
    ??0FAnimMeshVertexStream@@QAE@XZ @196
    ??0FBezier@@QAE@ABV0@@Z @197
    ??0FBezier@@QAE@XZ @198
    ??0FBspSection@@QAE@ABV0@@Z @199
    ??0FBspSection@@QAE@XZ @200
    ??0FBspVertex@@QAE@XZ @201
    ??0FBspVertexStream@@QAE@ABV0@@Z @202
    ??0FBspVertexStream@@QAE@XZ @203
    ??0FCameraSceneNode@@QAE@ABV0@@Z @204
    ??0FCameraSceneNode@@QAE@PAVUViewport@@PAVAActor@@VFVector@@VFRotator@@M@Z @205
    ??0FCanvasUtil@@QAE@ABV0@@Z @206
    ??0FCanvasUtil@@QAE@PAVUViewport@@PAVFRenderInterface@@HH@Z @207
    ??0FCanvasVertex@@QAE@VFVector@@VFColor@@MM@Z @208
    ??0FCanvasVertex@@QAE@XZ @209
    ??0FCollisionHash@@QAE@ABV0@@Z @210
    ??0FCollisionHash@@QAE@XZ @211
    ??0FCollisionOctree@@QAE@ABV0@@Z @212
    ??0FCollisionOctree@@QAE@XZ @213
    ??0FColor@@QAE@ABVFPlane@@@Z @214
    ??0FColor@@QAE@EEEE@Z @215
    ??0FColor@@QAE@K@Z @216
    ??0FColor@@QAE@XZ @217
    ??0FConvexVolume@@QAE@ABV0@@Z @218
    ??0FConvexVolume@@QAE@XZ @219
    ??0FDXTCompressionOptions@@QAE@XZ @220
    ??0FDbgVectorInfo@@QAE@ABU0@@Z @221
    ??0FDbgVectorInfo@@QAE@XZ @222
    ??0FDirectionalLightMapSceneNode@@QAE@ABV0@@Z @223
    ??0FDirectionalLightMapSceneNode@@QAE@PAVUViewport@@PAVAActor@@AAVFBspSurf@@PAVFLightMap@@@Z @224
    ??0FDynamicActor@@QAE@ABV0@@Z @225
    ??0FDynamicActor@@QAE@PAVAActor@@@Z @226
    ??0FDynamicLight@@QAE@ABV0@@Z @227
    ??0FDynamicLight@@QAE@PAVAActor@@@Z @228
    ??0FEngineStats@@QAE@XZ @229
    ??0FFontPage@@QAE@ABU0@@Z @230
    ??0FFontPage@@QAE@XZ @231
    ??0FHitCause@@QAE@PAVFHitObserver@@PAVUViewport@@KMM@Z @232
    ??0FHitObserver@@QAE@ABV0@@Z @233
    ??0FHitObserver@@QAE@XZ @234
    ??0FInBunch@@QAE@ABV0@@Z @235
    ??0FInBunch@@QAE@PAVUNetConnection@@@Z @236
    ??0FKAggregateGeom@@QAE@ABV0@@Z @237
    ??0FKAggregateGeom@@QAE@XZ @238
    ??0FKBoxElem@@QAE@M@Z @239
    ??0FKBoxElem@@QAE@MMM@Z @240
    ??0FKBoxElem@@QAE@XZ @241
    ??0FKConvexElem@@QAE@ABV0@@Z @242
    ??0FKConvexElem@@QAE@XZ @243
    ??0FKCylinderElem@@QAE@MM@Z @244
    ??0FKCylinderElem@@QAE@XZ @245
    ??0FKSphereElem@@QAE@M@Z @246
    ??0FKSphereElem@@QAE@XZ @247
    ??0FLevelSceneNode@@QAE@ABV0@@Z @248
    ??0FLevelSceneNode@@QAE@PAV0@HVFMatrix@@@Z @249
    ??0FLevelSceneNode@@QAE@PAVUViewport@@@Z @250
    ??0FLightMap@@QAE@ABV0@@Z @251
    ??0FLightMap@@QAE@PAVULevel@@HH@Z @252
    ??0FLightMap@@QAE@XZ @253
    ??0FLightMapIndex@@QAE@XZ @254
    ??0FLightMapSceneNode@@QAE@ABV0@@Z @255
    ??0FLightMapSceneNode@@QAE@PAVUViewport@@PAVAActor@@PAVFLightMap@@@Z @256
    ??0FLightMapTexture@@QAE@ABV0@@Z @257
    ??0FLightMapTexture@@QAE@PAVULevel@@@Z @258
    ??0FLightMapTexture@@QAE@XZ @259
    ??0FLineBatcher@@QAE@ABV0@@Z @260
    ??0FLineBatcher@@QAE@PAVFRenderInterface@@HH@Z @261
    ??0FLineVertex@@QAE@VFVector@@VFColor@@@Z @262
    ??0FLineVertex@@QAE@XZ @263
    ??0FMatineeTools@@QAE@ABV0@@Z @264
    ??0FMatineeTools@@QAE@XZ @265
    ??0FMipmap@@QAE@ABU0@@Z @266
    ??0FMipmap@@QAE@EE@Z @267
    ??0FMipmap@@QAE@EEH@Z @268
    ??0FMipmap@@QAE@XZ @269
    ??0FMipmapBase@@QAE@EE@Z @270
    ??0FMipmapBase@@QAE@XZ @271
    ??0FMirrorSceneNode@@QAE@ABV0@@Z @272
    ??0FMirrorSceneNode@@QAE@PAVFLevelSceneNode@@VFPlane@@HH@Z @273
    ??0FNetworkNotify@@QAE@ABV0@@Z @274
    ??0FNetworkNotify@@QAE@XZ @275
    ??0FOctreeNode@@QAE@ABV0@@Z @276
    ??0FOctreeNode@@QAE@XZ @277
    ??0FOrientation@@QAE@XZ @278
    ??0FOutBunch@@QAE@ABV0@@Z @279
    ??0FOutBunch@@QAE@PAVUChannel@@H@Z @280
    ??0FOutBunch@@QAE@XZ @281
    ??0FPointLightMapSceneNode@@QAE@ABV0@@Z @282
    ??0FPointLightMapSceneNode@@QAE@PAVUViewport@@PAVAActor@@AAVFBspSurf@@PAVFLightMap@@HHHH@Z @283
    ??0FPointRegion@@QAE@PAVAZoneInfo@@@Z @284
    ??0FPointRegion@@QAE@PAVAZoneInfo@@HE@Z @285
    ??0FPointRegion@@QAE@XZ @286
    ??0FPoly@@QAE@XZ @287
    ??0FR6MatineePreviewProxy@@QAE@ABV0@@Z @288
    ??0FR6MatineePreviewProxy@@QAE@XZ @289
    ??0FRaw32BitIndexBuffer@@QAE@ABV0@@Z @290
    ??0FRaw32BitIndexBuffer@@QAE@XZ @291
    ??0FRawColorStream@@QAE@ABV0@@Z @292
    ??0FRawColorStream@@QAE@XZ @293
    ??0FRawIndexBuffer@@QAE@ABV0@@Z @294
    ??0FRawIndexBuffer@@QAE@XZ @295
    ??0FRebuildOptions@@QAE@ABV0@@Z @296
    ??0FRebuildOptions@@QAE@XZ @297
    ??0FRebuildTools@@QAE@ABV0@@Z @298
    ??0FRebuildTools@@QAE@XZ @299
    ??0FRenderInterface@@QAE@ABV0@@Z @300
    ??0FRenderInterface@@QAE@XZ @301
    ??0FRotatorF@@QAE@MMM@Z @302
    ??0FRotatorF@@QAE@VFRotator@@@Z @303
    ??0FRotatorF@@QAE@XZ @304
    ??0FSceneNode@@QAE@ABV0@@Z @305
    ??0FSceneNode@@QAE@PAV0@@Z @306
    ??0FSceneNode@@QAE@PAVUViewport@@@Z @307
    ??0FSkinVertexStream@@QAE@ABV0@@Z @308
    ??0FSkinVertexStream@@QAE@XZ @309
    ??0FSkySceneNode@@QAE@ABV0@@Z @310
    ??0FSkySceneNode@@QAE@PAVFLevelSceneNode@@H@Z @311
    ??0FSortedPathList@@QAE@XZ @312
    ??0FSoundData@@QAE@ABV0@@Z @313
    ??0FSoundData@@QAE@PAVUSound@@@Z @314
    ??0FStatGraph@@QAE@ABV0@@Z @315
    ??0FStatGraph@@QAE@XZ @316
    ??0FStatGraphLine@@QAE@ABV0@@Z @317
    ??0FStatGraphLine@@QAE@XZ @318
    ??0FStaticCubemap@@QAE@ABV0@@Z @319
    ??0FStaticCubemap@@QAE@PAVUCubemap@@@Z @320
    ??0FStaticLightMapTexture@@QAE@ABV0@@Z @321
    ??0FStaticLightMapTexture@@QAE@XZ @322
    ??0FStaticMeshCollisionNode@@QAE@XZ @323
    ??0FStaticMeshCollisionTriangle@@QAE@ABU0@@Z @324
    ??0FStaticMeshCollisionTriangle@@QAE@XZ @325
    ??0FStaticMeshColorStream@@QAE@ABV0@@Z @326
    ??0FStaticMeshColorStream@@QAE@XZ @327
    ??0FStaticMeshMaterial@@QAE@PAVUMaterial@@@Z @328
    ??0FStaticMeshSection@@QAE@XZ @329
    ??0FStaticMeshTriangle@@QAE@XZ @330
    ??0FStaticMeshUVStream@@QAE@ABV0@@Z @331
    ??0FStaticMeshUVStream@@QAE@XZ @332
    ??0FStaticMeshVertex@@QAE@XZ @333
    ??0FStaticMeshVertexStream@@QAE@ABV0@@Z @334
    ??0FStaticMeshVertexStream@@QAE@XZ @335
    ??0FStaticTexture@@QAE@ABV0@@Z @336
    ??0FStaticTexture@@QAE@PAVUTexture@@@Z @337
    ??0FStats@@QAE@ABV0@@Z @338
    ??0FStats@@QAE@XZ @339
    ??0FTags@@QAE@ABV0@@Z @340
    ??0FTags@@QAE@XZ @341
    ??0FTempLineBatcher@@QAE@ABV0@@Z @342
    ??0FTempLineBatcher@@QAE@XZ @343
    ??0FTerrainMaterialLayer@@QAE@XZ @344
    ??0FTerrainTools@@QAE@ABV0@@Z @345
    ??0FTerrainTools@@QAE@XZ @346
    ??0FURL@@QAE@ABV0@@Z @347
    ??0FURL@@QAE@PAV0@PBGW4ETravelType@@@Z @348
    ??0FURL@@QAE@PBG@Z @349
    ??0FWarpZoneSceneNode@@QAE@ABV0@@Z @350
    ??0FWarpZoneSceneNode@@QAE@PAVFLevelSceneNode@@PAVAWarpZoneInfo@@@Z @351
    ??0FWaveModInfo@@QAE@XZ @352
    ??0FZoneProperties@@QAE@ABV0@@Z @353
    ??0FZoneProperties@@QAE@XZ @354
    ??0HActor@@QAE@ABU0@@Z @355
    ??0HActor@@QAE@PAVAActor@@@Z @356
    ??0HBspSurf@@QAE@ABU0@@Z @357
    ??0HBspSurf@@QAE@H@Z @358
    ??0HCoords@@QAE@ABU0@@Z @359
    ??0HCoords@@QAE@PAVFCameraSceneNode@@@Z @360
    ??0HHitProxy@@QAE@ABU0@@Z @361
    ??0HHitProxy@@QAE@XZ @362
    ??0HMaterialTree@@QAE@ABU0@@Z @363
    ??0HMaterialTree@@QAE@PAVUMaterial@@K@Z @364
    ??0HMatineeAction@@QAE@ABU0@@Z @365
    ??0HMatineeAction@@QAE@PAVASceneManager@@PAVUMatAction@@@Z @366
    ??0HMatineeScene@@QAE@ABU0@@Z @367
    ??0HMatineeScene@@QAE@PAVASceneManager@@@Z @368
    ??0HMatineeSubAction@@QAE@ABU0@@Z @369
    ??0HMatineeSubAction@@QAE@PAVUMatSubAction@@PAVUMatAction@@@Z @370
    ??0HMatineeTimePath@@QAE@ABU0@@Z @371
    ??0HMatineeTimePath@@QAE@PAVASceneManager@@@Z @372
    ??0HTerrain@@QAE@ABU0@@Z @373
    ??0HTerrain@@QAE@PAVATerrainInfo@@@Z @374
    ??0HTerrainToolLayer@@QAE@ABU0@@Z @375
    ??0HTerrainToolLayer@@QAE@PAVATerrainInfo@@HPAVUTexture@@@Z @376
    ??0UActionMoveActor@@IAE@XZ @377
    ??0UActionMoveActor@@QAE@ABV0@@Z @378
    ??0UActionMoveCamera@@IAE@XZ @379
    ??0UActionMoveCamera@@QAE@ABV0@@Z @380
    ??0UActionPause@@IAE@XZ @381
    ??0UActionPause@@QAE@ABV0@@Z @382
    ??0UActorChannel@@QAE@ABV0@@Z @383
    ??0UActorChannel@@QAE@XZ @384
    ??0UAnimNotify@@QAE@ABV0@@Z @385
    ??0UAnimNotify@@QAE@XZ @386
    ??0UAnimNotify_DestroyEffect@@QAE@ABV0@@Z @387
    ??0UAnimNotify_DestroyEffect@@QAE@XZ @388
    ??0UAnimNotify_Effect@@QAE@ABV0@@Z @389
    ??0UAnimNotify_Effect@@QAE@XZ @390
    ??0UAnimNotify_MatSubAction@@QAE@ABV0@@Z @391
    ??0UAnimNotify_MatSubAction@@QAE@XZ @392
    ??0UAnimNotify_Script@@QAE@ABV0@@Z @393
    ??0UAnimNotify_Script@@QAE@XZ @394
    ??0UAnimNotify_Scripted@@QAE@ABV0@@Z @395
    ??0UAnimNotify_Scripted@@QAE@XZ @396
    ??0UAnimNotify_Sound@@QAE@ABV0@@Z @397
    ??0UAnimNotify_Sound@@QAE@XZ @398
    ??0UAnimation@@QAE@ABV0@@Z @399
    ??0UAnimation@@QAE@XZ @400
    ??0UAudioSubsystem@@IAE@XZ @401
    ??0UAudioSubsystem@@QAE@ABV0@@Z @402
    ??0UBeamEmitter@@QAE@ABV0@@Z @403
    ??0UBeamEmitter@@QAE@XZ @404
    ??0UBinaryFileDownload@@IAE@XZ @405
    ??0UBinaryFileDownload@@QAE@ABV0@@Z @406
    ??0UBitmapMaterial@@QAE@ABV0@@Z @407
    ??0UBitmapMaterial@@QAE@XZ @408
    ??0UCameraEffect@@QAE@ABV0@@Z @409
    ??0UCameraEffect@@QAE@XZ @410
    ??0UCameraOverlay@@QAE@ABV0@@Z @411
    ??0UCameraOverlay@@QAE@XZ @412
    ??0UCanvas@@IAE@XZ @413
    ??0UCanvas@@QAE@ABV0@@Z @414
    ??0UChannel@@QAE@ABV0@@Z @415
    ??0UChannel@@QAE@XZ @416
    ??0UChannelDownload@@IAE@XZ @417
    ??0UChannelDownload@@QAE@ABV0@@Z @418
    ??0UCheatManager@@IAE@XZ @419
    ??0UCheatManager@@QAE@ABV0@@Z @420
    ??0UClient@@QAE@ABV0@@Z @421
    ??0UClient@@QAE@XZ @422
    ??0UColorModifier@@IAE@XZ @423
    ??0UColorModifier@@QAE@ABV0@@Z @424
    ??0UCombiner@@QAE@ABV0@@Z @425
    ??0UCombiner@@QAE@XZ @426
    ??0UConsole@@IAE@XZ @427
    ??0UConsole@@QAE@ABV0@@Z @428
    ??0UConstantColor@@QAE@ABV0@@Z @429
    ??0UConstantColor@@QAE@XZ @430
    ??0UConstantMaterial@@QAE@ABV0@@Z @431
    ??0UConstantMaterial@@QAE@XZ @432
    ??0UControlChannel@@QAE@ABV0@@Z @433
    ??0UControlChannel@@QAE@XZ @434
    ??0UConvexVolume@@QAE@ABV0@@Z @435
    ??0UConvexVolume@@QAE@XZ @436
    ??0UCubemap@@QAE@ABV0@@Z @437
    ??0UCubemap@@QAE@XZ @438
    ??0UDemoRecConnection@@IAE@XZ @439
    ??0UDemoRecConnection@@QAE@ABV0@@Z @440
    ??0UDemoRecConnection@@QAE@PAVUNetDriver@@ABVFURL@@@Z @441
    ??0UDemoRecDriver@@QAE@ABV0@@Z @442
    ??0UDemoRecDriver@@QAE@XZ @443
    ??0UDiffuseAttenuationMaterial@@IAE@XZ @444
    ??0UDiffuseAttenuationMaterial@@QAE@ABV0@@Z @445
    ??0UDownload@@IAE@XZ @446
    ??0UDownload@@QAE@ABV0@@Z @447
    ??0UEngine@@QAE@ABV0@@Z @448
    ??0UEngine@@QAE@XZ @449
    ??0UFadeColor@@QAE@ABV0@@Z @450
    ??0UFadeColor@@QAE@XZ @451
    ??0UFileChannel@@QAE@ABV0@@Z @452
    ??0UFileChannel@@QAE@XZ @453
    ??0UFinalBlend@@QAE@ABV0@@Z @454
    ??0UFinalBlend@@QAE@XZ @455
    ??0UFluidSurfacePrimitive@@IAE@XZ @456
    ??0UFluidSurfacePrimitive@@QAE@ABV0@@Z @457
    ??0UFont@@QAE@ABV0@@Z @458
    ??0UFont@@QAE@XZ @459
    ??0UGameEngine@@QAE@ABV0@@Z @460
    ??0UGameEngine@@QAE@XZ @461
    ??0UI3DL2Listener@@QAE@ABV0@@Z @462
    ??0UI3DL2Listener@@QAE@XZ @463
    ??0UIndexBuffer@@QAE@ABV0@@Z @464
    ??0UIndexBuffer@@QAE@XZ @465
    ??0UInput@@QAE@ABV0@@Z @466
    ??0UInput@@QAE@XZ @467
    ??0UInputPlanning@@QAE@ABV0@@Z @468
    ??0UInputPlanning@@QAE@XZ @469
    ??0UInteraction@@IAE@XZ @470
    ??0UInteraction@@QAE@ABV0@@Z @471
    ??0UInteractionMaster@@QAE@ABV0@@Z @472
    ??0UInteractionMaster@@QAE@XZ @473
    ??0UInteractions@@IAE@XZ @474
    ??0UInteractions@@QAE@ABV0@@Z @475
    ??0UKMeshProps@@QAE@ABV0@@Z @476
    ??0UKMeshProps@@QAE@XZ @477
    ??0UKarmaParams@@QAE@ABV0@@Z @478
    ??0UKarmaParams@@QAE@XZ @479
    ??0UKarmaParamsCollision@@IAE@XZ @480
    ??0UKarmaParamsCollision@@QAE@ABV0@@Z @481
    ??0UKarmaParamsRBFull@@IAE@XZ @482
    ??0UKarmaParamsRBFull@@QAE@ABV0@@Z @483
    ??0UKarmaParamsSkel@@IAE@XZ @484
    ??0UKarmaParamsSkel@@QAE@ABV0@@Z @485
    ??0ULevel@@IAE@XZ @486
    ??0ULevel@@QAE@ABV0@@Z @487
    ??0ULevel@@QAE@PAVUEngine@@H@Z @488
    ??0ULevelBase@@IAE@XZ @489
    ??0ULevelBase@@QAE@ABV0@@Z @490
    ??0ULevelBase@@QAE@PAVUEngine@@ABVFURL@@@Z @491
    ??0ULevelSummary@@QAE@ABV0@@Z @492
    ??0ULevelSummary@@QAE@XZ @493
    ??0ULodMesh@@QAE@ABV0@@Z @494
    ??0ULodMesh@@QAE@XZ @495
    ??0ULodMeshInstance@@QAE@ABV0@@Z @496
    ??0ULodMeshInstance@@QAE@XZ @497
    ??0UMatAction@@QAE@ABV0@@Z @498
    ??0UMatAction@@QAE@XZ @499
    ??0UMatObject@@IAE@XZ @500
    ??0UMatObject@@QAE@ABV0@@Z @501
    ??0UMatSubAction@@QAE@ABV0@@Z @502
    ??0UMatSubAction@@QAE@XZ @503
    ??0UMaterial@@QAE@ABV0@@Z @504
    ??0UMaterial@@QAE@XZ @505
    ??0UMaterialSwitch@@QAE@ABV0@@Z @506
    ??0UMaterialSwitch@@QAE@XZ @507
    ??0UMesh@@QAE@ABV0@@Z @508
    ??0UMesh@@QAE@XZ @509
    ??0UMeshAnimation@@QAE@ABV0@@Z @510
    ??0UMeshAnimation@@QAE@XZ @511
    ??0UMeshEmitter@@QAE@ABV0@@Z @512
    ??0UMeshEmitter@@QAE@XZ @513
    ??0UMeshInstance@@QAE@ABV0@@Z @514
    ??0UMeshInstance@@QAE@XZ @515
    ??0UModel@@QAE@ABV0@@Z @516
    ??0UModel@@QAE@PAVABrush@@H@Z @517
    ??0UModel@@QAE@XZ @518
    ??0UModifier@@QAE@ABV0@@Z @519
    ??0UModifier@@QAE@XZ @520
    ??0UMotionBlur@@QAE@ABV0@@Z @521
    ??0UMotionBlur@@QAE@XZ @522
    ??0UNetConnection@@QAE@ABV0@@Z @523
    ??0UNetConnection@@QAE@PAVUNetDriver@@ABVFURL@@@Z @524
    ??0UNetConnection@@QAE@XZ @525
    ??0UNetDriver@@QAE@ABV0@@Z @526
    ??0UNetDriver@@QAE@XZ @527
    ??0UNullRenderDevice@@QAE@ABV0@@Z @528
    ??0UNullRenderDevice@@QAE@XZ @529
    ??0UOpacityModifier@@IAE@XZ @530
    ??0UOpacityModifier@@QAE@ABV0@@Z @531
    ??0UPackageMapLevel@@QAE@ABV0@@Z @532
    ??0UPackageMapLevel@@QAE@PAVUNetConnection@@@Z @533
    ??0UPackageMapLevel@@QAE@XZ @534
    ??0UPalette@@QAE@ABV0@@Z @535
    ??0UPalette@@QAE@XZ @536
    ??0UParticleEmitter@@QAE@ABV0@@Z @537
    ??0UParticleEmitter@@QAE@XZ @538
    ??0UParticleMaterial@@IAE@XZ @539
    ??0UParticleMaterial@@QAE@ABV0@@Z @540
    ??0UPlayer@@QAE@ABV0@@Z @541
    ??0UPlayer@@QAE@XZ @542
    ??0UPlayerInput@@IAE@XZ @543
    ??0UPlayerInput@@QAE@ABV0@@Z @544
    ??0UPolys@@QAE@ABV0@@Z @545
    ??0UPolys@@QAE@XZ @546
    ??0UPrimitive@@QAE@ABV0@@Z @547
    ??0UPrimitive@@QAE@XZ @548
    ??0UProjectorPrimitive@@QAE@ABV0@@Z @549
    ??0UProjectorPrimitive@@QAE@XZ @550
    ??0UProxyBitmapMaterial@@QAE@ABV0@@Z @551
    ??0UProxyBitmapMaterial@@QAE@XZ @552
    ??0UR6AbstractGameManager@@QAE@ABV0@@Z @553
    ??0UR6AbstractGameManager@@QAE@XZ @554
    ??0UR6AbstractPlanningInfo@@QAE@ABV0@@Z @555
    ??0UR6AbstractPlanningInfo@@QAE@XZ @556
    ??0UR6AbstractTerroristMgr@@IAE@XZ @557
    ; ??0UR6AbstractTerroristMgr@@QAE@ABV0@@Z @558  ; header-only class — no dllexport, ordinal reserved
    ??0UR6FileManager@@QAE@ABV0@@Z @559
    ??0UR6FileManager@@QAE@XZ @560
    ??0UR6GameColors@@IAE@XZ @561
    ??0UR6GameColors@@QAE@ABV0@@Z @562
    ??0UR6GameMenuCom@@IAE@XZ @563
    ??0UR6GameMenuCom@@QAE@ABV0@@Z @564
    ??0UR6GameOptions@@QAE@ABV0@@Z @565
    ??0UR6GameOptions@@QAE@XZ @566
    ??0UR6MissionDescription@@QAE@ABV0@@Z @567
    ??0UR6MissionDescription@@QAE@XZ @568
    ??0UR6Mod@@IAE@XZ @569
    ??0UR6Mod@@QAE@ABV0@@Z @570
    ??0UR6ModMgr@@QAE@ABV0@@Z @571
    ??0UR6ModMgr@@QAE@XZ @572
    ??0UR6ServerInfo@@QAE@ABV0@@Z @573
    ??0UR6ServerInfo@@QAE@XZ @574
    ??0UReachSpec@@QAE@ABV0@@Z @575
    ??0UReachSpec@@QAE@XZ @576
    ??0URenderDevice@@QAE@ABV0@@Z @577
    ??0URenderDevice@@QAE@XZ @578
    ??0URenderResource@@QAE@ABV0@@Z @579
    ??0URenderResource@@QAE@XZ @580
    ??0URenderedMaterial@@QAE@ABV0@@Z @581
    ??0URenderedMaterial@@QAE@XZ @582
    ??0UShader@@QAE@ABV0@@Z @583
    ??0UShader@@QAE@XZ @584
    ??0UShadowBitmapMaterial@@QAE@ABV0@@Z @585
    ??0UShadowBitmapMaterial@@QAE@XZ @586
    ??0USkeletalMesh@@QAE@ABV0@@Z @587
    ??0USkeletalMesh@@QAE@XZ @588
    ??0USkeletalMeshInstance@@QAE@ABV0@@Z @589
    ??0USkeletalMeshInstance@@QAE@XZ @590
    ??0USkinVertexBuffer@@QAE@ABV0@@Z @591
    ??0USkinVertexBuffer@@QAE@XZ @592
    ??0USound@@QAE@ABV0@@Z @593
    ??0USound@@QAE@PBGH@Z @594
    ??0USound@@QAE@XZ @595
    ??0USoundGen@@QAE@ABV0@@Z @596
    ??0USoundGen@@QAE@XZ @597
    ??0USparkEmitter@@QAE@ABV0@@Z @598
    ??0USparkEmitter@@QAE@XZ @599
    ??0USpriteEmitter@@QAE@ABV0@@Z @600
    ??0USpriteEmitter@@QAE@XZ @601
    ??0UStaticMesh@@QAE@ABV0@@Z @602
    ??0UStaticMesh@@QAE@XZ @603
    ??0UStaticMeshInstance@@QAE@ABV0@@Z @604
    ??0UStaticMeshInstance@@QAE@XZ @605
    ??0USubActionCameraEffect@@QAE@ABV0@@Z @606
    ??0USubActionCameraEffect@@QAE@XZ @607
    ??0USubActionCameraShake@@QAE@ABV0@@Z @608
    ??0USubActionCameraShake@@QAE@XZ @609
    ??0USubActionFOV@@QAE@ABV0@@Z @610
    ??0USubActionFOV@@QAE@XZ @611
    ??0USubActionFade@@QAE@ABV0@@Z @612
    ??0USubActionFade@@QAE@XZ @613
    ??0USubActionGameSpeed@@QAE@ABV0@@Z @614
    ??0USubActionGameSpeed@@QAE@XZ @615
    ??0USubActionOrientation@@QAE@ABV0@@Z @616
    ??0USubActionOrientation@@QAE@XZ @617
    ??0USubActionSceneSpeed@@QAE@ABV0@@Z @618
    ??0USubActionSceneSpeed@@QAE@XZ @619
    ??0USubActionTrigger@@QAE@ABV0@@Z @620
    ??0USubActionTrigger@@QAE@XZ @621
    ??0UTerrainBrush@@QAE@ABV0@@Z @622
    ??0UTerrainBrush@@QAE@XZ @623
    ??0UTerrainBrushColor@@QAE@ABV0@@Z @624
    ??0UTerrainBrushColor@@QAE@XZ @625
    ??0UTerrainBrushEdgeTurn@@QAE@ABV0@@Z @626
    ??0UTerrainBrushEdgeTurn@@QAE@XZ @627
    ??0UTerrainBrushFlatten@@QAE@ABV0@@Z @628
    ??0UTerrainBrushFlatten@@QAE@XZ @629
    ??0UTerrainBrushNoise@@QAE@ABV0@@Z @630
    ??0UTerrainBrushNoise@@QAE@XZ @631
    ??0UTerrainBrushPaint@@QAE@ABV0@@Z @632
    ??0UTerrainBrushPaint@@QAE@XZ @633
    ??0UTerrainBrushPlanningPaint@@QAE@ABV0@@Z @634
    ??0UTerrainBrushPlanningPaint@@QAE@XZ @635
    ??0UTerrainBrushSelect@@QAE@ABV0@@Z @636
    ??0UTerrainBrushSelect@@QAE@XZ @637
    ??0UTerrainBrushSmooth@@QAE@ABV0@@Z @638
    ??0UTerrainBrushSmooth@@QAE@XZ @639
    ??0UTerrainBrushTexPan@@QAE@ABV0@@Z @640
    ??0UTerrainBrushTexPan@@QAE@XZ @641
    ??0UTerrainBrushTexRotate@@QAE@ABV0@@Z @642
    ??0UTerrainBrushTexRotate@@QAE@XZ @643
    ??0UTerrainBrushTexScale@@QAE@ABV0@@Z @644
    ??0UTerrainBrushTexScale@@QAE@XZ @645
    ??0UTerrainBrushVertexEdit@@QAE@ABV0@@Z @646
    ??0UTerrainBrushVertexEdit@@QAE@XZ @647
    ??0UTerrainBrushVisibility@@QAE@ABV0@@Z @648
    ??0UTerrainBrushVisibility@@QAE@XZ @649
    ??0UTerrainMaterial@@QAE@ABV0@@Z @650
    ??0UTerrainMaterial@@QAE@XZ @651
    ??0UTerrainPrimitive@@IAE@XZ @652
    ??0UTerrainPrimitive@@QAE@ABV0@@Z @653
    ??0UTerrainPrimitive@@QAE@PAVATerrainInfo@@@Z @654
    ??0UTerrainSector@@IAE@XZ @655
    ??0UTerrainSector@@QAE@ABV0@@Z @656
    ??0UTerrainSector@@QAE@PAVATerrainInfo@@HHHH@Z @657
    ??0UTexCoordMaterial@@QAE@ABV0@@Z @658
    ??0UTexCoordMaterial@@QAE@XZ @659
    ??0UTexCoordSource@@QAE@ABV0@@Z @660
    ??0UTexCoordSource@@QAE@XZ @661
    ??0UTexEnvMap@@QAE@ABV0@@Z @662
    ??0UTexEnvMap@@QAE@XZ @663
    ??0UTexMatrix@@QAE@ABV0@@Z @664
    ??0UTexMatrix@@QAE@XZ @665
    ??0UTexModifier@@QAE@ABV0@@Z @666
    ??0UTexModifier@@QAE@XZ @667
    ??0UTexOscillator@@QAE@ABV0@@Z @668
    ??0UTexOscillator@@QAE@XZ @669
    ??0UTexPanner@@QAE@ABV0@@Z @670
    ??0UTexPanner@@QAE@XZ @671
    ??0UTexRotator@@QAE@ABV0@@Z @672
    ??0UTexRotator@@QAE@XZ @673
    ??0UTexScaler@@QAE@ABV0@@Z @674
    ??0UTexScaler@@QAE@XZ @675
    ??0UTexture@@QAE@ABV0@@Z @676
    ??0UTexture@@QAE@XZ @677
    ??0UVertMesh@@QAE@ABV0@@Z @678
    ??0UVertMesh@@QAE@XZ @679
    ??0UVertMeshInstance@@QAE@ABV0@@Z @680
    ??0UVertMeshInstance@@QAE@XZ @681
    ??0UVertexBuffer@@QAE@ABV0@@Z @682
    ??0UVertexBuffer@@QAE@K@Z @683
    ??0UVertexBuffer@@QAE@XZ @684
    ??0UVertexColor@@IAE@XZ @685
    ??0UVertexColor@@QAE@ABV0@@Z @686
    ??0UVertexStreamBase@@QAE@ABV0@@Z @687
    ??0UVertexStreamBase@@QAE@HKK@Z @688
    ??0UVertexStreamCOLOR@@QAE@ABV0@@Z @689
    ??0UVertexStreamCOLOR@@QAE@K@Z @690
    ??0UVertexStreamCOLOR@@QAE@XZ @691
    ??0UVertexStreamPosNormTex@@QAE@ABV0@@Z @692
    ??0UVertexStreamPosNormTex@@QAE@K@Z @693
    ??0UVertexStreamPosNormTex@@QAE@XZ @694
    ??0UVertexStreamUV@@QAE@ABV0@@Z @695
    ??0UVertexStreamUV@@QAE@K@Z @696
    ??0UVertexStreamUV@@QAE@XZ @697
    ??0UVertexStreamVECTOR@@QAE@ABV0@@Z @698
    ??0UVertexStreamVECTOR@@QAE@K@Z @699
    ??0UVertexStreamVECTOR@@QAE@XZ @700
    ??0UViewport@@QAE@ABV0@@Z @701
    ??0UViewport@@QAE@XZ @702
    ??1?$TArray@E@@QAE@XZ @703
    ??1?$TLazyArray@E@@QAE@XZ @704
    ??1AAIController@@UAE@XZ @705
    ??1AAIMarker@@UAE@XZ @706
    ??1AAIScript@@UAE@XZ @707
    ??1AActor@@UAE@XZ @708
    ??1AActorManager@@UAE@XZ @709
    ??1AAntiPortalActor@@UAE@XZ @710
    ??1ABlockingVolume@@UAE@XZ @711
    ??1ABrush@@UAE@XZ @712
    ??1ACamera@@UAE@XZ @713
    ??1AClipMarker@@UAE@XZ @714
    ??1AController@@UAE@XZ @715
    ??1ADecoVolumeObject@@UAE@XZ @716
    ??1ADecorationList@@UAE@XZ @717
    ??1ADefaultPhysicsVolume@@UAE@XZ @718
    ??1ADoor@@UAE@XZ @719
    ??1AEmitter@@UAE@XZ @720
    ??1AFluidSurfaceInfo@@UAE@XZ @721
    ??1AFluidSurfaceOscillator@@UAE@XZ @722
    ??1AGameInfo@@UAE@XZ @723
    ??1AGameReplicationInfo@@UAE@XZ @724
    ??1AHUD@@UAE@XZ @725
    ??1AInfo@@UAE@XZ @726
    ??1AInternetInfo@@UAE@XZ @727
    ??1AInterpolationPoint@@UAE@XZ @728
    ??1AJumpDest@@UAE@XZ @729
    ??1AJumpPad@@UAE@XZ @730
    ??1AKActor@@UAE@XZ @731
    ??1AKBSJoint@@UAE@XZ @732
    ??1AKConeLimit@@UAE@XZ @733
    ??1AKConstraint@@UAE@XZ @734
    ??1AKHinge@@UAE@XZ @735
    ??1AKeypoint@@UAE@XZ @736
    ??1ALadder@@UAE@XZ @737
    ??1ALadderVolume@@UAE@XZ @738
    ??1ALevelInfo@@UAE@XZ @739
    ??1ALiftCenter@@UAE@XZ @740
    ??1ALiftExit@@UAE@XZ @741
    ??1ALight@@UAE@XZ @742
    ??1ALineOfSightTrigger@@UAE@XZ @743
    ??1ALookTarget@@UAE@XZ @744
    ??1AMapList@@UAE@XZ @745
    ??1AMover@@UAE@XZ @746
    ??1ANavigationPoint@@UAE@XZ @747
    ??1ANote@@UAE@XZ @748
    ??1APathNode@@UAE@XZ @749
    ??1APawn@@UAE@XZ @750
    ??1APhysicsVolume@@UAE@XZ @751
    ??1APlayerController@@UAE@XZ @752
    ??1APlayerReplicationInfo@@UAE@XZ @753
    ??1APlayerStart@@UAE@XZ @754
    ??1APolyMarker@@UAE@XZ @755
    ??1APotentialClimbWatcher@@UAE@XZ @756
    ??1AProjector@@UAE@XZ @757
    ??1AR6AbstractCircumstantialActionQuery@@UAE@XZ @758
    ??1AR6AbstractClimbableObj@@UAE@XZ @759
    ??1AR6ActionPointAbstract@@UAE@XZ @760
    ??1AR6ActionSpot@@UAE@XZ @761
    ??1AR6ColBox@@UAE@XZ @762
    ??1AR6Decal@@UAE@XZ @763
    ??1AR6DecalGroup@@UAE@XZ @764
    ??1AR6DecalManager@@UAE@XZ @765
    ??1AR6DecalsBase@@UAE@XZ @766
    ??1AR6EngineFirstPersonWeapon@@UAE@XZ @767
    ??1AR6EngineWeapon@@UAE@XZ @768
    ??1AR6FootStep@@UAE@XZ @769
    ??1AR6GlowLight@@UAE@XZ @770
    ??1AR6MapList@@UAE@XZ @771
    ??1AR6MorphMeshActor@@UAE@XZ @772
    ??1AR6PawnReplicationInfo@@UAE@XZ @773
    ??1AR6RainbowStartInfo@@UAE@XZ @774
    ??1AR6StartGameInfo@@UAE@XZ @775
    ??1AR6TeamStartInfo@@UAE@XZ @776
    ??1AR6WallHit@@UAE@XZ @777
    ??1AR6eviLTesting@@UAE@XZ @778
    ??1AReplicationInfo@@UAE@XZ @779
    ??1ASavedMove@@UAE@XZ @780
    ??1ASceneManager@@UAE@XZ @781
    ??1AScout@@UAE@XZ @782
    ??1ASkyZoneInfo@@UAE@XZ @783
    ??1ASmallNavigationPoint@@UAE@XZ @784
    ??1AStatLog@@UAE@XZ @785
    ??1AStatLogFile@@UAE@XZ @786
    ??1AStaticMeshActor@@UAE@XZ @787
    ??1ATeleporter@@UAE@XZ @788
    ??1ATerrainInfo@@UAE@XZ @789
    ??1ATrigger@@UAE@XZ @790
    ??1ATriggers@@UAE@XZ @791
    ??1AVolume@@UAE@XZ @792
    ??1AWarpZoneInfo@@UAE@XZ @793
    ??1AWarpZoneMarker@@UAE@XZ @794
    ??1AZoneInfo@@UAE@XZ @795
    ??1CBoneDescData@@QAE@XZ @796
    ??1FActorSceneNode@@UAE@XZ @797
    ??1FAnimMeshVertexStream@@QAE@XZ @798
    ??1FBezier@@UAE@XZ @799
    ??1FBspSection@@QAE@XZ @800
    ??1FBspVertexStream@@QAE@XZ @801
    ??1FCameraSceneNode@@UAE@XZ @802
    ??1FCanvasUtil@@QAE@XZ @803
    ??1FCollisionHash@@UAE@XZ @804
    ??1FCollisionOctree@@UAE@XZ @805
    ??1FConvexVolume@@QAE@XZ @806
    ??1FDbgVectorInfo@@QAE@XZ @807
    ??1FDirectionalLightMapSceneNode@@UAE@XZ @808
    ??1FDynamicActor@@QAE@XZ @809
    ??1FFontPage@@QAE@XZ @810
    ??1FInBunch@@UAE@XZ @811
    ??1FKAggregateGeom@@QAE@XZ @812
    ??1FKBoxElem@@QAE@XZ @813
    ??1FKConvexElem@@QAE@XZ @814
    ??1FKCylinderElem@@QAE@XZ @815
    ??1FKSphereElem@@QAE@XZ @816
    ??1FLevelSceneNode@@UAE@XZ @817
    ??1FLightMap@@QAE@XZ @818
    ??1FLightMapIndex@@QAE@XZ @819
    ??1FLightMapSceneNode@@UAE@XZ @820
    ??1FLightMapTexture@@QAE@XZ @821
    ??1FLineBatcher@@QAE@XZ @822
    ??1FMatineeTools@@UAE@XZ @823
    ??1FMipmap@@QAE@XZ @824
    ??1FMirrorSceneNode@@UAE@XZ @825
    ??1FOctreeNode@@QAE@XZ @826
    ??1FOutBunch@@UAE@XZ @827
    ??1FPointLightMapSceneNode@@UAE@XZ @828
    ??1FR6MatineePreviewProxy@@UAE@XZ @829
    ??1FRaw32BitIndexBuffer@@QAE@XZ @830
    ??1FRawColorStream@@QAE@XZ @831
    ??1FRawIndexBuffer@@QAE@XZ @832
    ??1FRebuildOptions@@QAE@XZ @833
    ??1FRebuildTools@@QAE@XZ @834
    ??1FSceneNode@@UAE@XZ @835
    ??1FSkinVertexStream@@QAE@XZ @836
    ??1FSkySceneNode@@UAE@XZ @837
    ??1FSoundData@@QAE@XZ @838
    ??1FStatGraph@@QAE@XZ @839
    ??1FStatGraphLine@@QAE@XZ @840
    ??1FStaticLightMapTexture@@QAE@XZ @841
    ??1FStaticMeshColorStream@@QAE@XZ @842
    ??1FStaticMeshUVStream@@QAE@XZ @843
    ??1FStaticMeshVertexStream@@QAE@XZ @844
    ??1FStats@@QAE@XZ @845
    ??1FTags@@QAE@XZ @846
    ??1FTempLineBatcher@@QAE@XZ @847
    ??1FTerrainMaterialLayer@@QAE@XZ @848
    ??1FTerrainTools@@UAE@XZ @849
    ??1FURL@@QAE@XZ @850
    ??1FWarpZoneSceneNode@@UAE@XZ @851
    ??1UActionMoveActor@@UAE@XZ @852
    ??1UActionMoveCamera@@UAE@XZ @853
    ??1UActionPause@@UAE@XZ @854
    ??1UActorChannel@@UAE@XZ @855
    ??1UAnimNotify@@UAE@XZ @856
    ??1UAnimNotify_DestroyEffect@@UAE@XZ @857
    ??1UAnimNotify_Effect@@UAE@XZ @858
    ??1UAnimNotify_MatSubAction@@UAE@XZ @859
    ??1UAnimNotify_Script@@UAE@XZ @860
    ??1UAnimNotify_Scripted@@UAE@XZ @861
    ??1UAnimNotify_Sound@@UAE@XZ @862
    ??1UAnimation@@UAE@XZ @863
    ??1UAudioSubsystem@@UAE@XZ @864
    ??1UBeamEmitter@@UAE@XZ @865
    ??1UBinaryFileDownload@@UAE@XZ @866
    ??1UBitmapMaterial@@UAE@XZ @867
    ??1UCameraEffect@@UAE@XZ @868
    ??1UCameraOverlay@@UAE@XZ @869
    ??1UCanvas@@UAE@XZ @870
    ??1UChannel@@UAE@XZ @871
    ??1UChannelDownload@@UAE@XZ @872
    ??1UCheatManager@@UAE@XZ @873
    ??1UClient@@UAE@XZ @874
    ??1UColorModifier@@UAE@XZ @875
    ??1UCombiner@@UAE@XZ @876
    ??1UConsole@@UAE@XZ @877
    ??1UConstantColor@@UAE@XZ @878
    ??1UConstantMaterial@@UAE@XZ @879
    ??1UControlChannel@@UAE@XZ @880
    ??1UConvexVolume@@UAE@XZ @881
    ??1UCubemap@@UAE@XZ @882
    ??1UDemoRecConnection@@UAE@XZ @883
    ??1UDemoRecDriver@@UAE@XZ @884
    ??1UDiffuseAttenuationMaterial@@UAE@XZ @885
    ??1UDownload@@UAE@XZ @886
    ??1UEngine@@UAE@XZ @887
    ??1UFadeColor@@UAE@XZ @888
    ??1UFileChannel@@UAE@XZ @889
    ??1UFinalBlend@@UAE@XZ @890
    ??1UFluidSurfacePrimitive@@UAE@XZ @891
    ??1UFont@@UAE@XZ @892
    ??1UGameEngine@@UAE@XZ @893
    ??1UI3DL2Listener@@UAE@XZ @894
    ??1UIndexBuffer@@UAE@XZ @895
    ??1UInput@@UAE@XZ @896
    ??1UInputPlanning@@UAE@XZ @897
    ??1UInteraction@@UAE@XZ @898
    ??1UInteractionMaster@@UAE@XZ @899
    ??1UInteractions@@UAE@XZ @900
    ??1UKMeshProps@@UAE@XZ @901
    ??1UKarmaParams@@UAE@XZ @902
    ??1UKarmaParamsCollision@@UAE@XZ @903
    ??1UKarmaParamsRBFull@@UAE@XZ @904
    ??1UKarmaParamsSkel@@UAE@XZ @905
    ??1ULevel@@UAE@XZ @906
    ??1ULevelBase@@UAE@XZ @907
    ??1ULevelSummary@@UAE@XZ @908
    ??1ULodMesh@@UAE@XZ @909
    ??1ULodMeshInstance@@UAE@XZ @910
    ??1UMatAction@@UAE@XZ @911
    ??1UMatObject@@UAE@XZ @912
    ??1UMatSubAction@@UAE@XZ @913
    ??1UMaterial@@UAE@XZ @914
    ??1UMaterialSwitch@@UAE@XZ @915
    ??1UMesh@@UAE@XZ @916
    ??1UMeshAnimation@@UAE@XZ @917
    ??1UMeshEmitter@@UAE@XZ @918
    ??1UMeshInstance@@UAE@XZ @919
    ??1UModel@@UAE@XZ @920
    ??1UModifier@@UAE@XZ @921
    ??1UMotionBlur@@UAE@XZ @922
    ??1UNetConnection@@UAE@XZ @923
    ??1UNetDriver@@UAE@XZ @924
    ??1UNullRenderDevice@@UAE@XZ @925
    ??1UOpacityModifier@@UAE@XZ @926
    ??1UPackageMapLevel@@UAE@XZ @927
    ??1UPalette@@UAE@XZ @928
    ??1UParticleEmitter@@UAE@XZ @929
    ??1UParticleMaterial@@UAE@XZ @930
    ??1UPlayer@@UAE@XZ @931
    ??1UPlayerInput@@UAE@XZ @932
    ??1UPolys@@UAE@XZ @933
    ??1UPrimitive@@UAE@XZ @934
    ??1UProjectorPrimitive@@UAE@XZ @935
    ??1UProxyBitmapMaterial@@UAE@XZ @936
    ??1UR6AbstractGameManager@@UAE@XZ @937
    ??1UR6AbstractPlanningInfo@@UAE@XZ @938
    ??1UR6AbstractTerroristMgr@@UAE@XZ @939
    ??1UR6FileManager@@UAE@XZ @940
    ??1UR6GameColors@@UAE@XZ @941
    ??1UR6GameMenuCom@@UAE@XZ @942
    ??1UR6GameOptions@@UAE@XZ @943
    ??1UR6MissionDescription@@UAE@XZ @944
    ??1UR6Mod@@UAE@XZ @945
    ??1UR6ModMgr@@UAE@XZ @946
    ??1UR6ServerInfo@@UAE@XZ @947
    ??1UReachSpec@@UAE@XZ @948
    ??1URenderDevice@@UAE@XZ @949
    ??1URenderResource@@UAE@XZ @950
    ??1URenderedMaterial@@UAE@XZ @951
    ??1UShader@@UAE@XZ @952
    ??1UShadowBitmapMaterial@@UAE@XZ @953
    ??1USkeletalMesh@@UAE@XZ @954
    ??1USkeletalMeshInstance@@UAE@XZ @955
    ??1USkinVertexBuffer@@UAE@XZ @956
    ??1USound@@UAE@XZ @957
    ??1USoundGen@@UAE@XZ @958
    ??1USparkEmitter@@UAE@XZ @959
    ??1USpriteEmitter@@UAE@XZ @960
    ??1UStaticMesh@@UAE@XZ @961
    ??1UStaticMeshInstance@@UAE@XZ @962
    ??1USubActionCameraEffect@@UAE@XZ @963
    ??1USubActionCameraShake@@UAE@XZ @964
    ??1USubActionFOV@@UAE@XZ @965
    ??1USubActionFade@@UAE@XZ @966
    ??1USubActionGameSpeed@@UAE@XZ @967
    ??1USubActionOrientation@@UAE@XZ @968
    ??1USubActionSceneSpeed@@UAE@XZ @969
    ??1USubActionTrigger@@UAE@XZ @970
    ??1UTerrainBrush@@UAE@XZ @971
    ??1UTerrainBrushColor@@UAE@XZ @972
    ??1UTerrainBrushEdgeTurn@@UAE@XZ @973
    ??1UTerrainBrushFlatten@@UAE@XZ @974
    ??1UTerrainBrushNoise@@UAE@XZ @975
    ??1UTerrainBrushPaint@@UAE@XZ @976
    ??1UTerrainBrushPlanningPaint@@UAE@XZ @977
    ??1UTerrainBrushSelect@@UAE@XZ @978
    ??1UTerrainBrushSmooth@@UAE@XZ @979
    ??1UTerrainBrushTexPan@@UAE@XZ @980
    ??1UTerrainBrushTexRotate@@UAE@XZ @981
    ??1UTerrainBrushTexScale@@UAE@XZ @982
    ??1UTerrainBrushVertexEdit@@UAE@XZ @983
    ??1UTerrainBrushVisibility@@UAE@XZ @984
    ??1UTerrainMaterial@@UAE@XZ @985
    ??1UTerrainPrimitive@@UAE@XZ @986
    ??1UTerrainSector@@UAE@XZ @987
    ??1UTexCoordMaterial@@UAE@XZ @988
    ??1UTexCoordSource@@UAE@XZ @989
    ??1UTexEnvMap@@UAE@XZ @990
    ??1UTexMatrix@@UAE@XZ @991
    ??1UTexModifier@@UAE@XZ @992
    ??1UTexOscillator@@UAE@XZ @993
    ??1UTexPanner@@UAE@XZ @994
    ??1UTexRotator@@UAE@XZ @995
    ??1UTexScaler@@UAE@XZ @996
    ??1UTexture@@UAE@XZ @997
    ??1UVertMesh@@UAE@XZ @998
    ??1UVertMeshInstance@@UAE@XZ @999
    ??1UVertexBuffer@@UAE@XZ @1000
    ??1UVertexColor@@UAE@XZ @1001
    ??1UVertexStreamBase@@UAE@XZ @1002
    ??1UVertexStreamCOLOR@@UAE@XZ @1003
    ??1UVertexStreamPosNormTex@@UAE@XZ @1004
    ??1UVertexStreamUV@@UAE@XZ @1005
    ??1UVertexStreamVECTOR@@UAE@XZ @1006
    ??1UViewport@@UAE@XZ @1007
    ??2AAIController@@SAPAXIPAVUObject@@VFName@@K@Z @1008
    ??2AAIController@@SAPAXIPAW4EInternal@@@Z @1009
    ??2AAIMarker@@SAPAXIPAVUObject@@VFName@@K@Z @1010
    ??2AAIMarker@@SAPAXIPAW4EInternal@@@Z @1011
    ??2AAIScript@@SAPAXIPAVUObject@@VFName@@K@Z @1012
    ??2AAIScript@@SAPAXIPAW4EInternal@@@Z @1013
    ??2AActor@@SAPAXIPAVUObject@@VFName@@K@Z @1014
    ??2AActor@@SAPAXIPAW4EInternal@@@Z @1015
    ??2AActorManager@@SAPAXIPAVUObject@@VFName@@K@Z @1016
    ??2AActorManager@@SAPAXIPAW4EInternal@@@Z @1017
    ??2AAntiPortalActor@@SAPAXIPAVUObject@@VFName@@K@Z @1018
    ??2AAntiPortalActor@@SAPAXIPAW4EInternal@@@Z @1019
    ??2ABlockingVolume@@SAPAXIPAVUObject@@VFName@@K@Z @1020
    ??2ABlockingVolume@@SAPAXIPAW4EInternal@@@Z @1021
    ??2ABrush@@SAPAXIPAVUObject@@VFName@@K@Z @1022
    ??2ABrush@@SAPAXIPAW4EInternal@@@Z @1023
    ??2ACamera@@SAPAXIPAVUObject@@VFName@@K@Z @1024
    ??2ACamera@@SAPAXIPAW4EInternal@@@Z @1025
    ??2AClipMarker@@SAPAXIPAVUObject@@VFName@@K@Z @1026
    ??2AClipMarker@@SAPAXIPAW4EInternal@@@Z @1027
    ??2AController@@SAPAXIPAVUObject@@VFName@@K@Z @1028
    ??2AController@@SAPAXIPAW4EInternal@@@Z @1029
    ??2ADecoVolumeObject@@SAPAXIPAVUObject@@VFName@@K@Z @1030
    ??2ADecoVolumeObject@@SAPAXIPAW4EInternal@@@Z @1031
    ??2ADecorationList@@SAPAXIPAVUObject@@VFName@@K@Z @1032
    ??2ADecorationList@@SAPAXIPAW4EInternal@@@Z @1033
    ??2ADefaultPhysicsVolume@@SAPAXIPAVUObject@@VFName@@K@Z @1034
    ??2ADefaultPhysicsVolume@@SAPAXIPAW4EInternal@@@Z @1035
    ??2ADoor@@SAPAXIPAVUObject@@VFName@@K@Z @1036
    ??2ADoor@@SAPAXIPAW4EInternal@@@Z @1037
    ??2AEmitter@@SAPAXIPAVUObject@@VFName@@K@Z @1038
    ??2AEmitter@@SAPAXIPAW4EInternal@@@Z @1039
    ??2AFluidSurfaceInfo@@SAPAXIPAVUObject@@VFName@@K@Z @1040
    ??2AFluidSurfaceInfo@@SAPAXIPAW4EInternal@@@Z @1041
    ??2AFluidSurfaceOscillator@@SAPAXIPAVUObject@@VFName@@K@Z @1042
    ??2AFluidSurfaceOscillator@@SAPAXIPAW4EInternal@@@Z @1043
    ??2AGameInfo@@SAPAXIPAVUObject@@VFName@@K@Z @1044
    ??2AGameInfo@@SAPAXIPAW4EInternal@@@Z @1045
    ??2AGameReplicationInfo@@SAPAXIPAVUObject@@VFName@@K@Z @1046
    ??2AGameReplicationInfo@@SAPAXIPAW4EInternal@@@Z @1047
    ??2AHUD@@SAPAXIPAVUObject@@VFName@@K@Z @1048
    ??2AHUD@@SAPAXIPAW4EInternal@@@Z @1049
    ??2AInfo@@SAPAXIPAVUObject@@VFName@@K@Z @1050
    ??2AInfo@@SAPAXIPAW4EInternal@@@Z @1051
    ??2AInternetInfo@@SAPAXIPAVUObject@@VFName@@K@Z @1052
    ??2AInternetInfo@@SAPAXIPAW4EInternal@@@Z @1053
    ??2AInterpolationPoint@@SAPAXIPAVUObject@@VFName@@K@Z @1054
    ??2AInterpolationPoint@@SAPAXIPAW4EInternal@@@Z @1055
    ??2AJumpDest@@SAPAXIPAVUObject@@VFName@@K@Z @1056
    ??2AJumpDest@@SAPAXIPAW4EInternal@@@Z @1057
    ??2AJumpPad@@SAPAXIPAVUObject@@VFName@@K@Z @1058
    ??2AJumpPad@@SAPAXIPAW4EInternal@@@Z @1059
    ??2AKActor@@SAPAXIPAVUObject@@VFName@@K@Z @1060
    ??2AKActor@@SAPAXIPAW4EInternal@@@Z @1061
    ??2AKBSJoint@@SAPAXIPAVUObject@@VFName@@K@Z @1062
    ??2AKBSJoint@@SAPAXIPAW4EInternal@@@Z @1063
    ??2AKConeLimit@@SAPAXIPAVUObject@@VFName@@K@Z @1064
    ??2AKConeLimit@@SAPAXIPAW4EInternal@@@Z @1065
    ??2AKConstraint@@SAPAXIPAVUObject@@VFName@@K@Z @1066
    ??2AKConstraint@@SAPAXIPAW4EInternal@@@Z @1067
    ??2AKHinge@@SAPAXIPAVUObject@@VFName@@K@Z @1068
    ??2AKHinge@@SAPAXIPAW4EInternal@@@Z @1069
    ??2AKeypoint@@SAPAXIPAVUObject@@VFName@@K@Z @1070
    ??2AKeypoint@@SAPAXIPAW4EInternal@@@Z @1071
    ??2ALadder@@SAPAXIPAVUObject@@VFName@@K@Z @1072
    ??2ALadder@@SAPAXIPAW4EInternal@@@Z @1073
    ??2ALadderVolume@@SAPAXIPAVUObject@@VFName@@K@Z @1074
    ??2ALadderVolume@@SAPAXIPAW4EInternal@@@Z @1075
    ??2ALevelInfo@@SAPAXIPAVUObject@@VFName@@K@Z @1076
    ??2ALevelInfo@@SAPAXIPAW4EInternal@@@Z @1077
    ??2ALiftCenter@@SAPAXIPAVUObject@@VFName@@K@Z @1078
    ??2ALiftCenter@@SAPAXIPAW4EInternal@@@Z @1079
    ??2ALiftExit@@SAPAXIPAVUObject@@VFName@@K@Z @1080
    ??2ALiftExit@@SAPAXIPAW4EInternal@@@Z @1081
    ??2ALight@@SAPAXIPAVUObject@@VFName@@K@Z @1082
    ??2ALight@@SAPAXIPAW4EInternal@@@Z @1083
    ??2ALineOfSightTrigger@@SAPAXIPAVUObject@@VFName@@K@Z @1084
    ??2ALineOfSightTrigger@@SAPAXIPAW4EInternal@@@Z @1085
    ??2ALookTarget@@SAPAXIPAVUObject@@VFName@@K@Z @1086
    ??2ALookTarget@@SAPAXIPAW4EInternal@@@Z @1087
    ??2AMapList@@SAPAXIPAVUObject@@VFName@@K@Z @1088
    ??2AMapList@@SAPAXIPAW4EInternal@@@Z @1089
    ??2AMover@@SAPAXIPAVUObject@@VFName@@K@Z @1090
    ??2AMover@@SAPAXIPAW4EInternal@@@Z @1091
    ??2ANavigationPoint@@SAPAXIPAVUObject@@VFName@@K@Z @1092
    ??2ANavigationPoint@@SAPAXIPAW4EInternal@@@Z @1093
    ??2ANote@@SAPAXIPAVUObject@@VFName@@K@Z @1094
    ??2ANote@@SAPAXIPAW4EInternal@@@Z @1095
    ??2APathNode@@SAPAXIPAVUObject@@VFName@@K@Z @1096
    ??2APathNode@@SAPAXIPAW4EInternal@@@Z @1097
    ??2APawn@@SAPAXIPAVUObject@@VFName@@K@Z @1098
    ??2APawn@@SAPAXIPAW4EInternal@@@Z @1099
    ??2APhysicsVolume@@SAPAXIPAVUObject@@VFName@@K@Z @1100
    ??2APhysicsVolume@@SAPAXIPAW4EInternal@@@Z @1101
    ??2APlayerController@@SAPAXIPAVUObject@@VFName@@K@Z @1102
    ??2APlayerController@@SAPAXIPAW4EInternal@@@Z @1103
    ??2APlayerReplicationInfo@@SAPAXIPAVUObject@@VFName@@K@Z @1104
    ??2APlayerReplicationInfo@@SAPAXIPAW4EInternal@@@Z @1105
    ??2APlayerStart@@SAPAXIPAVUObject@@VFName@@K@Z @1106
    ??2APlayerStart@@SAPAXIPAW4EInternal@@@Z @1107
    ??2APolyMarker@@SAPAXIPAVUObject@@VFName@@K@Z @1108
    ??2APolyMarker@@SAPAXIPAW4EInternal@@@Z @1109
    ??2APotentialClimbWatcher@@SAPAXIPAVUObject@@VFName@@K@Z @1110
    ??2APotentialClimbWatcher@@SAPAXIPAW4EInternal@@@Z @1111
    ??2AProjector@@SAPAXIPAVUObject@@VFName@@K@Z @1112
    ??2AProjector@@SAPAXIPAW4EInternal@@@Z @1113
    ??2AR6AbstractCircumstantialActionQuery@@SAPAXIPAVUObject@@VFName@@K@Z @1114
    ??2AR6AbstractCircumstantialActionQuery@@SAPAXIPAW4EInternal@@@Z @1115
    ; ??2AR6AbstractClimbableObj@@SAPAXIPAVUObject@@VFName@@K@Z @1116  ; header-only class — no dllexport, ordinal reserved
    ; ??2AR6AbstractClimbableObj@@SAPAXIPAW4EInternal@@@Z @1117  ; header-only class — no dllexport, ordinal reserved
    ??2AR6ActionPointAbstract@@SAPAXIPAVUObject@@VFName@@K@Z @1118
    ??2AR6ActionPointAbstract@@SAPAXIPAW4EInternal@@@Z @1119
    ??2AR6ActionSpot@@SAPAXIPAVUObject@@VFName@@K@Z @1120
    ??2AR6ActionSpot@@SAPAXIPAW4EInternal@@@Z @1121
    ??2AR6ColBox@@SAPAXIPAVUObject@@VFName@@K@Z @1122
    ??2AR6ColBox@@SAPAXIPAW4EInternal@@@Z @1123
    ??2AR6Decal@@SAPAXIPAVUObject@@VFName@@K@Z @1124
    ??2AR6Decal@@SAPAXIPAW4EInternal@@@Z @1125
    ??2AR6DecalGroup@@SAPAXIPAVUObject@@VFName@@K@Z @1126
    ??2AR6DecalGroup@@SAPAXIPAW4EInternal@@@Z @1127
    ??2AR6DecalManager@@SAPAXIPAVUObject@@VFName@@K@Z @1128
    ??2AR6DecalManager@@SAPAXIPAW4EInternal@@@Z @1129
    ??2AR6DecalsBase@@SAPAXIPAVUObject@@VFName@@K@Z @1130
    ??2AR6DecalsBase@@SAPAXIPAW4EInternal@@@Z @1131
    ??2AR6EngineFirstPersonWeapon@@SAPAXIPAVUObject@@VFName@@K@Z @1132
    ??2AR6EngineFirstPersonWeapon@@SAPAXIPAW4EInternal@@@Z @1133
    ??2AR6EngineWeapon@@SAPAXIPAVUObject@@VFName@@K@Z @1134
    ??2AR6EngineWeapon@@SAPAXIPAW4EInternal@@@Z @1135
    ??2AR6FootStep@@SAPAXIPAVUObject@@VFName@@K@Z @1136
    ??2AR6FootStep@@SAPAXIPAW4EInternal@@@Z @1137
    ??2AR6GlowLight@@SAPAXIPAVUObject@@VFName@@K@Z @1138
    ??2AR6GlowLight@@SAPAXIPAW4EInternal@@@Z @1139
    ??2AR6MapList@@SAPAXIPAVUObject@@VFName@@K@Z @1140
    ??2AR6MapList@@SAPAXIPAW4EInternal@@@Z @1141
    ??2AR6MorphMeshActor@@SAPAXIPAVUObject@@VFName@@K@Z @1142
    ??2AR6MorphMeshActor@@SAPAXIPAW4EInternal@@@Z @1143
    ??2AR6PawnReplicationInfo@@SAPAXIPAVUObject@@VFName@@K@Z @1144
    ??2AR6PawnReplicationInfo@@SAPAXIPAW4EInternal@@@Z @1145
    ??2AR6RainbowStartInfo@@SAPAXIPAVUObject@@VFName@@K@Z @1146
    ??2AR6RainbowStartInfo@@SAPAXIPAW4EInternal@@@Z @1147
    ??2AR6StartGameInfo@@SAPAXIPAVUObject@@VFName@@K@Z @1148
    ??2AR6StartGameInfo@@SAPAXIPAW4EInternal@@@Z @1149
    ??2AR6TeamStartInfo@@SAPAXIPAVUObject@@VFName@@K@Z @1150
    ??2AR6TeamStartInfo@@SAPAXIPAW4EInternal@@@Z @1151
    ??2AR6WallHit@@SAPAXIPAVUObject@@VFName@@K@Z @1152
    ??2AR6WallHit@@SAPAXIPAW4EInternal@@@Z @1153
    ??2AR6eviLTesting@@SAPAXIPAVUObject@@VFName@@K@Z @1154
    ??2AR6eviLTesting@@SAPAXIPAW4EInternal@@@Z @1155
    ??2AReplicationInfo@@SAPAXIPAVUObject@@VFName@@K@Z @1156
    ??2AReplicationInfo@@SAPAXIPAW4EInternal@@@Z @1157
    ??2ASavedMove@@SAPAXIPAVUObject@@VFName@@K@Z @1158
    ??2ASavedMove@@SAPAXIPAW4EInternal@@@Z @1159
    ??2ASceneManager@@SAPAXIPAVUObject@@VFName@@K@Z @1160
    ??2ASceneManager@@SAPAXIPAW4EInternal@@@Z @1161
    ??2AScout@@SAPAXIPAVUObject@@VFName@@K@Z @1162
    ??2AScout@@SAPAXIPAW4EInternal@@@Z @1163
    ??2ASkyZoneInfo@@SAPAXIPAVUObject@@VFName@@K@Z @1164
    ??2ASkyZoneInfo@@SAPAXIPAW4EInternal@@@Z @1165
    ??2ASmallNavigationPoint@@SAPAXIPAVUObject@@VFName@@K@Z @1166
    ??2ASmallNavigationPoint@@SAPAXIPAW4EInternal@@@Z @1167
    ??2AStatLog@@SAPAXIPAVUObject@@VFName@@K@Z @1168
    ??2AStatLog@@SAPAXIPAW4EInternal@@@Z @1169
    ??2AStatLogFile@@SAPAXIPAVUObject@@VFName@@K@Z @1170
    ??2AStatLogFile@@SAPAXIPAW4EInternal@@@Z @1171
    ??2AStaticMeshActor@@SAPAXIPAVUObject@@VFName@@K@Z @1172
    ??2AStaticMeshActor@@SAPAXIPAW4EInternal@@@Z @1173
    ??2ATeleporter@@SAPAXIPAVUObject@@VFName@@K@Z @1174
    ??2ATeleporter@@SAPAXIPAW4EInternal@@@Z @1175
    ??2ATerrainInfo@@SAPAXIPAVUObject@@VFName@@K@Z @1176
    ??2ATerrainInfo@@SAPAXIPAW4EInternal@@@Z @1177
    ??2ATrigger@@SAPAXIPAVUObject@@VFName@@K@Z @1178
    ??2ATrigger@@SAPAXIPAW4EInternal@@@Z @1179
    ??2ATriggers@@SAPAXIPAVUObject@@VFName@@K@Z @1180
    ??2ATriggers@@SAPAXIPAW4EInternal@@@Z @1181
    ??2AVolume@@SAPAXIPAVUObject@@VFName@@K@Z @1182
    ??2AVolume@@SAPAXIPAW4EInternal@@@Z @1183
    ??2AWarpZoneInfo@@SAPAXIPAVUObject@@VFName@@K@Z @1184
    ??2AWarpZoneInfo@@SAPAXIPAW4EInternal@@@Z @1185
    ??2AWarpZoneMarker@@SAPAXIPAVUObject@@VFName@@K@Z @1186
    ??2AWarpZoneMarker@@SAPAXIPAW4EInternal@@@Z @1187
    ??2AZoneInfo@@SAPAXIPAVUObject@@VFName@@K@Z @1188
    ??2AZoneInfo@@SAPAXIPAW4EInternal@@@Z @1189
    ??2UActionMoveActor@@SAPAXIPAVUObject@@VFName@@K@Z @1190
    ??2UActionMoveActor@@SAPAXIPAW4EInternal@@@Z @1191
    ??2UActionMoveCamera@@SAPAXIPAVUObject@@VFName@@K@Z @1192
    ??2UActionMoveCamera@@SAPAXIPAW4EInternal@@@Z @1193
    ??2UActionPause@@SAPAXIPAVUObject@@VFName@@K@Z @1194
    ??2UActionPause@@SAPAXIPAW4EInternal@@@Z @1195
    ??2UActorChannel@@SAPAXIPAVUObject@@VFName@@K@Z @1196
    ??2UActorChannel@@SAPAXIPAW4EInternal@@@Z @1197
    ??2UAnimNotify@@SAPAXIPAVUObject@@VFName@@K@Z @1198
    ??2UAnimNotify@@SAPAXIPAW4EInternal@@@Z @1199
    ??2UAnimNotify_DestroyEffect@@SAPAXIPAVUObject@@VFName@@K@Z @1200
    ??2UAnimNotify_DestroyEffect@@SAPAXIPAW4EInternal@@@Z @1201
    ??2UAnimNotify_Effect@@SAPAXIPAVUObject@@VFName@@K@Z @1202
    ??2UAnimNotify_Effect@@SAPAXIPAW4EInternal@@@Z @1203
    ??2UAnimNotify_MatSubAction@@SAPAXIPAVUObject@@VFName@@K@Z @1204
    ??2UAnimNotify_MatSubAction@@SAPAXIPAW4EInternal@@@Z @1205
    ??2UAnimNotify_Script@@SAPAXIPAVUObject@@VFName@@K@Z @1206
    ??2UAnimNotify_Script@@SAPAXIPAW4EInternal@@@Z @1207
    ??2UAnimNotify_Scripted@@SAPAXIPAVUObject@@VFName@@K@Z @1208
    ??2UAnimNotify_Scripted@@SAPAXIPAW4EInternal@@@Z @1209
    ??2UAnimNotify_Sound@@SAPAXIPAVUObject@@VFName@@K@Z @1210
    ??2UAnimNotify_Sound@@SAPAXIPAW4EInternal@@@Z @1211
    ??2UAnimation@@SAPAXIPAVUObject@@VFName@@K@Z @1212
    ??2UAnimation@@SAPAXIPAW4EInternal@@@Z @1213
    ??2UAudioSubsystem@@SAPAXIPAVUObject@@VFName@@K@Z @1214
    ??2UAudioSubsystem@@SAPAXIPAW4EInternal@@@Z @1215
    ??2UBeamEmitter@@SAPAXIPAVUObject@@VFName@@K@Z @1216
    ??2UBeamEmitter@@SAPAXIPAW4EInternal@@@Z @1217
    ??2UBinaryFileDownload@@SAPAXIPAVUObject@@VFName@@K@Z @1218
    ??2UBinaryFileDownload@@SAPAXIPAW4EInternal@@@Z @1219
    ??2UBitmapMaterial@@SAPAXIPAVUObject@@VFName@@K@Z @1220
    ??2UBitmapMaterial@@SAPAXIPAW4EInternal@@@Z @1221
    ??2UCameraEffect@@SAPAXIPAVUObject@@VFName@@K@Z @1222
    ??2UCameraEffect@@SAPAXIPAW4EInternal@@@Z @1223
    ??2UCameraOverlay@@SAPAXIPAVUObject@@VFName@@K@Z @1224
    ??2UCameraOverlay@@SAPAXIPAW4EInternal@@@Z @1225
    ??2UCanvas@@SAPAXIPAVUObject@@VFName@@K@Z @1226
    ??2UCanvas@@SAPAXIPAW4EInternal@@@Z @1227
    ??2UChannel@@SAPAXIPAVUObject@@VFName@@K@Z @1228
    ??2UChannel@@SAPAXIPAW4EInternal@@@Z @1229
    ??2UChannelDownload@@SAPAXIPAVUObject@@VFName@@K@Z @1230
    ??2UChannelDownload@@SAPAXIPAW4EInternal@@@Z @1231
    ??2UCheatManager@@SAPAXIPAVUObject@@VFName@@K@Z @1232
    ??2UCheatManager@@SAPAXIPAW4EInternal@@@Z @1233
    ??2UClient@@SAPAXIPAVUObject@@VFName@@K@Z @1234
    ??2UClient@@SAPAXIPAW4EInternal@@@Z @1235
    ??2UColorModifier@@SAPAXIPAVUObject@@VFName@@K@Z @1236
    ??2UColorModifier@@SAPAXIPAW4EInternal@@@Z @1237
    ??2UCombiner@@SAPAXIPAVUObject@@VFName@@K@Z @1238
    ??2UCombiner@@SAPAXIPAW4EInternal@@@Z @1239
    ??2UConsole@@SAPAXIPAVUObject@@VFName@@K@Z @1240
    ??2UConsole@@SAPAXIPAW4EInternal@@@Z @1241
    ??2UConstantColor@@SAPAXIPAVUObject@@VFName@@K@Z @1242
    ??2UConstantColor@@SAPAXIPAW4EInternal@@@Z @1243
    ??2UConstantMaterial@@SAPAXIPAVUObject@@VFName@@K@Z @1244
    ??2UConstantMaterial@@SAPAXIPAW4EInternal@@@Z @1245
    ??2UControlChannel@@SAPAXIPAVUObject@@VFName@@K@Z @1246
    ??2UControlChannel@@SAPAXIPAW4EInternal@@@Z @1247
    ??2UConvexVolume@@SAPAXIPAVUObject@@VFName@@K@Z @1248
    ??2UConvexVolume@@SAPAXIPAW4EInternal@@@Z @1249
    ??2UCubemap@@SAPAXIPAVUObject@@VFName@@K@Z @1250
    ??2UCubemap@@SAPAXIPAW4EInternal@@@Z @1251
    ??2UDemoRecConnection@@SAPAXIPAVUObject@@VFName@@K@Z @1252
    ??2UDemoRecConnection@@SAPAXIPAW4EInternal@@@Z @1253
    ??2UDemoRecDriver@@SAPAXIPAVUObject@@VFName@@K@Z @1254
    ??2UDemoRecDriver@@SAPAXIPAW4EInternal@@@Z @1255
    ??2UDiffuseAttenuationMaterial@@SAPAXIPAVUObject@@VFName@@K@Z @1256
    ??2UDiffuseAttenuationMaterial@@SAPAXIPAW4EInternal@@@Z @1257
    ??2UDownload@@SAPAXIPAVUObject@@VFName@@K@Z @1258
    ??2UDownload@@SAPAXIPAW4EInternal@@@Z @1259
    ??2UEngine@@SAPAXIPAVUObject@@VFName@@K@Z @1260
    ??2UEngine@@SAPAXIPAW4EInternal@@@Z @1261
    ??2UFadeColor@@SAPAXIPAVUObject@@VFName@@K@Z @1262
    ??2UFadeColor@@SAPAXIPAW4EInternal@@@Z @1263
    ??2UFileChannel@@SAPAXIPAVUObject@@VFName@@K@Z @1264
    ??2UFileChannel@@SAPAXIPAW4EInternal@@@Z @1265
    ??2UFinalBlend@@SAPAXIPAVUObject@@VFName@@K@Z @1266
    ??2UFinalBlend@@SAPAXIPAW4EInternal@@@Z @1267
    ??2UFluidSurfacePrimitive@@SAPAXIPAVUObject@@VFName@@K@Z @1268
    ??2UFluidSurfacePrimitive@@SAPAXIPAW4EInternal@@@Z @1269
    ??2UFont@@SAPAXIPAVUObject@@VFName@@K@Z @1270
    ??2UFont@@SAPAXIPAW4EInternal@@@Z @1271
    ??2UGameEngine@@SAPAXIPAVUObject@@VFName@@K@Z @1272
    ??2UGameEngine@@SAPAXIPAW4EInternal@@@Z @1273
    ??2UI3DL2Listener@@SAPAXIPAVUObject@@VFName@@K@Z @1274
    ??2UI3DL2Listener@@SAPAXIPAW4EInternal@@@Z @1275
    ??2UIndexBuffer@@SAPAXIPAVUObject@@VFName@@K@Z @1276
    ??2UIndexBuffer@@SAPAXIPAW4EInternal@@@Z @1277
    ??2UInput@@SAPAXIPAVUObject@@VFName@@K@Z @1278
    ??2UInput@@SAPAXIPAW4EInternal@@@Z @1279
    ??2UInputPlanning@@SAPAXIPAVUObject@@VFName@@K@Z @1280
    ??2UInputPlanning@@SAPAXIPAW4EInternal@@@Z @1281
    ??2UInteraction@@SAPAXIPAVUObject@@VFName@@K@Z @1282
    ??2UInteraction@@SAPAXIPAW4EInternal@@@Z @1283
    ??2UInteractionMaster@@SAPAXIPAVUObject@@VFName@@K@Z @1284
    ??2UInteractionMaster@@SAPAXIPAW4EInternal@@@Z @1285
    ??2UInteractions@@SAPAXIPAVUObject@@VFName@@K@Z @1286
    ??2UInteractions@@SAPAXIPAW4EInternal@@@Z @1287
    ??2UKMeshProps@@SAPAXIPAVUObject@@VFName@@K@Z @1288
    ??2UKMeshProps@@SAPAXIPAW4EInternal@@@Z @1289
    ??2UKarmaParams@@SAPAXIPAVUObject@@VFName@@K@Z @1290
    ??2UKarmaParams@@SAPAXIPAW4EInternal@@@Z @1291
    ??2UKarmaParamsCollision@@SAPAXIPAVUObject@@VFName@@K@Z @1292
    ??2UKarmaParamsCollision@@SAPAXIPAW4EInternal@@@Z @1293
    ??2UKarmaParamsRBFull@@SAPAXIPAVUObject@@VFName@@K@Z @1294
    ??2UKarmaParamsRBFull@@SAPAXIPAW4EInternal@@@Z @1295
    ??2UKarmaParamsSkel@@SAPAXIPAVUObject@@VFName@@K@Z @1296
    ??2UKarmaParamsSkel@@SAPAXIPAW4EInternal@@@Z @1297
    ??2ULevel@@SAPAXIPAVUObject@@VFName@@K@Z @1298
    ??2ULevel@@SAPAXIPAW4EInternal@@@Z @1299
    ??2ULevelBase@@SAPAXIPAVUObject@@VFName@@K@Z @1300
    ??2ULevelBase@@SAPAXIPAW4EInternal@@@Z @1301
    ??2ULevelSummary@@SAPAXIPAVUObject@@VFName@@K@Z @1302
    ??2ULevelSummary@@SAPAXIPAW4EInternal@@@Z @1303
    ??2ULodMesh@@SAPAXIPAVUObject@@VFName@@K@Z @1304
    ??2ULodMesh@@SAPAXIPAW4EInternal@@@Z @1305
    ??2ULodMeshInstance@@SAPAXIPAVUObject@@VFName@@K@Z @1306
    ??2ULodMeshInstance@@SAPAXIPAW4EInternal@@@Z @1307
    ??2UMatAction@@SAPAXIPAVUObject@@VFName@@K@Z @1308
    ??2UMatAction@@SAPAXIPAW4EInternal@@@Z @1309
    ??2UMatObject@@SAPAXIPAVUObject@@VFName@@K@Z @1310
    ??2UMatObject@@SAPAXIPAW4EInternal@@@Z @1311
    ??2UMatSubAction@@SAPAXIPAVUObject@@VFName@@K@Z @1312
    ??2UMatSubAction@@SAPAXIPAW4EInternal@@@Z @1313
    ??2UMaterial@@SAPAXIPAVUObject@@VFName@@K@Z @1314
    ??2UMaterial@@SAPAXIPAW4EInternal@@@Z @1315
    ??2UMaterialSwitch@@SAPAXIPAVUObject@@VFName@@K@Z @1316
    ??2UMaterialSwitch@@SAPAXIPAW4EInternal@@@Z @1317
    ??2UMesh@@SAPAXIPAVUObject@@VFName@@K@Z @1318
    ??2UMesh@@SAPAXIPAW4EInternal@@@Z @1319
    ??2UMeshAnimation@@SAPAXIPAVUObject@@VFName@@K@Z @1320
    ??2UMeshAnimation@@SAPAXIPAW4EInternal@@@Z @1321
    ??2UMeshEmitter@@SAPAXIPAVUObject@@VFName@@K@Z @1322
    ??2UMeshEmitter@@SAPAXIPAW4EInternal@@@Z @1323
    ??2UMeshInstance@@SAPAXIPAVUObject@@VFName@@K@Z @1324
    ??2UMeshInstance@@SAPAXIPAW4EInternal@@@Z @1325
    ??2UModel@@SAPAXIPAVUObject@@VFName@@K@Z @1326
    ??2UModel@@SAPAXIPAW4EInternal@@@Z @1327
    ??2UModifier@@SAPAXIPAVUObject@@VFName@@K@Z @1328
    ??2UModifier@@SAPAXIPAW4EInternal@@@Z @1329
    ??2UMotionBlur@@SAPAXIPAVUObject@@VFName@@K@Z @1330
    ??2UMotionBlur@@SAPAXIPAW4EInternal@@@Z @1331
    ??2UNetConnection@@SAPAXIPAVUObject@@VFName@@K@Z @1332
    ??2UNetConnection@@SAPAXIPAW4EInternal@@@Z @1333
    ??2UNetDriver@@SAPAXIPAVUObject@@VFName@@K@Z @1334
    ??2UNetDriver@@SAPAXIPAW4EInternal@@@Z @1335
    ??2UNullRenderDevice@@SAPAXIPAVUObject@@VFName@@K@Z @1336
    ??2UNullRenderDevice@@SAPAXIPAW4EInternal@@@Z @1337
    ??2UOpacityModifier@@SAPAXIPAVUObject@@VFName@@K@Z @1338
    ??2UOpacityModifier@@SAPAXIPAW4EInternal@@@Z @1339
    ??2UPackageMapLevel@@SAPAXIPAVUObject@@VFName@@K@Z @1340
    ??2UPackageMapLevel@@SAPAXIPAW4EInternal@@@Z @1341
    ??2UPalette@@SAPAXIPAVUObject@@VFName@@K@Z @1342
    ??2UPalette@@SAPAXIPAW4EInternal@@@Z @1343
    ??2UParticleEmitter@@SAPAXIPAVUObject@@VFName@@K@Z @1344
    ??2UParticleEmitter@@SAPAXIPAW4EInternal@@@Z @1345
    ??2UParticleMaterial@@SAPAXIPAVUObject@@VFName@@K@Z @1346
    ??2UParticleMaterial@@SAPAXIPAW4EInternal@@@Z @1347
    ??2UPlayer@@SAPAXIPAVUObject@@VFName@@K@Z @1348
    ??2UPlayer@@SAPAXIPAW4EInternal@@@Z @1349
    ??2UPlayerInput@@SAPAXIPAVUObject@@VFName@@K@Z @1350
    ??2UPlayerInput@@SAPAXIPAW4EInternal@@@Z @1351
    ??2UPolys@@SAPAXIPAVUObject@@VFName@@K@Z @1352
    ??2UPolys@@SAPAXIPAW4EInternal@@@Z @1353
    ??2UPrimitive@@SAPAXIPAVUObject@@VFName@@K@Z @1354
    ??2UPrimitive@@SAPAXIPAW4EInternal@@@Z @1355
    ??2UProjectorPrimitive@@SAPAXIPAVUObject@@VFName@@K@Z @1356
    ??2UProjectorPrimitive@@SAPAXIPAW4EInternal@@@Z @1357
    ??2UProxyBitmapMaterial@@SAPAXIPAVUObject@@VFName@@K@Z @1358
    ??2UProxyBitmapMaterial@@SAPAXIPAW4EInternal@@@Z @1359
    ??2UR6AbstractGameManager@@SAPAXIPAVUObject@@VFName@@K@Z @1360
    ??2UR6AbstractGameManager@@SAPAXIPAW4EInternal@@@Z @1361
    ??2UR6AbstractPlanningInfo@@SAPAXIPAVUObject@@VFName@@K@Z @1362
    ??2UR6AbstractPlanningInfo@@SAPAXIPAW4EInternal@@@Z @1363
    ; ??2UR6AbstractTerroristMgr@@SAPAXIPAVUObject@@VFName@@K@Z @1364  ; header-only class — no dllexport, ordinal reserved
    ; ??2UR6AbstractTerroristMgr@@SAPAXIPAW4EInternal@@@Z @1365  ; header-only class — no dllexport, ordinal reserved
    ??2UR6FileManager@@SAPAXIPAVUObject@@VFName@@K@Z @1366
    ??2UR6FileManager@@SAPAXIPAW4EInternal@@@Z @1367
    ??2UR6GameColors@@SAPAXIPAVUObject@@VFName@@K@Z @1368
    ??2UR6GameColors@@SAPAXIPAW4EInternal@@@Z @1369
    ??2UR6GameMenuCom@@SAPAXIPAVUObject@@VFName@@K@Z @1370
    ??2UR6GameMenuCom@@SAPAXIPAW4EInternal@@@Z @1371
    ??2UR6GameOptions@@SAPAXIPAVUObject@@VFName@@K@Z @1372
    ??2UR6GameOptions@@SAPAXIPAW4EInternal@@@Z @1373
    ??2UR6MissionDescription@@SAPAXIPAVUObject@@VFName@@K@Z @1374
    ??2UR6MissionDescription@@SAPAXIPAW4EInternal@@@Z @1375
    ??2UR6Mod@@SAPAXIPAVUObject@@VFName@@K@Z @1376
    ??2UR6Mod@@SAPAXIPAW4EInternal@@@Z @1377
    ??2UR6ModMgr@@SAPAXIPAVUObject@@VFName@@K@Z @1378
    ??2UR6ModMgr@@SAPAXIPAW4EInternal@@@Z @1379
    ??2UR6ServerInfo@@SAPAXIPAVUObject@@VFName@@K@Z @1380
    ??2UR6ServerInfo@@SAPAXIPAW4EInternal@@@Z @1381
    ??2UReachSpec@@SAPAXIPAVUObject@@VFName@@K@Z @1382
    ??2UReachSpec@@SAPAXIPAW4EInternal@@@Z @1383
    ??2URenderDevice@@SAPAXIPAVUObject@@VFName@@K@Z @1384
    ??2URenderDevice@@SAPAXIPAW4EInternal@@@Z @1385
    ??2URenderResource@@SAPAXIPAVUObject@@VFName@@K@Z @1386
    ??2URenderResource@@SAPAXIPAW4EInternal@@@Z @1387
    ??2URenderedMaterial@@SAPAXIPAVUObject@@VFName@@K@Z @1388
    ??2URenderedMaterial@@SAPAXIPAW4EInternal@@@Z @1389
    ??2UShader@@SAPAXIPAVUObject@@VFName@@K@Z @1390
    ??2UShader@@SAPAXIPAW4EInternal@@@Z @1391
    ??2UShadowBitmapMaterial@@SAPAXIPAVUObject@@VFName@@K@Z @1392
    ??2UShadowBitmapMaterial@@SAPAXIPAW4EInternal@@@Z @1393
    ??2USkeletalMesh@@SAPAXIPAVUObject@@VFName@@K@Z @1394
    ??2USkeletalMesh@@SAPAXIPAW4EInternal@@@Z @1395
    ??2USkeletalMeshInstance@@SAPAXIPAVUObject@@VFName@@K@Z @1396
    ??2USkeletalMeshInstance@@SAPAXIPAW4EInternal@@@Z @1397
    ??2USkinVertexBuffer@@SAPAXIPAVUObject@@VFName@@K@Z @1398
    ??2USkinVertexBuffer@@SAPAXIPAW4EInternal@@@Z @1399
    ??2USound@@SAPAXIPAVUObject@@VFName@@K@Z @1400
    ??2USound@@SAPAXIPAW4EInternal@@@Z @1401
    ??2USoundGen@@SAPAXIPAVUObject@@VFName@@K@Z @1402
    ??2USoundGen@@SAPAXIPAW4EInternal@@@Z @1403
    ??2USparkEmitter@@SAPAXIPAVUObject@@VFName@@K@Z @1404
    ??2USparkEmitter@@SAPAXIPAW4EInternal@@@Z @1405
    ??2USpriteEmitter@@SAPAXIPAVUObject@@VFName@@K@Z @1406
    ??2USpriteEmitter@@SAPAXIPAW4EInternal@@@Z @1407
    ??2UStaticMesh@@SAPAXIPAVUObject@@VFName@@K@Z @1408
    ??2UStaticMesh@@SAPAXIPAW4EInternal@@@Z @1409
    ??2UStaticMeshInstance@@SAPAXIPAVUObject@@VFName@@K@Z @1410
    ??2UStaticMeshInstance@@SAPAXIPAW4EInternal@@@Z @1411
    ??2USubActionCameraEffect@@SAPAXIPAVUObject@@VFName@@K@Z @1412
    ??2USubActionCameraEffect@@SAPAXIPAW4EInternal@@@Z @1413
    ??2USubActionCameraShake@@SAPAXIPAVUObject@@VFName@@K@Z @1414
    ??2USubActionCameraShake@@SAPAXIPAW4EInternal@@@Z @1415
    ??2USubActionFOV@@SAPAXIPAVUObject@@VFName@@K@Z @1416
    ??2USubActionFOV@@SAPAXIPAW4EInternal@@@Z @1417
    ??2USubActionFade@@SAPAXIPAVUObject@@VFName@@K@Z @1418
    ??2USubActionFade@@SAPAXIPAW4EInternal@@@Z @1419
    ??2USubActionGameSpeed@@SAPAXIPAVUObject@@VFName@@K@Z @1420
    ??2USubActionGameSpeed@@SAPAXIPAW4EInternal@@@Z @1421
    ??2USubActionOrientation@@SAPAXIPAVUObject@@VFName@@K@Z @1422
    ??2USubActionOrientation@@SAPAXIPAW4EInternal@@@Z @1423
    ??2USubActionSceneSpeed@@SAPAXIPAVUObject@@VFName@@K@Z @1424
    ??2USubActionSceneSpeed@@SAPAXIPAW4EInternal@@@Z @1425
    ??2USubActionTrigger@@SAPAXIPAVUObject@@VFName@@K@Z @1426
    ??2USubActionTrigger@@SAPAXIPAW4EInternal@@@Z @1427
    ??2UTerrainMaterial@@SAPAXIPAVUObject@@VFName@@K@Z @1428
    ??2UTerrainMaterial@@SAPAXIPAW4EInternal@@@Z @1429
    ??2UTerrainPrimitive@@SAPAXIPAVUObject@@VFName@@K@Z @1430
    ??2UTerrainPrimitive@@SAPAXIPAW4EInternal@@@Z @1431
    ??2UTerrainSector@@SAPAXIPAVUObject@@VFName@@K@Z @1432
    ??2UTerrainSector@@SAPAXIPAW4EInternal@@@Z @1433
    ??2UTexCoordMaterial@@SAPAXIPAVUObject@@VFName@@K@Z @1434
    ??2UTexCoordMaterial@@SAPAXIPAW4EInternal@@@Z @1435
    ??2UTexCoordSource@@SAPAXIPAVUObject@@VFName@@K@Z @1436
    ??2UTexCoordSource@@SAPAXIPAW4EInternal@@@Z @1437
    ??2UTexEnvMap@@SAPAXIPAVUObject@@VFName@@K@Z @1438
    ??2UTexEnvMap@@SAPAXIPAW4EInternal@@@Z @1439
    ??2UTexMatrix@@SAPAXIPAVUObject@@VFName@@K@Z @1440
    ??2UTexMatrix@@SAPAXIPAW4EInternal@@@Z @1441
    ??2UTexModifier@@SAPAXIPAVUObject@@VFName@@K@Z @1442
    ??2UTexModifier@@SAPAXIPAW4EInternal@@@Z @1443
    ??2UTexOscillator@@SAPAXIPAVUObject@@VFName@@K@Z @1444
    ??2UTexOscillator@@SAPAXIPAW4EInternal@@@Z @1445
    ??2UTexPanner@@SAPAXIPAVUObject@@VFName@@K@Z @1446
    ??2UTexPanner@@SAPAXIPAW4EInternal@@@Z @1447
    ??2UTexRotator@@SAPAXIPAVUObject@@VFName@@K@Z @1448
    ??2UTexRotator@@SAPAXIPAW4EInternal@@@Z @1449
    ??2UTexScaler@@SAPAXIPAVUObject@@VFName@@K@Z @1450
    ??2UTexScaler@@SAPAXIPAW4EInternal@@@Z @1451
    ??2UTexture@@SAPAXIPAVUObject@@VFName@@K@Z @1452
    ??2UTexture@@SAPAXIPAW4EInternal@@@Z @1453
    ??2UVertMesh@@SAPAXIPAVUObject@@VFName@@K@Z @1454
    ??2UVertMesh@@SAPAXIPAW4EInternal@@@Z @1455
    ??2UVertMeshInstance@@SAPAXIPAVUObject@@VFName@@K@Z @1456
    ??2UVertMeshInstance@@SAPAXIPAW4EInternal@@@Z @1457
    ??2UVertexBuffer@@SAPAXIPAVUObject@@VFName@@K@Z @1458
    ??2UVertexBuffer@@SAPAXIPAW4EInternal@@@Z @1459
    ??2UVertexColor@@SAPAXIPAVUObject@@VFName@@K@Z @1460
    ??2UVertexColor@@SAPAXIPAW4EInternal@@@Z @1461
    ??2UVertexStreamBase@@SAPAXIPAVUObject@@VFName@@K@Z @1462
    ??2UVertexStreamBase@@SAPAXIPAW4EInternal@@@Z @1463
    ??2UVertexStreamCOLOR@@SAPAXIPAVUObject@@VFName@@K@Z @1464
    ??2UVertexStreamCOLOR@@SAPAXIPAW4EInternal@@@Z @1465
    ??2UVertexStreamPosNormTex@@SAPAXIPAVUObject@@VFName@@K@Z @1466
    ??2UVertexStreamPosNormTex@@SAPAXIPAW4EInternal@@@Z @1467
    ??2UVertexStreamUV@@SAPAXIPAVUObject@@VFName@@K@Z @1468
    ??2UVertexStreamUV@@SAPAXIPAW4EInternal@@@Z @1469
    ??2UVertexStreamVECTOR@@SAPAXIPAVUObject@@VFName@@K@Z @1470
    ??2UVertexStreamVECTOR@@SAPAXIPAW4EInternal@@@Z @1471
    ??2UViewport@@SAPAXIPAVUObject@@VFName@@K@Z @1472
    ??2UViewport@@SAPAXIPAW4EInternal@@@Z @1473
    ??4?$TArray@E@@QAEAAV0@ABV0@@Z @1474
    ??4?$TLazyArray@E@@QAEAAV0@ABV0@@Z @1475
    ??4AAIController@@QAEAAV0@ABV0@@Z @1476
    ??4AAIMarker@@QAEAAV0@ABV0@@Z @1477
    ??4AAIScript@@QAEAAV0@ABV0@@Z @1478
    ??4AActor@@QAEAAV0@ABV0@@Z @1479
    ??4AActorManager@@QAEAAV0@ABV0@@Z @1480
    ??4AAntiPortalActor@@QAEAAV0@ABV0@@Z @1481
    ??4ABlockingVolume@@QAEAAV0@ABV0@@Z @1482
    ??4ABrush@@QAEAAV0@ABV0@@Z @1483
    ??4ACamera@@QAEAAV0@ABV0@@Z @1484
    ??4AClipMarker@@QAEAAV0@ABV0@@Z @1485
    ??4AController@@QAEAAV0@ABV0@@Z @1486
    ??4ADecoVolumeObject@@QAEAAV0@ABV0@@Z @1487
    ??4ADecorationList@@QAEAAV0@ABV0@@Z @1488
    ??4ADefaultPhysicsVolume@@QAEAAV0@ABV0@@Z @1489
    ??4ADoor@@QAEAAV0@ABV0@@Z @1490
    ??4AEmitter@@QAEAAV0@ABV0@@Z @1491
    ??4AFluidSurfaceInfo@@QAEAAV0@ABV0@@Z @1492
    ??4AFluidSurfaceOscillator@@QAEAAV0@ABV0@@Z @1493
    ??4AGameInfo@@QAEAAV0@ABV0@@Z @1494
    ??4AGameReplicationInfo@@QAEAAV0@ABV0@@Z @1495
    ??4AHUD@@QAEAAV0@ABV0@@Z @1496
    ??4AInfo@@QAEAAV0@ABV0@@Z @1497
    ??4AInternetInfo@@QAEAAV0@ABV0@@Z @1498
    ??4AInterpolationPoint@@QAEAAV0@ABV0@@Z @1499
    ??4AJumpDest@@QAEAAV0@ABV0@@Z @1500
    ??4AJumpPad@@QAEAAV0@ABV0@@Z @1501
    ??4AKActor@@QAEAAV0@ABV0@@Z @1502
    ??4AKBSJoint@@QAEAAV0@ABV0@@Z @1503
    ??4AKConeLimit@@QAEAAV0@ABV0@@Z @1504
    ??4AKConstraint@@QAEAAV0@ABV0@@Z @1505
    ??4AKHinge@@QAEAAV0@ABV0@@Z @1506
    ??4AKeypoint@@QAEAAV0@ABV0@@Z @1507
    ??4ALadder@@QAEAAV0@ABV0@@Z @1508
    ??4ALadderVolume@@QAEAAV0@ABV0@@Z @1509
    ??4ALevelInfo@@QAEAAV0@ABV0@@Z @1510
    ??4ALiftCenter@@QAEAAV0@ABV0@@Z @1511
    ??4ALiftExit@@QAEAAV0@ABV0@@Z @1512
    ??4ALight@@QAEAAV0@ABV0@@Z @1513
    ??4ALineOfSightTrigger@@QAEAAV0@ABV0@@Z @1514
    ??4ALookTarget@@QAEAAV0@ABV0@@Z @1515
    ??4AMapList@@QAEAAV0@ABV0@@Z @1516
    ??4AMover@@QAEAAV0@ABV0@@Z @1517
    ??4ANavigationPoint@@QAEAAV0@ABV0@@Z @1518
    ??4ANote@@QAEAAV0@ABV0@@Z @1519
    ??4APathNode@@QAEAAV0@ABV0@@Z @1520
    ??4APawn@@QAEAAV0@ABV0@@Z @1521
    ??4APhysicsVolume@@QAEAAV0@ABV0@@Z @1522
    ??4APlayerController@@QAEAAV0@ABV0@@Z @1523
    ??4APlayerReplicationInfo@@QAEAAV0@ABV0@@Z @1524
    ??4APlayerStart@@QAEAAV0@ABV0@@Z @1525
    ??4APolyMarker@@QAEAAV0@ABV0@@Z @1526
    ??4APotentialClimbWatcher@@QAEAAV0@ABV0@@Z @1527
    ??4AProjector@@QAEAAV0@ABV0@@Z @1528
    ??4AR6AbstractCircumstantialActionQuery@@QAEAAV0@ABV0@@Z @1529
    ; ??4AR6AbstractClimbableObj@@QAEAAV0@ABV0@@Z @1530  ; header-only class — no dllexport, ordinal reserved
    ??4AR6ActionPointAbstract@@QAEAAV0@ABV0@@Z @1531
    ??4AR6ActionSpot@@QAEAAV0@ABV0@@Z @1532
    ??4AR6ColBox@@QAEAAV0@ABV0@@Z @1533
    ??4AR6Decal@@QAEAAV0@ABV0@@Z @1534
    ??4AR6DecalGroup@@QAEAAV0@ABV0@@Z @1535
    ??4AR6DecalManager@@QAEAAV0@ABV0@@Z @1536
    ??4AR6DecalsBase@@QAEAAV0@ABV0@@Z @1537
    ??4AR6EngineFirstPersonWeapon@@QAEAAV0@ABV0@@Z @1538
    ??4AR6EngineWeapon@@QAEAAV0@ABV0@@Z @1539
    ??4AR6FootStep@@QAEAAV0@ABV0@@Z @1540
    ??4AR6GlowLight@@QAEAAV0@ABV0@@Z @1541
    ??4AR6MapList@@QAEAAV0@ABV0@@Z @1542
    ??4AR6MorphMeshActor@@QAEAAV0@ABV0@@Z @1543
    ??4AR6PawnReplicationInfo@@QAEAAV0@ABV0@@Z @1544
    ??4AR6RainbowStartInfo@@QAEAAV0@ABV0@@Z @1545
    ??4AR6StartGameInfo@@QAEAAV0@ABV0@@Z @1546
    ??4AR6TeamStartInfo@@QAEAAV0@ABV0@@Z @1547
    ??4AR6WallHit@@QAEAAV0@ABV0@@Z @1548
    ??4AR6eviLTesting@@QAEAAV0@ABV0@@Z @1549
    ??4AReplicationInfo@@QAEAAV0@ABV0@@Z @1550
    ??4ASavedMove@@QAEAAV0@ABV0@@Z @1551
    ??4ASceneManager@@QAEAAV0@ABV0@@Z @1552
    ??4AScout@@QAEAAV0@ABV0@@Z @1553
    ??4ASkyZoneInfo@@QAEAAV0@ABV0@@Z @1554
    ??4ASmallNavigationPoint@@QAEAAV0@ABV0@@Z @1555
    ??4AStatLog@@QAEAAV0@ABV0@@Z @1556
    ??4AStatLogFile@@QAEAAV0@ABV0@@Z @1557
    ??4AStaticMeshActor@@QAEAAV0@ABV0@@Z @1558
    ??4ATeleporter@@QAEAAV0@ABV0@@Z @1559
    ??4ATerrainInfo@@QAEAAV0@ABV0@@Z @1560
    ??4ATrigger@@QAEAAV0@ABV0@@Z @1561
    ??4ATriggers@@QAEAAV0@ABV0@@Z @1562
    ??4AVolume@@QAEAAV0@ABV0@@Z @1563
    ??4AWarpZoneInfo@@QAEAAV0@ABV0@@Z @1564
    ??4AWarpZoneMarker@@QAEAAV0@ABV0@@Z @1565
    ??4AZoneInfo@@QAEAAV0@ABV0@@Z @1566
    ??4CBoneDescData@@QAEAAV0@ABV0@@Z @1567
    ??4CCompressedLipDescData@@QAEAAV0@ABV0@@Z @1568
    ??4ECLipSynchData@@QAEAAV0@ABV0@@Z @1569
    ??4FActorSceneNode@@QAEAAV0@ABV0@@Z @1570
    ??4FAnimMeshVertexStream@@QAEAAV0@ABV0@@Z @1571
    ??4FBezier@@QAEAAV0@ABV0@@Z @1572
    ??4FBspSection@@QAEAAV0@ABV0@@Z @1573
    ??4FBspVertex@@QAEAAU0@ABU0@@Z @1574
    ??4FBspVertexStream@@QAEAAV0@ABV0@@Z @1575
    ??4FCameraSceneNode@@QAEAAV0@ABV0@@Z @1576
    ??4FCanvasUtil@@QAEAAV0@ABV0@@Z @1577
    ??4FCanvasVertex@@QAEAAV0@ABV0@@Z @1578
    ??4FCollisionHash@@QAEAAV0@ABV0@@Z @1579
    ??4FCollisionOctree@@QAEAAV0@ABV0@@Z @1580
    ??4FColor@@QAEAAV0@ABV0@@Z @1581
    ??4FConvexVolume@@QAEAAV0@ABV0@@Z @1582
    ??4FDXTCompressionOptions@@QAEAAU0@ABU0@@Z @1583
    ??4FDbgVectorInfo@@QAEAAU0@ABU0@@Z @1584
    ??4FDirectionalLightMapSceneNode@@QAEAAV0@ABV0@@Z @1585
    ??4FDynamicActor@@QAEAAV0@ABV0@@Z @1586
    ??4FDynamicLight@@QAEAAV0@ABV0@@Z @1587
    ??4FEngineStats@@QAEAAV0@ABV0@@Z @1588
    ??4FFontCharacter@@QAEAAU0@ABU0@@Z @1589
    ??4FFontPage@@QAEAAU0@ABU0@@Z @1590
    ??4FHitCause@@QAEAAU0@ABU0@@Z @1591
    ??4FHitObserver@@QAEAAV0@ABV0@@Z @1592
    ??4FInBunch@@QAEAAV0@ABV0@@Z @1593
    ??4FKAggregateGeom@@QAEAAV0@ABV0@@Z @1594
    ??4FKBoxElem@@QAEAAV0@ABV0@@Z @1595
    ??4FKConvexElem@@QAEAAV0@ABV0@@Z @1596
    ??4FKCylinderElem@@QAEAAV0@ABV0@@Z @1597
    ??4FKSphereElem@@QAEAAV0@ABV0@@Z @1598
    ??4FLevelSceneNode@@QAEAAV0@ABV0@@Z @1599
    ??4FLightMap@@QAEAAV0@ABV0@@Z @1600
    ??4FLightMapIndex@@QAEAAV0@ABV0@@Z @1601
    ??4FLightMapSceneNode@@QAEAAV0@ABV0@@Z @1602
    ??4FLightMapTexture@@QAEAAV0@ABV0@@Z @1603
    ??4FLineBatcher@@QAEAAV0@ABV0@@Z @1604
    ??4FLineVertex@@QAEAAV0@ABV0@@Z @1605
    ??4FMatineeTools@@QAEAAV0@ABV0@@Z @1606
    ??4FMipmap@@QAEAAU0@ABU0@@Z @1607
    ??4FMipmapBase@@QAEAAU0@ABU0@@Z @1608
    ??4FMirrorSceneNode@@QAEAAV0@ABV0@@Z @1609
    ??4FNetworkNotify@@QAEAAV0@ABV0@@Z @1610
    ??4FOctreeNode@@QAEAAV0@ABV0@@Z @1611
    ??4FOrientation@@QAEAAU0@U0@@Z @1612
    ??4FOutBunch@@QAEAAV0@ABV0@@Z @1613
    ??4FPathBuilder@@QAEAAV0@ABV0@@Z @1614
    ??4FPointLightMapSceneNode@@QAEAAV0@ABV0@@Z @1615
    ??4FPointRegion@@QAEAAU0@ABU0@@Z @1616
    ??4FPoly@@QAEAAV0@ABV0@@Z @1617
    ??4FR6MatineePreviewProxy@@QAEAAV0@ABV0@@Z @1618
    ??4FRaw32BitIndexBuffer@@QAEAAV0@ABV0@@Z @1619
    ??4FRawColorStream@@QAEAAV0@ABV0@@Z @1620
    ??4FRawIndexBuffer@@QAEAAV0@ABV0@@Z @1621
    ??4FReachSpec@@QAEAAV0@ABV0@@Z @1622
    ??4FRebuildOptions@@QAE?AV0@V0@@Z @1623
    ??4FRebuildTools@@QAEAAV0@ABV0@@Z @1624
    ??4FRenderInterface@@QAEAAV0@ABV0@@Z @1625
    ??4FRotatorF@@QAEAAV0@ABV0@@Z @1626
    ??4FSceneNode@@QAEAAV0@ABV0@@Z @1627
    ??4FSkinVertexStream@@QAEAAV0@ABV0@@Z @1628
    ??4FSkySceneNode@@QAEAAV0@ABV0@@Z @1629
    ??4FSortedPathList@@QAEAAV0@ABV0@@Z @1630
    ??4FSoundData@@QAEAAV0@ABV0@@Z @1631
    ??4FStatGraph@@QAEAAV0@ABV0@@Z @1632
    ??4FStatGraphLine@@QAEAAV0@ABV0@@Z @1633
    ??4FStaticCubemap@@QAEAAV0@ABV0@@Z @1634
    ??4FStaticLightMapTexture@@QAEAAV0@ABV0@@Z @1635
    ??4FStaticMeshCollisionNode@@QAEAAU0@ABU0@@Z @1636
    ??4FStaticMeshCollisionTriangle@@QAEAAU0@ABU0@@Z @1637
    ??4FStaticMeshColorStream@@QAEAAV0@ABV0@@Z @1638
    ??4FStaticMeshMaterial@@QAEAAV0@ABV0@@Z @1639
    ??4FStaticMeshSection@@QAEAAV0@ABV0@@Z @1640
    ??4FStaticMeshTriangle@@QAEAAU0@ABU0@@Z @1641
    ??4FStaticMeshUV@@QAEAAU0@ABU0@@Z @1642
    ??4FStaticMeshUVStream@@QAEAAV0@ABV0@@Z @1643
    ??4FStaticMeshVertex@@QAEAAU0@ABU0@@Z @1644
    ??4FStaticMeshVertexStream@@QAEAAV0@ABV0@@Z @1645
    ??4FStaticTexture@@QAEAAV0@ABV0@@Z @1646
    ??4FStats@@QAEAAV0@ABV0@@Z @1647
    ??4FTags@@QAEAAV0@ABV0@@Z @1648
    ??4FTempLineBatcher@@QAEAAV0@ABV0@@Z @1649
    ??4FTerrainMaterialLayer@@QAEAAU0@ABU0@@Z @1650
    ??4FTerrainTools@@QAEAAV0@ABV0@@Z @1651
    ??4FURL@@QAEAAV0@ABV0@@Z @1652
    ??4FWarpZoneSceneNode@@QAEAAV0@ABV0@@Z @1653
    ??4FWaveModInfo@@QAEAAV0@ABV0@@Z @1654
    ??4FZoneProperties@@QAEAAV0@ABV0@@Z @1655
    ??4HActor@@QAEAAU0@ABU0@@Z @1656
    ??4HBspSurf@@QAEAAU0@ABU0@@Z @1657
    ??4HCoords@@QAEAAU0@ABU0@@Z @1658
    ??4HHitProxy@@QAEAAU0@ABU0@@Z @1659
    ??4HMaterialTree@@QAEAAU0@ABU0@@Z @1660
    ??4HMatineeAction@@QAEAAU0@ABU0@@Z @1661
    ??4HMatineeScene@@QAEAAU0@ABU0@@Z @1662
    ??4HMatineeSubAction@@QAEAAU0@ABU0@@Z @1663
    ??4HMatineeTimePath@@QAEAAU0@ABU0@@Z @1664
    ??4HTerrain@@QAEAAU0@ABU0@@Z @1665
    ??4HTerrainToolLayer@@QAEAAU0@ABU0@@Z @1666
    ??4UActionMoveActor@@QAEAAV0@ABV0@@Z @1667
    ??4UActionMoveCamera@@QAEAAV0@ABV0@@Z @1668
    ??4UActionPause@@QAEAAV0@ABV0@@Z @1669
    ??4UActorChannel@@QAEAAV0@ABV0@@Z @1670
    ??4UAnimNotify@@QAEAAV0@ABV0@@Z @1671
    ??4UAnimNotify_DestroyEffect@@QAEAAV0@ABV0@@Z @1672
    ??4UAnimNotify_Effect@@QAEAAV0@ABV0@@Z @1673
    ??4UAnimNotify_MatSubAction@@QAEAAV0@ABV0@@Z @1674
    ??4UAnimNotify_Script@@QAEAAV0@ABV0@@Z @1675
    ??4UAnimNotify_Scripted@@QAEAAV0@ABV0@@Z @1676
    ??4UAnimNotify_Sound@@QAEAAV0@ABV0@@Z @1677
    ??4UAnimation@@QAEAAV0@ABV0@@Z @1678
    ??4UAudioSubsystem@@QAEAAV0@ABV0@@Z @1679
    ??4UBeamEmitter@@QAEAAV0@ABV0@@Z @1680
    ??4UBinaryFileDownload@@QAEAAV0@ABV0@@Z @1681
    ??4UBitmapMaterial@@QAEAAV0@ABV0@@Z @1682
    ??4UCameraEffect@@QAEAAV0@ABV0@@Z @1683
    ??4UCameraOverlay@@QAEAAV0@ABV0@@Z @1684
    ??4UCanvas@@QAEAAV0@ABV0@@Z @1685
    ??4UChannel@@QAEAAV0@ABV0@@Z @1686
    ??4UChannelDownload@@QAEAAV0@ABV0@@Z @1687
    ??4UCheatManager@@QAEAAV0@ABV0@@Z @1688
    ??4UClient@@QAEAAV0@ABV0@@Z @1689
    ??4UColorModifier@@QAEAAV0@ABV0@@Z @1690
    ??4UCombiner@@QAEAAV0@ABV0@@Z @1691
    ??4UConsole@@QAEAAV0@ABV0@@Z @1692
    ??4UConstantColor@@QAEAAV0@ABV0@@Z @1693
    ??4UConstantMaterial@@QAEAAV0@ABV0@@Z @1694
    ??4UControlChannel@@QAEAAV0@ABV0@@Z @1695
    ??4UConvexVolume@@QAEAAV0@ABV0@@Z @1696
    ??4UCubemap@@QAEAAV0@ABV0@@Z @1697
    ??4UDemoRecConnection@@QAEAAV0@ABV0@@Z @1698
    ??4UDemoRecDriver@@QAEAAV0@ABV0@@Z @1699
    ??4UDiffuseAttenuationMaterial@@QAEAAV0@ABV0@@Z @1700
    ??4UDownload@@QAEAAV0@ABV0@@Z @1701
    ??4UEngine@@QAEAAV0@ABV0@@Z @1702
    ??4UFadeColor@@QAEAAV0@ABV0@@Z @1703
    ??4UFileChannel@@QAEAAV0@ABV0@@Z @1704
    ??4UFinalBlend@@QAEAAV0@ABV0@@Z @1705
    ??4UFluidSurfacePrimitive@@QAEAAV0@ABV0@@Z @1706
    ??4UFont@@QAEAAV0@ABV0@@Z @1707
    ??4UGameEngine@@QAEAAV0@ABV0@@Z @1708
    ??4UI3DL2Listener@@QAEAAV0@ABV0@@Z @1709
    ??4UIndexBuffer@@QAEAAV0@ABV0@@Z @1710
    ??4UInput@@QAEAAV0@ABV0@@Z @1711
    ??4UInputPlanning@@QAEAAV0@ABV0@@Z @1712
    ??4UInteraction@@QAEAAV0@ABV0@@Z @1713
    ??4UInteractionMaster@@QAEAAV0@ABV0@@Z @1714
    ??4UInteractions@@QAEAAV0@ABV0@@Z @1715
    ??4UKMeshProps@@QAEAAV0@ABV0@@Z @1716
    ??4UKarmaParams@@QAEAAV0@ABV0@@Z @1717
    ??4UKarmaParamsCollision@@QAEAAV0@ABV0@@Z @1718
    ??4UKarmaParamsRBFull@@QAEAAV0@ABV0@@Z @1719
    ??4UKarmaParamsSkel@@QAEAAV0@ABV0@@Z @1720
    ??4ULevel@@QAEAAV0@ABV0@@Z @1721
    ??4ULevelBase@@QAEAAV0@ABV0@@Z @1722
    ??4ULevelSummary@@QAEAAV0@ABV0@@Z @1723
    ??4ULodMesh@@QAEAAV0@ABV0@@Z @1724
    ??4ULodMeshInstance@@QAEAAV0@ABV0@@Z @1725
    ??4UMatAction@@QAEAAV0@ABV0@@Z @1726
    ??4UMatObject@@QAEAAV0@ABV0@@Z @1727
    ??4UMatSubAction@@QAEAAV0@ABV0@@Z @1728
    ??4UMaterial@@QAEAAV0@ABV0@@Z @1729
    ??4UMaterialSwitch@@QAEAAV0@ABV0@@Z @1730
    ??4UMesh@@QAEAAV0@ABV0@@Z @1731
    ??4UMeshAnimation@@QAEAAV0@ABV0@@Z @1732
    ??4UMeshEmitter@@QAEAAV0@ABV0@@Z @1733
    ??4UMeshInstance@@QAEAAV0@ABV0@@Z @1734
    ??4UModel@@QAEAAV0@ABV0@@Z @1735
    ??4UModifier@@QAEAAV0@ABV0@@Z @1736
    ??4UMotionBlur@@QAEAAV0@ABV0@@Z @1737
    ??4UNetConnection@@QAEAAV0@ABV0@@Z @1738
    ??4UNetDriver@@QAEAAV0@ABV0@@Z @1739
    ??4UNullRenderDevice@@QAEAAV0@ABV0@@Z @1740
    ??4UOpacityModifier@@QAEAAV0@ABV0@@Z @1741
    ??4UPackageMapLevel@@QAEAAV0@ABV0@@Z @1742
    ??4UPalette@@QAEAAV0@ABV0@@Z @1743
    ??4UParticleEmitter@@QAEAAV0@ABV0@@Z @1744
    ??4UParticleMaterial@@QAEAAV0@ABV0@@Z @1745
    ??4UPlayer@@QAEAAV0@ABV0@@Z @1746
    ??4UPlayerInput@@QAEAAV0@ABV0@@Z @1747
    ??4UPolys@@QAEAAV0@ABV0@@Z @1748
    ??4UPrimitive@@QAEAAV0@ABV0@@Z @1749
    ??4UProjectorPrimitive@@QAEAAV0@ABV0@@Z @1750
    ??4UProxyBitmapMaterial@@QAEAAV0@ABV0@@Z @1751
    ??4UR6AbstractGameManager@@QAEAAV0@ABV0@@Z @1752
    ??4UR6AbstractPlanningInfo@@QAEAAV0@ABV0@@Z @1753
    ; ??4UR6AbstractTerroristMgr@@QAEAAV0@ABV0@@Z @1754  ; header-only class — no dllexport, ordinal reserved
    ??4UR6FileManager@@QAEAAV0@ABV0@@Z @1755
    ??4UR6GameColors@@QAEAAV0@ABV0@@Z @1756
    ??4UR6GameMenuCom@@QAEAAV0@ABV0@@Z @1757
    ??4UR6GameOptions@@QAEAAV0@ABV0@@Z @1758
    ??4UR6MissionDescription@@QAEAAV0@ABV0@@Z @1759
    ??4UR6Mod@@QAEAAV0@ABV0@@Z @1760
    ??4UR6ModMgr@@QAEAAV0@ABV0@@Z @1761
    ??4UR6ServerInfo@@QAEAAV0@ABV0@@Z @1762
    ??4UReachSpec@@QAEAAV0@ABV0@@Z @1763
    ??4URenderDevice@@QAEAAV0@ABV0@@Z @1764
    ??4URenderResource@@QAEAAV0@ABV0@@Z @1765
    ??4URenderedMaterial@@QAEAAV0@ABV0@@Z @1766
    ??4UShader@@QAEAAV0@ABV0@@Z @1767
    ??4UShadowBitmapMaterial@@QAEAAV0@ABV0@@Z @1768
    ??4USkeletalMesh@@QAEAAV0@ABV0@@Z @1769
    ??4USkeletalMeshInstance@@QAEAAV0@ABV0@@Z @1770
    ??4USkinVertexBuffer@@QAEAAV0@ABV0@@Z @1771
    ??4USound@@QAEAAV0@ABV0@@Z @1772
    ??4USoundGen@@QAEAAV0@ABV0@@Z @1773
    ??4USparkEmitter@@QAEAAV0@ABV0@@Z @1774
    ??4USpriteEmitter@@QAEAAV0@ABV0@@Z @1775
    ??4UStaticMesh@@QAEAAV0@ABV0@@Z @1776
    ??4UStaticMeshInstance@@QAEAAV0@ABV0@@Z @1777
    ??4USubActionCameraEffect@@QAEAAV0@ABV0@@Z @1778
    ??4USubActionCameraShake@@QAEAAV0@ABV0@@Z @1779
    ??4USubActionFOV@@QAEAAV0@ABV0@@Z @1780
    ??4USubActionFade@@QAEAAV0@ABV0@@Z @1781
    ??4USubActionGameSpeed@@QAEAAV0@ABV0@@Z @1782
    ??4USubActionOrientation@@QAEAAV0@ABV0@@Z @1783
    ??4USubActionSceneSpeed@@QAEAAV0@ABV0@@Z @1784
    ??4USubActionTrigger@@QAEAAV0@ABV0@@Z @1785
    ??4UTerrainBrush@@QAEAAV0@ABV0@@Z @1786
    ??4UTerrainBrushColor@@QAEAAV0@ABV0@@Z @1787
    ??4UTerrainBrushEdgeTurn@@QAEAAV0@ABV0@@Z @1788
    ??4UTerrainBrushFlatten@@QAEAAV0@ABV0@@Z @1789
    ??4UTerrainBrushNoise@@QAEAAV0@ABV0@@Z @1790
    ??4UTerrainBrushPaint@@QAEAAV0@ABV0@@Z @1791
    ??4UTerrainBrushPlanningPaint@@QAEAAV0@ABV0@@Z @1792
    ??4UTerrainBrushSelect@@QAEAAV0@ABV0@@Z @1793
    ??4UTerrainBrushSmooth@@QAEAAV0@ABV0@@Z @1794
    ??4UTerrainBrushTexPan@@QAEAAV0@ABV0@@Z @1795
    ??4UTerrainBrushTexRotate@@QAEAAV0@ABV0@@Z @1796
    ??4UTerrainBrushTexScale@@QAEAAV0@ABV0@@Z @1797
    ??4UTerrainBrushVertexEdit@@QAEAAV0@ABV0@@Z @1798
    ??4UTerrainBrushVisibility@@QAEAAV0@ABV0@@Z @1799
    ??4UTerrainMaterial@@QAEAAV0@ABV0@@Z @1800
    ??4UTerrainPrimitive@@QAEAAV0@ABV0@@Z @1801
    ??4UTerrainSector@@QAEAAV0@ABV0@@Z @1802
    ??4UTexCoordMaterial@@QAEAAV0@ABV0@@Z @1803
    ??4UTexCoordSource@@QAEAAV0@ABV0@@Z @1804
    ??4UTexEnvMap@@QAEAAV0@ABV0@@Z @1805
    ??4UTexMatrix@@QAEAAV0@ABV0@@Z @1806
    ??4UTexModifier@@QAEAAV0@ABV0@@Z @1807
    ??4UTexOscillator@@QAEAAV0@ABV0@@Z @1808
    ??4UTexPanner@@QAEAAV0@ABV0@@Z @1809
    ??4UTexRotator@@QAEAAV0@ABV0@@Z @1810
    ??4UTexScaler@@QAEAAV0@ABV0@@Z @1811
    ??4UTexture@@QAEAAV0@ABV0@@Z @1812
    ??4UVertMesh@@QAEAAV0@ABV0@@Z @1813
    ??4UVertMeshInstance@@QAEAAV0@ABV0@@Z @1814
    ??4UVertexBuffer@@QAEAAV0@ABV0@@Z @1815
    ??4UVertexColor@@QAEAAV0@ABV0@@Z @1816
    ??4UVertexStreamBase@@QAEAAV0@ABV0@@Z @1817
    ??4UVertexStreamCOLOR@@QAEAAV0@ABV0@@Z @1818
    ??4UVertexStreamPosNormTex@@QAEAAV0@ABV0@@Z @1819
    ??4UVertexStreamUV@@QAEAAV0@ABV0@@Z @1820
    ??4UVertexStreamVECTOR@@QAEAAV0@ABV0@@Z @1821
    ??4UViewport@@QAEAAV0@ABV0@@Z @1822
    ??6@YAAAVFArchive@@AAV0@AAUFBspVertex@@@Z @1823
    ??6@YAAAVFArchive@@AAV0@AAUFPosNormTexData@@@Z @1824
    ??6@YAAAVFArchive@@AAV0@AAUFProjectorRelativeRenderInfo@@@Z @1825
    ??6@YAAAVFArchive@@AAV0@AAUFSkinVertex@@@Z @1826
    ??6@YAAAVFArchive@@AAV0@AAUFStaticMeshCollisionNode@@@Z @1827
    ??6@YAAAVFArchive@@AAV0@AAUFStaticMeshCollisionTriangle@@@Z @1828
    ??6@YAAAVFArchive@@AAV0@AAUFStaticMeshUV@@@Z @1829
    ??6@YAAAVFArchive@@AAV0@AAUFStaticMeshVertex@@@Z @1830
    ??6@YAAAVFArchive@@AAV0@AAUFTerrainVertex@@@Z @1831
    ??6@YAAAVFArchive@@AAV0@AAUFUV2Data@@@Z @1832
    ??6@YAAAVFArchive@@AAV0@AAUFUntransformedVertex@@@Z @1833
    ??6@YAAAVFArchive@@AAV0@AAVFAnimMeshVertexStream@@@Z @1834
    ??6@YAAAVFArchive@@AAV0@AAVFBspNode@@@Z @1835
    ??6@YAAAVFArchive@@AAV0@AAVFBspSection@@@Z @1836
    ??6@YAAAVFArchive@@AAV0@AAVFBspSurf@@@Z @1837
    ??6@YAAAVFArchive@@AAV0@AAVFBspVertexStream@@@Z @1838
    ??6@YAAAVFArchive@@AAV0@AAVFLightMap@@@Z @1839
    ??6@YAAAVFArchive@@AAV0@AAVFLightMapTexture@@@Z @1840
    ??6@YAAAVFArchive@@AAV0@AAVFPoly@@@Z @1841
    ??6@YAAAVFArchive@@AAV0@AAVFRaw32BitIndexBuffer@@@Z @1842
    ??6@YAAAVFArchive@@AAV0@AAVFRawColorStream@@@Z @1843
    ??6@YAAAVFArchive@@AAV0@AAVFRawIndexBuffer@@@Z @1844
    ??6@YAAAVFArchive@@AAV0@AAVFSkinVertexStream@@@Z @1845
    ??6@YAAAVFArchive@@AAV0@AAVFStaticLightMapTexture@@@Z @1846
    ??6@YAAAVFArchive@@AAV0@AAVFStaticMeshBatcherVertex@@@Z @1847
    ??6@YAAAVFArchive@@AAV0@AAVFStaticMeshLightInfo@@@Z @1848
    ??6@YAAAVFArchive@@AAV0@AAVFStaticMeshMaterial@@@Z @1849
    ??6@YAAAVFArchive@@AAV0@AAVFStaticMeshSection@@@Z @1850
    ??6@YAAAVFArchive@@AAV0@AAVFStaticMeshUVStream@@@Z @1851
    ??6@YAAAVFArchive@@AAV0@AAVFStaticMeshVertexStream@@@Z @1852
    ??6@YAAAVFArchive@@AAV0@AAVFTags@@@Z @1853
    ??6@YAAAVFArchive@@AAV0@AAVFTerrainVertexStream@@@Z @1854
    ??6@YAAAVFArchive@@AAV0@AAVFURL@@@Z @1855
    ??6@YAAAVFArchive@@AAV0@PAUFProjectorRenderInfo@@@Z @1856
    ??6FInBunch@@UAEAAVFArchive@@AAPAVUObject@@@Z @1857
    ??6FInBunch@@UAEAAVFArchive@@AAVFName@@@Z @1858
    ??6FOutBunch@@UAEAAVFArchive@@AAPAVUObject@@@Z @1859
    ??6FOutBunch@@UAEAAVFArchive@@AAVFName@@@Z @1860
    ??8FColor@@QBEHABV0@@Z @1861
    ??8FPoly@@QAEHV0@@Z @1862
    ??8FStatGraphLine@@QBEHABV0@@Z @1863
    ??8FURL@@QBEHABV0@@Z @1864
    ??8UReachSpec@@QAEHABV0@@Z @1865
    ??9FColor@@QBEHABV0@@Z @1866
    ??9FOrientation@@QBEHABU0@@Z @1867
    ??9FPoly@@QAEHV0@@Z @1868
    ??BFColor@@QBE?AVFPlane@@XZ @1869
    ??BFColor@@QBE?AVFVector@@XZ @1870
    ??BFColor@@QBEKXZ @1871
    ??DFRotatorF@@QBE?AV0@M@Z @1872
    ??GFRotatorF@@QBE?AV0@V0@@Z @1873
    ??H?$TArray@E@@QAEAAV0@ABV0@@Z @1874
    ??HFRotatorF@@QBE?AV0@V0@@Z @1875
    ??HUReachSpec@@QBEPAV0@ABV0@@Z @1876
    ??NUReachSpec@@QAEHABV0@@Z @1877
    ??R?$TArray@E@@QAEAAEH@Z @1878
    ??R?$TArray@E@@QBEABEH@Z @1879
    ??XFRotatorF@@QAE?AV0@M@Z @1880
    ??Y?$TArray@E@@QAEAAV0@ABV0@@Z @1881
    ??YFColor@@QAEXV0@@Z @1882
    ??YFRotatorF@@QAE?AV0@V0@@Z @1883
    ??ZFRotatorF@@QAE?AV0@V0@@Z @1884
    ??_7?$TLazyArray@E@@6B@ @1885
    ??_7AAIController@@6B@ @1886
    ??_7AAIMarker@@6B@ @1887
    ??_7AAIScript@@6B@ @1888
    ??_7AActor@@6B@ @1889
    ??_7AActorManager@@6B@ @1890
    ??_7AAntiPortalActor@@6B@ @1891
    ??_7ABlockingVolume@@6B@ @1892
    ??_7ABrush@@6B@ @1893
    ??_7ACamera@@6B@ @1894
    ??_7AClipMarker@@6B@ @1895
    ??_7AController@@6B@ @1896
    ??_7ADecoVolumeObject@@6B@ @1897
    ??_7ADecorationList@@6B@ @1898
    ??_7ADefaultPhysicsVolume@@6B@ @1899
    ??_7ADoor@@6B@ @1900
    ??_7AEmitter@@6B@ @1901
    ??_7AFluidSurfaceInfo@@6B@ @1902
    ??_7AFluidSurfaceOscillator@@6B@ @1903
    ??_7AGameInfo@@6B@ @1904
    ??_7AGameReplicationInfo@@6B@ @1905
    ??_7AHUD@@6B@ @1906
    ??_7AInfo@@6B@ @1907
    ??_7AInternetInfo@@6B@ @1908
    ??_7AInterpolationPoint@@6B@ @1909
    ??_7AJumpDest@@6B@ @1910
    ??_7AJumpPad@@6B@ @1911
    ??_7AKActor@@6B@ @1912
    ??_7AKBSJoint@@6B@ @1913
    ??_7AKConeLimit@@6B@ @1914
    ??_7AKConstraint@@6B@ @1915
    ??_7AKHinge@@6B@ @1916
    ??_7AKeypoint@@6B@ @1917
    ??_7ALadder@@6B@ @1918
    ??_7ALadderVolume@@6B@ @1919
    ??_7ALevelInfo@@6B@ @1920
    ??_7ALiftCenter@@6B@ @1921
    ??_7ALiftExit@@6B@ @1922
    ??_7ALight@@6B@ @1923
    ??_7ALineOfSightTrigger@@6B@ @1924
    ??_7ALookTarget@@6B@ @1925
    ??_7AMapList@@6B@ @1926
    ??_7AMover@@6B@ @1927
    ??_7ANavigationPoint@@6B@ @1928
    ??_7ANote@@6B@ @1929
    ??_7APathNode@@6B@ @1930
    ??_7APawn@@6B@ @1931
    ??_7APhysicsVolume@@6B@ @1932
    ??_7APlayerController@@6B@ @1933
    ??_7APlayerReplicationInfo@@6B@ @1934
    ??_7APlayerStart@@6B@ @1935
    ??_7APolyMarker@@6B@ @1936
    ??_7APotentialClimbWatcher@@6B@ @1937
    ??_7AProjector@@6B@ @1938
    ??_7AR6AbstractCircumstantialActionQuery@@6B@ @1939
    ??_7AR6AbstractClimbableObj@@6B@ @1940
    ??_7AR6ActionPointAbstract@@6B@ @1941
    ??_7AR6ActionSpot@@6B@ @1942
    ??_7AR6ColBox@@6B@ @1943
    ??_7AR6Decal@@6B@ @1944
    ??_7AR6DecalGroup@@6B@ @1945
    ??_7AR6DecalManager@@6B@ @1946
    ??_7AR6DecalsBase@@6B@ @1947
    ??_7AR6EngineFirstPersonWeapon@@6B@ @1948
    ??_7AR6EngineWeapon@@6B@ @1949
    ??_7AR6FootStep@@6B@ @1950
    ??_7AR6GlowLight@@6B@ @1951
    ??_7AR6MapList@@6B@ @1952
    ??_7AR6MorphMeshActor@@6B@ @1953
    ??_7AR6PawnReplicationInfo@@6B@ @1954
    ??_7AR6RainbowStartInfo@@6B@ @1955
    ??_7AR6StartGameInfo@@6B@ @1956
    ??_7AR6TeamStartInfo@@6B@ @1957
    ??_7AR6WallHit@@6B@ @1958
    ??_7AR6eviLTesting@@6B@ @1959
    ??_7AReplicationInfo@@6B@ @1960
    ??_7ASavedMove@@6B@ @1961
    ??_7ASceneManager@@6B@ @1962
    ??_7AScout@@6B@ @1963
    ??_7ASkyZoneInfo@@6B@ @1964
    ??_7ASmallNavigationPoint@@6B@ @1965
    ??_7AStatLog@@6B@ @1966
    ??_7AStatLogFile@@6B@ @1967
    ??_7AStaticMeshActor@@6B@ @1968
    ??_7ATeleporter@@6B@ @1969
    ??_7ATerrainInfo@@6B@ @1970
    ??_7ATrigger@@6B@ @1971
    ??_7ATriggers@@6B@ @1972
    ??_7AVolume@@6B@ @1973
    ??_7AWarpZoneInfo@@6B@ @1974
    ??_7AWarpZoneMarker@@6B@ @1975
    ??_7AZoneInfo@@6B@ @1976
    ??_7FActorSceneNode@@6B@ @1977
    ??_7FAnimMeshVertexStream@@6B@ @1978
    ??_7FBezier@@6B@ @1979
    ??_7FBspVertexStream@@6B@ @1980
    ??_7FCameraSceneNode@@6B@ @1981
    ??_7FCanvasUtil@@6B@ @1982
    ??_7FCollisionHash@@6B@ @1983
    ??_7FCollisionOctree@@6B@ @1984
    ??_7FDirectionalLightMapSceneNode@@6B@ @1985
    ??_7FHitObserver@@6B@ @1986
    ??_7FInBunch@@6B@ @1987
    ??_7FLevelSceneNode@@6B@ @1988
    ??_7FLightMap@@6B@ @1989
    ??_7FLightMapSceneNode@@6B@ @1990
    ??_7FLightMapTexture@@6B@ @1991
    ??_7FLineBatcher@@6B@ @1992
    ??_7FMatineeTools@@6B@ @1993
    ??_7FMirrorSceneNode@@6B@ @1994
    ??_7FNetworkNotify@@6B@ @1995
    ??_7FOutBunch@@6B@ @1996
    ??_7FPointLightMapSceneNode@@6B@ @1997
    ??_7FR6MatineePreviewProxy@@6B@ @1998
    ??_7FRaw32BitIndexBuffer@@6B@ @1999
    ??_7FRawColorStream@@6B@ @2000
    ??_7FRawIndexBuffer@@6B@ @2001
    ??_7FRenderInterface@@6B@ @2002
    ??_7FSceneNode@@6B@ @2003
    ??_7FSkinVertexStream@@6B@ @2004
    ??_7FSkySceneNode@@6B@ @2005
    ??_7FSoundData@@6B@ @2006
    ??_7FStaticCubemap@@6B@ @2007
    ??_7FStaticLightMapTexture@@6B@ @2008
    ??_7FStaticMeshColorStream@@6B@ @2009
    ??_7FStaticMeshUVStream@@6B@ @2010
    ??_7FStaticMeshVertexStream@@6B@ @2011
    ??_7FStaticTexture@@6B@ @2012
    ??_7FTerrainTools@@6B@ @2013
    ??_7FWarpZoneSceneNode@@6B@ @2014
    ??_7HActor@@6B@ @2015
    ??_7HBspSurf@@6B@ @2016
    ??_7HCoords@@6B@ @2017
    ??_7HHitProxy@@6B@ @2018
    ??_7HMaterialTree@@6B@ @2019
    ??_7HMatineeAction@@6B@ @2020
    ??_7HMatineeScene@@6B@ @2021
    ??_7HMatineeSubAction@@6B@ @2022
    ??_7HMatineeTimePath@@6B@ @2023
    ??_7HTerrain@@6B@ @2024
    ??_7HTerrainToolLayer@@6B@ @2025
    ??_7UActionMoveActor@@6B@ @2026
    ??_7UActionMoveCamera@@6B@ @2027
    ??_7UActionPause@@6B@ @2028
    ??_7UActorChannel@@6B@ @2029
    ??_7UAnimNotify@@6B@ @2030
    ??_7UAnimNotify_DestroyEffect@@6B@ @2031
    ??_7UAnimNotify_Effect@@6B@ @2032
    ??_7UAnimNotify_MatSubAction@@6B@ @2033
    ??_7UAnimNotify_Script@@6B@ @2034
    ??_7UAnimNotify_Scripted@@6B@ @2035
    ??_7UAnimNotify_Sound@@6B@ @2036
    ??_7UAnimation@@6B@ @2037
    ??_7UAudioSubsystem@@6BFExec@@@ @2038
    ??_7UAudioSubsystem@@6BUObject@@@ @2039
    ??_7UBeamEmitter@@6B@ @2040
    ??_7UBinaryFileDownload@@6B@ @2041
    ??_7UBitmapMaterial@@6B@ @2042
    ??_7UCameraEffect@@6B@ @2043
    ??_7UCameraOverlay@@6B@ @2044
    ??_7UCanvas@@6B@ @2045
    ??_7UChannel@@6B@ @2046
    ??_7UChannelDownload@@6B@ @2047
    ??_7UCheatManager@@6B@ @2048
    ??_7UClient@@6B@ @2049
    ??_7UColorModifier@@6B@ @2050
    ??_7UCombiner@@6B@ @2051
    ??_7UConsole@@6B@ @2052
    ??_7UConstantColor@@6B@ @2053
    ??_7UConstantMaterial@@6B@ @2054
    ??_7UControlChannel@@6BFOutputDevice@@@ @2055
    ??_7UControlChannel@@6BUChannel@@@ @2056
    ??_7UConvexVolume@@6B@ @2057
    ??_7UCubemap@@6B@ @2058
    ??_7UDemoRecConnection@@6BFExec@@@ @2059
    ??_7UDemoRecConnection@@6BFOutputDevice@@@ @2060
    ??_7UDemoRecConnection@@6BUObject@@@ @2061
    ??_7UDemoRecDriver@@6BFExec@@@ @2062
    ??_7UDemoRecDriver@@6BUObject@@@ @2063
    ??_7UDiffuseAttenuationMaterial@@6B@ @2064
    ??_7UDownload@@6B@ @2065
    ??_7UEngine@@6BFExec@@@ @2066
    ??_7UEngine@@6BUObject@@@ @2067
    ??_7UFadeColor@@6B@ @2068
    ??_7UFileChannel@@6B@ @2069
    ??_7UFinalBlend@@6B@ @2070
    ??_7UFluidSurfacePrimitive@@6B@ @2071
    ??_7UFont@@6B@ @2072
    ??_7UGameEngine@@6BFExec@@@ @2073
    ??_7UGameEngine@@6BUObject@@@ @2074
    ??_7UI3DL2Listener@@6B@ @2075
    ??_7UIndexBuffer@@6B@ @2076
    ??_7UInput@@6BFExec@@@ @2077
    ??_7UInput@@6BUObject@@@ @2078
    ??_7UInputPlanning@@6BFExec@@@ @2079
    ??_7UInputPlanning@@6BUObject@@@ @2080
    ??_7UInteraction@@6B@ @2081
    ??_7UInteractionMaster@@6B@ @2082
    ??_7UInteractions@@6B@ @2083
    ??_7UKMeshProps@@6B@ @2084
    ??_7UKarmaParams@@6B@ @2085
    ??_7UKarmaParamsCollision@@6B@ @2086
    ??_7UKarmaParamsRBFull@@6B@ @2087
    ??_7UKarmaParamsSkel@@6B@ @2088
    ??_7ULevel@@6BFNetworkNotify@@@ @2089
    ??_7ULevel@@6BUObject@@@ @2090
    ??_7ULevelBase@@6BFNetworkNotify@@@ @2091
    ??_7ULevelBase@@6BUObject@@@ @2092
    ??_7ULevelSummary@@6B@ @2093
    ??_7ULodMesh@@6B@ @2094
    ??_7ULodMeshInstance@@6B@ @2095
    ??_7UMatAction@@6B@ @2096
    ??_7UMatObject@@6B@ @2097
    ??_7UMatSubAction@@6B@ @2098
    ??_7UMaterial@@6B@ @2099
    ??_7UMaterialSwitch@@6B@ @2100
    ??_7UMesh@@6B@ @2101
    ??_7UMeshAnimation@@6B@ @2102
    ??_7UMeshEmitter@@6B@ @2103
    ??_7UMeshInstance@@6B@ @2104
    ??_7UModel@@6B@ @2105
    ??_7UModifier@@6B@ @2106
    ??_7UMotionBlur@@6B@ @2107
    ??_7UNetConnection@@6BFExec@@@ @2108
    ??_7UNetConnection@@6BFOutputDevice@@@ @2109
    ??_7UNetConnection@@6BUObject@@@ @2110
    ??_7UNetDriver@@6BFExec@@@ @2111
    ??_7UNetDriver@@6BUObject@@@ @2112
    ??_7UNullRenderDevice@@6BFExec@@@ @2113
    ??_7UNullRenderDevice@@6BUObject@@@ @2114
    ??_7UOpacityModifier@@6B@ @2115
    ??_7UPackageMapLevel@@6B@ @2116
    ??_7UPalette@@6B@ @2117
    ??_7UParticleEmitter@@6B@ @2118
    ??_7UParticleMaterial@@6B@ @2119
    ??_7UPlayer@@6BFExec@@@ @2120
    ??_7UPlayer@@6BFOutputDevice@@@ @2121
    ??_7UPlayer@@6BUObject@@@ @2122
    ??_7UPlayerInput@@6B@ @2123
    ??_7UPolys@@6B@ @2124
    ??_7UPrimitive@@6B@ @2125
    ??_7UProjectorPrimitive@@6B@ @2126
    ??_7UProxyBitmapMaterial@@6B@ @2127
    ??_7UR6AbstractGameManager@@6B@ @2128
    ??_7UR6AbstractPlanningInfo@@6B@ @2129
    ??_7UR6AbstractTerroristMgr@@6B@ @2130
    ??_7UR6FileManager@@6B@ @2131
    ??_7UR6GameColors@@6B@ @2132
    ??_7UR6GameMenuCom@@6B@ @2133
    ??_7UR6GameOptions@@6B@ @2134
    ??_7UR6MissionDescription@@6B@ @2135
    ??_7UR6Mod@@6B@ @2136
    ??_7UR6ModMgr@@6B@ @2137
    ??_7UR6ServerInfo@@6B@ @2138
    ??_7UReachSpec@@6B@ @2139
    ??_7URenderDevice@@6BFExec@@@ @2140
    ??_7URenderDevice@@6BUObject@@@ @2141
    ??_7URenderResource@@6B@ @2142
    ??_7URenderedMaterial@@6B@ @2143
    ??_7UShader@@6B@ @2144
    ??_7UShadowBitmapMaterial@@6B@ @2145
    ??_7USkeletalMesh@@6B@ @2146
    ??_7USkeletalMeshInstance@@6B@ @2147
    ??_7USkinVertexBuffer@@6B@ @2148
    ??_7USound@@6B@ @2149
    ??_7USoundGen@@6B@ @2150
    ??_7USparkEmitter@@6B@ @2151
    ??_7USpriteEmitter@@6B@ @2152
    ??_7UStaticMesh@@6B@ @2153
    ??_7UStaticMeshInstance@@6B@ @2154
    ??_7USubActionCameraEffect@@6B@ @2155
    ??_7USubActionCameraShake@@6B@ @2156
    ??_7USubActionFOV@@6B@ @2157
    ??_7USubActionFade@@6B@ @2158
    ??_7USubActionGameSpeed@@6B@ @2159
    ??_7USubActionOrientation@@6B@ @2160
    ??_7USubActionSceneSpeed@@6B@ @2161
    ??_7USubActionTrigger@@6B@ @2162
    ??_7UTerrainBrush@@6B@ @2163
    ??_7UTerrainBrushColor@@6B@ @2164
    ??_7UTerrainBrushEdgeTurn@@6B@ @2165
    ??_7UTerrainBrushFlatten@@6B@ @2166
    ??_7UTerrainBrushNoise@@6B@ @2167
    ??_7UTerrainBrushPaint@@6B@ @2168
    ??_7UTerrainBrushPlanningPaint@@6B@ @2169
    ??_7UTerrainBrushSelect@@6B@ @2170
    ??_7UTerrainBrushSmooth@@6B@ @2171
    ??_7UTerrainBrushTexPan@@6B@ @2172
    ??_7UTerrainBrushTexRotate@@6B@ @2173
    ??_7UTerrainBrushTexScale@@6B@ @2174
    ??_7UTerrainBrushVertexEdit@@6B@ @2175
    ??_7UTerrainBrushVisibility@@6B@ @2176
    ??_7UTerrainMaterial@@6B@ @2177
    ??_7UTerrainPrimitive@@6B@ @2178
    ??_7UTerrainSector@@6B@ @2179
    ??_7UTexCoordMaterial@@6B@ @2180
    ??_7UTexCoordSource@@6B@ @2181
    ??_7UTexEnvMap@@6B@ @2182
    ??_7UTexMatrix@@6B@ @2183
    ??_7UTexModifier@@6B@ @2184
    ??_7UTexOscillator@@6B@ @2185
    ??_7UTexPanner@@6B@ @2186
    ??_7UTexRotator@@6B@ @2187
    ??_7UTexScaler@@6B@ @2188
    ??_7UTexture@@6B@ @2189
    ??_7UVertMesh@@6B@ @2190
    ??_7UVertMeshInstance@@6B@ @2191
    ??_7UVertexBuffer@@6B@ @2192
    ??_7UVertexColor@@6B@ @2193
    ??_7UVertexStreamBase@@6B@ @2194
    ??_7UVertexStreamCOLOR@@6B@ @2195
    ??_7UVertexStreamPosNormTex@@6B@ @2196
    ??_7UVertexStreamUV@@6B@ @2197
    ??_7UVertexStreamVECTOR@@6B@ @2198
    ??_7UViewport@@6BFExec@@@ @2199
    ??_7UViewport@@6BFOutputDevice@@@ @2200
    ??_7UViewport@@6BUObject@@@ @2201
    ??_F?$TLazyArray@E@@QAEXXZ @2202
    ??_FFURL@@QAEXXZ @2203
    ?AVIRecording@@3HA @2204
    ?AVIStart@@YAXPBGPAVUEngine@@H@Z @2205
    ?AVIStop@@YAXXZ @2206
    ?AVITakeShot@@YAXPAVUEngine@@@Z @2207
    ?Abandon@AProjector@@UAEXXZ @2208
    ?AbortScoreSubmission@AGameInfo@@UAEXXZ @2209
    ?AcceptNearbyPath@AAIController@@UAEHPAVAActor@@@Z @2210
    ?AcceptNearbyPath@AController@@UAEHPAVAActor@@@Z @2211
    ?ActivateGroup@AR6DecalGroup@@QAEXXZ @2212
    ?ActiveVertStreamSize@USkeletalMeshInstance@@UAEHXZ @2213
    ?ActorEncroachmentCheck@FCollisionHash@@UAEPAUFCheckResult@@AAVFMemStack@@PAVAActor@@VFVector@@VFRotator@@KK@Z @2214
    ?ActorEncroachmentCheck@FCollisionOctree@@UAEPAUFCheckResult@@AAVFMemStack@@PAVAActor@@VFVector@@VFRotator@@KK@Z @2215
    ?ActorEncroachmentCheck@FOctreeNode@@QAEXPAVFCollisionOctree@@PBVFPlane@@@Z @2216
    ?ActorLineCheck@FCollisionHash@@UAEPAUFCheckResult@@AAVFMemStack@@VFVector@@11KKPAVAActor@@@Z @2217
    ?ActorLineCheck@FCollisionOctree@@UAEPAUFCheckResult@@AAVFMemStack@@VFVector@@11KKPAVAActor@@@Z @2218
    ?ActorNonZeroExtentLineCheck@FOctreeNode@@QAEXPAVFCollisionOctree@@PBVFPlane@@@Z @2219
    ?ActorOverlapCheck@FCollisionHash@@UAEPAUFCheckResult@@AAVFMemStack@@PAVAActor@@PAVFBox@@H@Z @2220
    ?ActorOverlapCheck@FCollisionOctree@@UAEPAUFCheckResult@@AAVFMemStack@@PAVAActor@@PAVFBox@@H@Z @2221
    ?ActorOverlapCheck@FOctreeNode@@QAEXPAVFCollisionOctree@@PBVFPlane@@@Z @2222
    ?ActorPointCheck@FCollisionHash@@UAEPAUFCheckResult@@AAVFMemStack@@VFVector@@1KKHPAVAActor@@@Z @2223
    ?ActorPointCheck@FCollisionOctree@@UAEPAUFCheckResult@@AAVFMemStack@@VFVector@@1KKHPAVAActor@@@Z @2224
    ?ActorPointCheck@FOctreeNode@@QAEXPAVFCollisionOctree@@PBVFPlane@@PAVAActor@@@Z @2225
    ?ActorRadiusCheck@FCollisionHash@@UAEPAUFCheckResult@@AAVFMemStack@@VFVector@@MK@Z @2226
    ?ActorRadiusCheck@FCollisionOctree@@UAEPAUFCheckResult@@AAVFMemStack@@VFVector@@MK@Z @2227
    ?ActorRadiusCheck@FOctreeNode@@QAEXPAVFCollisionOctree@@PBVFPlane@@@Z @2228
    ?ActorZeroExtentLineCheck@FOctreeNode@@QAEXPAVFCollisionOctree@@MMMMMMPBVFPlane@@@Z @2229
    ?ActualizeAnimLinkups@USkeletalMeshInstance@@UAEXXZ @2230
    ?Add@?$TArray@E@@QAEHH@Z @2231
    ?AddActor@FCollisionHash@@UAEXPAVAActor@@@Z @2232
    ?AddActor@FCollisionOctree@@UAEXPAVAActor@@@Z @2233
    ?AddBox@FTempLineBatcher@@QAEXVFBox@@VFColor@@@Z @2234
    ?AddDataPoint@FStatGraph@@QAEXVFString@@MH@Z @2235
    ?AddDecal@AR6DecalGroup@@QAEHPAVFVector@@PAVFRotator@@PAVUTexture@@HMMMMH@Z @2236
    ?AddDecal@AR6DecalManager@@QAEHPAVFVector@@PAVFRotator@@PAVUTexture@@W4eDecalType@@HMMMMH@Z @2237
    ?AddItem@?$TArray@E@@QAEHABE@Z @2238
    ?AddLine@FStatGraph@@QAEXVFString@@VFColor@@MM@Z @2239
    ?AddLine@FTempLineBatcher@@QAEXVFVector@@0VFColor@@@Z @2240
    ?AddLineAutoRange@FStatGraph@@QAEXVFString@@VFColor@@@Z @2241
    ?AddLinkerToMasterMap@UGameEngine@@QAEXPAVUNetDriver@@PAVAPawn@@@Z @2242
    ?AddLinkerToMasterMap@UGameEngine@@QAEXPAVUNetDriver@@PAVUMaterial@@@Z @2243
    ?AddLinkerToMasterMap@UGameEngine@@QAEXPAVUNetDriver@@PAVUMesh@@@Z @2244
    ?AddLinkerToMasterMap@UGameEngine@@QAEXPAVUNetDriver@@PAVUStaticMesh@@@Z @2245
    ?AddMyMarker@AAIScript@@UAEXPAVAActor@@@Z @2246
    ?AddMyMarker@AActor@@UAEXPAV1@@Z @2247
    ?AddMyMarker@ALadderVolume@@UAEXPAVAActor@@@Z @2248
    ?AddMyMarker@AMover@@UAEXPAVAActor@@@Z @2249
    ?AddMyMarker@AWarpZoneInfo@@UAEXPAVAActor@@@Z @2250
    ?AddOption@FURL@@QAEXPBG@Z @2251
    ?AddPoint@UR6AbstractPlanningInfo@@UAEXPAVAActor@@@Z @2252
    ?AddUniqueItem@?$TArray@E@@QAEHABE@Z @2253
    ?AddZeroed@?$TArray@E@@QAEHH@Z @2254
    ?AdjustAlignedActors@FTerrainTools@@QAEXXZ @2255
    ?AdjustFromWall@AAIController@@UAEXVFVector@@PAVAActor@@@Z @2256
    ?AdjustFromWall@AController@@UAEXVFVector@@PAVAActor@@@Z @2257
    ?AnimBlendParams@AActor@@QAEXHMMMVFName@@@Z @2258
    ?AnimForcePose@UMeshInstance@@UAEHVFName@@MMH@Z @2259
    ?AnimForcePose@USkeletalMeshInstance@@UAEHVFName@@MMH@Z @2260
    ?AnimForcePose@UVertMeshInstance@@UAEHVFName@@MMH@Z @2261
    ?AnimGetFrameCount@UMeshInstance@@UAEMPAX@Z @2262
    ?AnimGetFrameCount@USkeletalMeshInstance@@UAEMPAX@Z @2263
    ?AnimGetFrameCount@UVertMeshInstance@@UAEMPAX@Z @2264
    ?AnimGetGroup@UMeshInstance@@UAE?AVFName@@PAX@Z @2265
    ?AnimGetGroup@USkeletalMeshInstance@@UAE?AVFName@@PAX@Z @2266
    ?AnimGetGroup@UVertMeshInstance@@UAE?AVFName@@PAX@Z @2267
    ?AnimGetName@UMeshInstance@@UAE?AVFName@@PAX@Z @2268
    ?AnimGetName@USkeletalMeshInstance@@UAE?AVFName@@PAX@Z @2269
    ?AnimGetName@UVertMeshInstance@@UAE?AVFName@@PAX@Z @2270
    ?AnimGetNotifyCount@UMeshInstance@@UAEHPAX@Z @2271
    ?AnimGetNotifyCount@USkeletalMeshInstance@@UAEHPAX@Z @2272
    ?AnimGetNotifyCount@UVertMeshInstance@@UAEHPAX@Z @2273
    ?AnimGetNotifyObject@UMeshInstance@@UAEPAVUAnimNotify@@PAXH@Z @2274
    ?AnimGetNotifyObject@USkeletalMeshInstance@@UAEPAVUAnimNotify@@PAXH@Z @2275
    ?AnimGetNotifyObject@UVertMeshInstance@@UAEPAVUAnimNotify@@PAXH@Z @2276
    ?AnimGetNotifyText@UMeshInstance@@UAEPBGPAXH@Z @2277
    ?AnimGetNotifyText@USkeletalMeshInstance@@UAEPBGPAXH@Z @2278
    ?AnimGetNotifyText@UVertMeshInstance@@UAEPBGPAXH@Z @2279
    ?AnimGetNotifyTime@UMeshInstance@@UAEMPAXH@Z @2280
    ?AnimGetNotifyTime@USkeletalMeshInstance@@UAEMPAXH@Z @2281
    ?AnimGetNotifyTime@UVertMeshInstance@@UAEMPAXH@Z @2282
    ?AnimGetRate@UMeshInstance@@UAEMPAX@Z @2283
    ?AnimGetRate@USkeletalMeshInstance@@UAEMPAX@Z @2284
    ?AnimGetRate@UVertMeshInstance@@UAEMPAX@Z @2285
    ?AnimIsInGroup@UMeshInstance@@UAEHPAXVFName@@@Z @2286
    ?AnimIsInGroup@USkeletalMeshInstance@@UAEHPAXVFName@@@Z @2287
    ?AnimIsInGroup@UVertMeshInstance@@UAEHPAXVFName@@@Z @2288
    ?AnimStopLooping@UMeshInstance@@UAEHH@Z @2289
    ?AnimStopLooping@USkeletalMeshInstance@@UAEHH@Z @2290
    ?AnimStopLooping@UVertMeshInstance@@UAEHH@Z @2291
    ?Area@FPoly@@QAEMXZ @2292
    ?ArithOp@UTexture@@UAEXPAV1@W4ETextureArithOp@@@Z @2293
    ?AssertInSequenced@UChannel@@QAEXXZ @2294
    ?AssertValid@UNetConnection@@UAEXXZ @2295
    ?AssertValid@UNetDriver@@UAEXXZ @2296
    ?AssociatedLevelGeometry@AActor@@UAEPAV1@XZ @2297
    ?AssociatedLevelGeometry@ADoor@@UAEPAVAActor@@XZ @2298
    ?Attach@AProjector@@UAEXXZ @2299
    ?AttachProjector@AActor@@QAEXPAVAProjector@@@Z @2300
    ?AttachProjector@UModel@@QAEXHPAUFProjectorRenderInfo@@PAVFPlane@@@Z @2301
    ?AttachProjector@UTerrainSector@@QAEXPAVAProjector@@PAUFProjectorRenderInfo@@@Z @2302
    ?AttachProjectorClipped@UStaticMeshInstance@@UAEXPAVAActor@@PAVAProjector@@@Z @2303
    ?AttachToBone@AActor@@QAEHPAV1@VFName@@@Z @2304
    ?Audio@USound@@2PAVUAudioSubsystem@@A @2305
    ?BeginPainting@UTerrainBrush@@QAEHPAPAVUTexture@@PAPAVATerrainInfo@@@Z @2306
    ?BeginPrimitive@FCanvasUtil@@QAEXW4EPrimitiveType@@PAVUMaterial@@@Z @2307
    ?BeginTouch@AActor@@UAEXPAV1@@Z @2308
    ?BestMatch@UPalette@@QAEEVFColor@@H@Z @2309
    ?BlendToAlpha@USkeletalMeshInstance@@QAEXHMM@Z @2310
    ?BotOnlyPath@UReachSpec@@QAEHXZ @2311
    ?BoundProjectileVelocity@AActor@@UAEXXZ @2312
    ?BoxCheck@FConvexVolume@@QAEEVFVector@@0@Z @2313
    ?BoxLeaves@UModel@@QAE?AV?$TArray@H@@VFBox@@@Z @2314
    ?Brighten@FColor@@QAE?AV1@H@Z @2315
    ?Brightness@FColor@@QBEHXZ @2316
    ?Browse@UGameEngine@@UAEHVFURL@@PBV?$TMap@VFString@@V1@@@AAVFString@@@Z @2317
    ?Brush@ULevel@@QAEPAVABrush@@XZ @2318
    ?Build@UStaticMesh@@QAEXXZ @2319
    ?BuildActionSpotList@FPathBuilder@@QAEXPAVULevel@@@Z @2320
    ?BuildBound@UModel@@QAEXXZ @2321
    ?BuildCoords@ABrush@@QAEMPAVFModelCoords@@0@Z @2322
    ?BuildPivotsList@USkeletalMeshInstance@@QAEXXZ @2323
    ?BuildRenderData@UModel@@QAEXXZ @2324
    ?BuildServerMasterMap@UGameEngine@@UAEXPAVUNetDriver@@PAVULevel@@@Z @2325
    ?CacheArmPatch@UEngine@@UAEHPAVFGuid@@PAK@Z @2326
    ?CacheNetRelevancy@APawn@@QAEHHPAVAPlayerController@@PAVAActor@@@Z @2327
    ?CacheOptimize@FRawIndexBuffer@@UAEXXZ @2328
    ?CalcCoords@ATerrainInfo@@QAEXXZ @2329
    ?CalcLayerTexCoords@ATerrainInfo@@QAEXXZ @2330
    ?CalcMatrix@AProjector@@UAEXXZ @2331
    ?CalcMovingAverage@FStats@@QAEXHK@Z @2332
    ?CalcNormal@FPoly@@QAEHH@Z @2333
    ?CalculateNormals@USkeletalMesh@@QAEXAAV?$TArray@VFVector@@@@H@Z @2334
    ?CalculateRadiusMultiplier@ULevel@@UAEMHH@Z @2335
    ?CallLogThisActor@ALevelInfo@@QAEXPAVAActor@@@Z @2336
    ?CanCrouchWalk@APawn@@QAEHABVFVector@@0@Z @2337
    ?CanHear@AController@@UAEHVFVector@@MPAVAActor@@W4ENoiseType@@W4EPawnType@@@Z @2338
    ?CanHearSound@AController@@QAEHVFVector@@PAVAActor@@MAAV2@@Z @2339
    ?CanProneWalk@APawn@@QAEHABVFVector@@0@Z @2340
    ?CanReach@ANavigationPoint@@QAEHPAV1@M@Z @2341
    ?CanSerializeObject@UPackageMapLevel@@UAEHPAVUObject@@@Z @2342
    ?CanStepUp@AR6ColBox@@QAEHVFVector@@@Z @2343
    ?CancelPending@UGameEngine@@UAEXXZ @2344
    ?ChallengeResponse@UEngine@@UAEHH@Z @2345
    ?ChallengeResponse@UGameEngine@@UAEHH@Z @2346
    ?ChangeDrawingSurface@URenderDevice@@UAEXW4ER6SwitchSurface@@H@Z @2347
    ?ChangeInputSet@UViewport@@QAEXE@Z @2348
    ?ChangeOrientation@ASceneManager@@QAEXUFOrientation@@@Z @2349
    ?ChannelClasses@UChannel@@2PAPAVUClass@@A @2350
    ?CheckActorLocations@FCollisionHash@@UAEXPAVULevel@@@Z @2351
    ?CheckActorLocations@FCollisionOctree@@UAEXPAVULevel@@@Z @2352
    ?CheckActorNotReferenced@FCollisionHash@@UAEXPAVAActor@@@Z @2353
    ?CheckActorNotReferenced@FCollisionOctree@@UAEXPAVAActor@@@Z @2354
    ?CheckActorNotReferenced@FOctreeNode@@QAEXPAVAActor@@@Z @2355
    ?CheckAnimFinished@AActor@@UAEHH@Z @2356
    ?CheckAnimFinished@AController@@UAEHH@Z @2357
    ?CheckCircularReferences@UCombiner@@UAEHAAV?$TArray@PAVUMaterial@@@@@Z @2358
    ?CheckCircularReferences@UMaterial@@UAEHAAV?$TArray@PAVUMaterial@@@@@Z @2359
    ?CheckCircularReferences@UMaterialSwitch@@UAEHAAV?$TArray@PAVUMaterial@@@@@Z @2360
    ?CheckCircularReferences@UModifier@@UAEHAAV?$TArray@PAVUMaterial@@@@@Z @2361
    ?CheckCircularReferences@UShader@@UAEHAAV?$TArray@PAVUMaterial@@@@@Z @2362
    ?CheckComputeDataOnLoad@ATerrainInfo@@QAEXXZ @2363
    ?CheckEncroachment@ULevel@@UAEHPAVAActor@@VFVector@@VFRotator@@H@Z @2364
    ?CheckEnemyVisible@AController@@QAEXXZ @2365
    ?CheckFallback@UMaterial@@UAEPAV1@XZ @2366
    ?CheckFallback@UShader@@UAEPAVUMaterial@@XZ @2367
    ?CheckFallback@UTerrainMaterial@@UAEPAVUMaterial@@XZ @2368
    ?CheckForErrors@AActor@@UAEXXZ @2369
    ?CheckForErrors@ABrush@@UAEXXZ @2370
    ?CheckForErrors@AKConstraint@@UAEXXZ @2371
    ?CheckForErrors@ALevelInfo@@UAEXXZ @2372
    ?CheckForErrors@ANavigationPoint@@UAEXXZ @2373
    ?CheckForErrors@ANote@@UAEXXZ @2374
    ?CheckForErrors@APawn@@UAEXXZ @2375
    ?CheckForErrors@AR6ActionSpot@@UAEXXZ @2376
    ?CheckForErrors@ASceneManager@@UAEXXZ @2377
    ?CheckForErrors@ATerrainInfo@@UAEXXZ @2378
    ?CheckForLedges@APawn@@UAE?AVFVector@@PAVAActor@@V2@11AAH2M@Z @2379
    ?CheckForProjectors@AEmitter@@UAEHXZ @2380
    ?CheckHearSound@AController@@UAEXPAVAActor@@HPAVUSound@@VFVector@@MH@Z @2381
    ?CheckHearSound@APlayerController@@UAEXPAVAActor@@HPAVUSound@@VFVector@@MH@Z @2382
    ?CheckIsEmpty@FCollisionHash@@UAEXXZ @2383
    ?CheckIsEmpty@FCollisionOctree@@UAEXXZ @2384
    ?CheckIsEmpty@FOctreeNode@@QAEXXZ @2385
    ?CheckNoiseHearing@AActor@@QAEXMW4ENoiseType@@W4EPawnType@@W4ESoundType@@@Z @2386
    ?CheckOwnerUpdated@AActor@@UAEHXZ @2387
    ?CheckOwnerUpdated@AKConstraint@@UAEHXZ @2388
    ?CheckOwnerUpdated@APawn@@UAEHXZ @2389
    ?CheckSlice@ULevel@@UAEHAAVFVector@@V2@AAHPAVAActor@@@Z @2390
    ?CheckSymmetry@ANavigationPoint@@UAEXPAV1@@Z @2391
    ?CheckSymmetry@APathNode@@UAEXPAVANavigationPoint@@@Z @2392
    ?CleanUp@UBeamEmitter@@UAEXXZ @2393
    ?CleanUp@UParticleEmitter@@UAEXXZ @2394
    ?CleanUp@USparkEmitter@@UAEXXZ @2395
    ?CleanUp@USpriteEmitter@@UAEXXZ @2396
    ?CleanUpPruned@ANavigationPoint@@QAEXXZ @2397
    ?CleanupDestroyed@ULevel@@UAEXH@Z @2398
    ?Clear@FMipmap@@QAEXXZ @2399
    ?Clear@FStats@@QAEXXZ @2400
    ?Clear@UTexture@@UAEXK@Z @2401
    ?Clear@UTexture@@UAEXVFColor@@@Z @2402
    ?ClearAnimNotifys@UMeshAnimation@@QAEXXZ @2403
    ?ClearAttachAliases@USkeletalMesh@@QAEXXZ @2404
    ?ClearChannel@UMeshInstance@@UAEXH@Z @2405
    ?ClearChannel@USkeletalMeshInstance@@UAEXH@Z @2406
    ?ClearFallbacks@UMaterial@@SAXXZ @2407
    ?ClearPaths@AJumpDest@@UAEXXZ @2408
    ?ClearPaths@ALadder@@UAEXXZ @2409
    ?ClearPaths@ANavigationPoint@@UAEXXZ @2410
    ?ClearRenderData@UModel@@QAEXPAVURenderDevice@@@Z @2411
    ?ClearSerpentine@APawn@@QAEXXZ @2412
    ?ClearSkelAnims@USkeletalMeshInstance@@QAEXXZ @2413
    ?Click@FHitObserver@@UAEXABUFHitCause@@ABUHHitProxy@@@Z @2414
    ?Click@HHitProxy@@UAEXABUFHitCause@@@Z @2415
    ?Click@UGameEngine@@UAEXPAVUViewport@@KMM@Z @2416
    ?Click@UTexture@@UAEXKMM@Z @2417
    ?ClientLeaveServer@UR6AbstractGameManager@@UAEXXZ @2418
    ?ClipPolygon@FConvexVolume@@QAE?AVFPoly@@V2@@Z @2419
    ?ClipPolygonPrecise@FConvexVolume@@QAE?AVFPoly@@V2@@Z @2420
    ?Close@UActorChannel@@UAEXXZ @2421
    ?Close@UChannel@@UAEXXZ @2422
    ?CloseVideo@URenderDevice@@UAEXPAVUCanvas@@@Z @2423
    ?CollisionTag@FCollisionHash@@2HA @2424
    ?CombineLayerWeights@ATerrainInfo@@QAEXXZ @2425
    ?CompactActors@ULevel@@UAEXXZ @2426
    ?Compress@UTexture@@QAEHW4ETextureFormat@@HPAUFDXTCompressionOptions@@@Z @2427
    ?CompressLightmaps@UModel@@QAEXXZ @2428
    ?ConnectionInterrupted@UR6AbstractGameManager@@UAEXH@Z @2429
    ?ConstantTimeTick@UTexture@@UAEXXZ @2430
    ?ConvertDXT@UTexture@@QAE?AW4ETextureFormat@@HHHPAPAX@Z @2431
    ?ConvertDXT@UTexture@@QAE?AW4ETextureFormat@@XZ @2432
    ?ConvertHeightmapFormat@ATerrainInfo@@QAEXXZ @2433
    ?ConvertPolyFlagsToMaterial@UMaterial@@QAEPAV1@PAV1@K@Z @2434
    ?ConvexVolumeMultiCheck@UModel@@QAEHAAVFBox@@PAVFPlane@@HVFVector@@AAV?$TArray@H@@M@Z @2435
    ?CopyAnimation@USkeletalMeshInstance@@QAEXHH@Z @2436
    ?CopyPosRotScaleFrom@ABrush@@UAEXPAV1@@Z @2437
    ?CopyR6Availability@AActor@@QAEXPAV1@@Z @2438
    ?CountBytes@?$TArray@E@@QAEXAAVFArchive@@@Z @2439
    ?CreateChannel@UNetConnection@@QAEPAVUChannel@@W4EChannelType@@HH@Z @2440
    ?CreateColorRange@UTexture@@QAEXXZ @2441
    ?CreateMips@UTexture@@QAEXHH@Z @2442
    ?Crouch@APawn@@QAEXH@Z @2443
    ?CurrentSkelAnim@USkeletalMeshInstance@@UAEPAVUMeshAnimation@@H@Z @2444
    ?DWColor@FColor@@QAEAAKXZ @2445
    ?DWColor@FColor@@QBEABKXZ @2446
    ?DbgAddLine@AActor@@QAEXVFVector@@0VFColor@@@Z @2447
    ?DbgVectorAdd@AActor@@QAEXVFVector@@0HVFString@@PAVFColor@@@Z @2448
    ?DbgVectorDraw@AActor@@QAEXPAVFLevelSceneNode@@AAVFRenderInterface@@@Z @2449
    ?DbgVectorReset@AActor@@QAEXH@Z @2450
    ?Decompress@UTexture@@QAEHW4ETextureFormat@@@Z @2451
    ?DefaultHost@FURL@@2VFString@@A @2452
    ?DefaultLOD@UTexture@@QAEHXZ @2453
    ?DefaultLocalMap@FURL@@2VFString@@A @2454
    ?DefaultMap@FURL@@2VFString@@A @2455
    ?DefaultMapExt@FURL@@2VFString@@A @2456
    ?DefaultName@FURL@@2VFString@@A @2457
    ?DefaultPort@FURL@@2HA @2458
    ?DefaultPortal@FURL@@2VFString@@A @2459
    ?DefaultProtocol@FURL@@2VFString@@A @2460
    ?DefaultProtocolDescription@FURL@@2VFString@@A @2461
    ?DefaultSaveExt@FURL@@2VFString@@A @2462
    ?Delete@FRebuildTools@@QAEXVFString@@@Z @2463
    ?DeletePathSamples@ASceneManager@@QAEXXZ @2464
    ?Deproject@FSceneNode@@QAE?AVFVector@@VFPlane@@@Z @2465
    ?Describe@UActorChannel@@UAE?AVFString@@XZ @2466
    ?Describe@UChannel@@UAE?AVFString@@XZ @2467
    ?Describe@UControlChannel@@UAE?AVFString@@XZ @2468
    ?Describe@UFileChannel@@UAE?AVFString@@XZ @2469
    ?Destroy@AActor@@UAEXXZ @2470
    ?Destroy@AFluidSurfaceInfo@@UAEXXZ @2471
    ?Destroy@AFluidSurfaceOscillator@@UAEXXZ @2472
    ?Destroy@ANavigationPoint@@UAEXXZ @2473
    ?Destroy@APawn@@UAEXXZ @2474
    ?Destroy@AProjector@@UAEXXZ @2475
    ?Destroy@ATerrainInfo@@UAEXXZ @2476
    ?Destroy@UActorChannel@@UAEXXZ @2477
    ?Destroy@UBinaryFileDownload@@UAEXXZ @2478
    ?Destroy@UChannel@@UAEXXZ @2479
    ?Destroy@UChannelDownload@@UAEXXZ @2480
    ?Destroy@UClient@@UAEXXZ @2481
    ?Destroy@UControlChannel@@UAEXXZ @2482
    ?Destroy@UCubemap@@UAEXXZ @2483
    ?Destroy@UDownload@@UAEXXZ @2484
    ?Destroy@UEngine@@UAEXXZ @2485
    ?Destroy@UFileChannel@@UAEXXZ @2486
    ?Destroy@UGameEngine@@UAEXXZ @2487
    ?Destroy@ULevel@@UAEXXZ @2488
    ?Destroy@ULevelBase@@UAEXXZ @2489
    ?Destroy@UModel@@UAEXXZ @2490
    ?Destroy@UMotionBlur@@UAEXXZ @2491
    ?Destroy@UNetConnection@@UAEXXZ @2492
    ?Destroy@UNetDriver@@UAEXXZ @2493
    ?Destroy@UParticleEmitter@@UAEXXZ @2494
    ?Destroy@UPlayer@@UAEXXZ @2495
    ?Destroy@UProjectorPrimitive@@UAEXXZ @2496
    ?Destroy@UShadowBitmapMaterial@@UAEXXZ @2497
    ?Destroy@USkeletalMesh@@UAEXXZ @2498
    ?Destroy@USkeletalMeshInstance@@UAEXXZ @2499
    ?Destroy@USound@@UAEXXZ @2500
    ?Destroy@UStaticMesh@@UAEXXZ @2501
    ?Destroy@UTexture@@UAEXXZ @2502
    ?Destroy@UViewport@@UAEXXZ @2503
    ?DestroyActor@ULevel@@UAEHPAVAActor@@H@Z @2504
    ?Detach@AProjector@@UAEXH@Z @2505
    ?DetachFromBone@AActor@@QAEHPAV1@@Z @2506
    ?DetachProjector@AActor@@QAEXPAVAProjector@@@Z @2507
    ?DetachProjectorClipped@UStaticMeshInstance@@UAEXPAVAProjector@@@Z @2508
    ?DetailChange@ULevel@@UAEXH@Z @2509
    ?DirectAxis@UInput@@UAEXW4EInputKey@@MM@Z @2510
    ?DisplayCopyright@UInteractionMaster@@QAEXXZ @2511
    ?DisplayGameVideo@UGameEngine@@UAEXW4eGameVideoType@@@Z @2512
    ?DisplayVideo@URenderDevice@@UAEXPAVUCanvas@@PAXH@Z @2513
    ?DistanceToHashPlane@FCollisionHash@@AAEMHMMH@Z @2514
    ?DoesLineIntersect@FPoly@@QAEHVFVector@@0PAV2@@Z @2515
    ?DownloadDone@UBinaryFileDownload@@UAEXXZ @2516
    ?DownloadDone@UDownload@@UAEXXZ @2517
    ?DownloadError@UBinaryFileDownload@@UAEXPBG@Z @2518
    ?DownloadError@UDownload@@UAEXPBG@Z @2519
    ?Draw3DLine@URenderDevice@@UAEXVFVector@@0VFColor@@PAVUTexture@@MMMM@Z @2520
    ?Draw@FOctreeNode@@QAEXVFColor@@HPBVFPlane@@@Z @2521
    ?Draw@UGameEngine@@UAEXPAVUViewport@@HPAEPAH@Z @2522
    ?Draw@UKMeshProps@@QAEXPAVFRenderInterface@@H@Z @2523
    ?DrawBox@FLineBatcher@@QAEXVFBox@@VFColor@@@Z @2524
    ?DrawCircle@FLineBatcher@@QAEXVFVector@@00VFColor@@MH@Z @2525
    ?DrawCollisionCylinders@USkeletalMeshInstance@@QAEXPAVFSceneNode@@@Z @2526
    ?DrawConvexVolume@FLineBatcher@@QAEXVFConvexVolume@@VFColor@@@Z @2527
    ?DrawCylinder@FLineBatcher@@QAEXPAVFRenderInterface@@VFVector@@111VFColor@@MMH@Z @2528
    ?DrawDirectionalArrow@FLineBatcher@@QAEXVFVector@@VFRotator@@VFColor@@M@Z @2529
    ?DrawFlaggedActors@FOctreeNode@@QAEXPAVFCollisionOctree@@PBVFPlane@@@Z @2530
    ?DrawIcon@UCanvas@@UAEXPAVUMaterial@@MMMMMVFPlane@@1@Z @2531
    ?DrawInGameMap@AHUD@@UAEXPAVFCameraSceneNode@@PAVUViewport@@@Z @2532
    ?DrawLine@FCanvasUtil@@QAEXMMMMVFColor@@@Z @2533
    ?DrawLine@FLineBatcher@@QAEXVFVector@@0VFColor@@@Z @2534
    ?DrawPattern@UCanvas@@UAEXPAVUMaterial@@MMMMMMMMVFPlane@@1@Z @2535
    ?DrawPoint@FCanvasUtil@@QAEXMMMMMVFColor@@@Z @2536
    ?DrawPoint@FLineBatcher@@QAEXPAVFSceneNode@@VFVector@@VFColor@@@Z @2537
    ?DrawRadar@AHUD@@UAEXPAVFCameraSceneNode@@PAVUViewport@@@Z @2538
    ?DrawSpecificModeInfo@AHUD@@UAEXPAVFCameraSceneNode@@PAVUViewport@@@Z @2539
    ?DrawSphere@FLineBatcher@@QAEXVFVector@@VFColor@@MH@Z @2540
    ?DrawSprite@@YAXMVFVector@@0PAVUMaterial@@VFPlane@@EPAVFCameraSceneNode@@PAVFRenderInterface@@MHH@Z @2541
    ?DrawSprite@@YAXPAVAActor@@VFVector@@PAVUMaterial@@PAVFLevelSceneNode@@PAVFRenderInterface@@@Z @2542
    ?DrawTile@FCanvasUtil@@QAEXMMMMMMMMMPAVUMaterial@@VFColor@@@Z @2543
    ?DrawTile@UCanvas@@UAEXPAVUMaterial@@MMMMMMMMMVFPlane@@1M@Z @2544
    ?DrawTileClipped@UCanvas@@QAEXPAVUMaterial@@MMMMMM@Z @2545
    ?DrawTileRotated@FCanvasUtil@@QAEXMMMMMMMMMPAVUMaterial@@VFColor@@M@Z @2546
    ?ENGINE_AIHearSound@@3VFName@@A @2547
    ?ENGINE_Accept@@3VFName@@A @2548
    ?ENGINE_AcceptInventory@@3VFName@@A @2549
    ?ENGINE_ActionStart@@3VFName@@A @2550
    ?ENGINE_ActorEntered@@3VFName@@A @2551
    ?ENGINE_ActorEnteredVolume@@3VFName@@A @2552
    ?ENGINE_ActorLeaving@@3VFName@@A @2553
    ?ENGINE_ActorLeavingVolume@@3VFName@@A @2554
    ?ENGINE_AddCameraEffect@@3VFName@@A @2555
    ?ENGINE_AddInteraction@@3VFName@@A @2556
    ?ENGINE_AnimEnd@@3VFName@@A @2557
    ?ENGINE_Attach@@3VFName@@A @2558
    ?ENGINE_BaseChange@@3VFName@@A @2559
    ?ENGINE_BeginEvent@@3VFName@@A @2560
    ?ENGINE_BeginPlay@@3VFName@@A @2561
    ?ENGINE_BreathTimer@@3VFName@@A @2562
    ?ENGINE_Broadcast@@3VFName@@A @2563
    ?ENGINE_BroadcastLocalized@@3VFName@@A @2564
    ?ENGINE_BroadcastLocalizedMessage@@3VFName@@A @2565
    ?ENGINE_Bump@@3VFName@@A @2566
    ?ENGINE_CanPlayIntroVideo@@3VFName@@A @2567
    ?ENGINE_CanPlayOutroVideo@@3VFName@@A @2568
    ?ENGINE_ChangeAnimation@@3VFName@@A @2569
    ?ENGINE_ClientHearSound@@3VFName@@A @2570
    ?ENGINE_ClientMessage@@3VFName@@A @2571
    ?ENGINE_ClientPBKickedOutMessage@@3VFName@@A @2572
    ?ENGINE_ClientSetNewViewTarget@@3VFName@@A @2573
    ?ENGINE_ClientTravel@@3VFName@@A @2574
    ?ENGINE_ConnectionFailed@@3VFName@@A @2575
    ?ENGINE_ConvertKeyToLocalisation@@3VFName@@A @2576
    ?ENGINE_DemoPlaySound@@3VFName@@A @2577
    ?ENGINE_DeployWeaponBipod@@3VFName@@A @2578
    ?ENGINE_Destroyed@@3VFName@@A @2579
    ?ENGINE_Detach@@3VFName@@A @2580
    ?ENGINE_DetailChange@@3VFName@@A @2581
    ?ENGINE_EncroachedBy@@3VFName@@A @2582
    ?ENGINE_EncroachingOn@@3VFName@@A @2583
    ?ENGINE_EndClimbLadder@@3VFName@@A @2584
    ?ENGINE_EndCrouch@@3VFName@@A @2585
    ?ENGINE_EndEvent@@3VFName@@A @2586
    ?ENGINE_EndedRotation@@3VFName@@A @2587
    ?ENGINE_EnemyNotVisible@@3VFName@@A @2588
    ?ENGINE_EyePosition@@3VFName@@A @2589
    ?ENGINE_Falling@@3VFName@@A @2590
    ?ENGINE_FellOutOfWorld@@3VFName@@A @2591
    ?ENGINE_FinishedInterpolation@@3VFName@@A @2592
    ?ENGINE_ForceGenerate@@3VFName@@A @2593
    ?ENGINE_GMProcessMsg@@3VFName@@A @2594
    ?ENGINE_GainedChild@@3VFName@@A @2595
    ?ENGINE_GameEnding@@3VFName@@A @2596
    ?ENGINE_GameTypeUseNbOfTerroristToSpawn@@3VFName@@A @2597
    ?ENGINE_Generate@@3VFName@@A @2598
    ?ENGINE_GetBackgroundsRoot@@3VFName@@A @2599
    ?ENGINE_GetBeaconText@@3VFName@@A @2600
    ?ENGINE_GetCampaignDir@@3VFName@@A @2601
    ?ENGINE_GetDefaultCampaignDir@@3VFName@@A @2602
    ?ENGINE_GetGameTypeIndex@@3VFName@@A @2603
    ?ENGINE_GetGameTypeName@@3VFName@@A @2604
    ?ENGINE_GetIniFilesDir@@3VFName@@A @2605
    ?ENGINE_GetLocalLogFileName@@3VFName@@A @2606
    ?ENGINE_GetLocalPlayerIp@@3VFName@@A @2607
    ?ENGINE_GetMapsDir@@3VFName@@A @2608
    ?ENGINE_GetModKeyword@@3VFName@@A @2609
    ?ENGINE_GetModName@@3VFName@@A @2610
    ?ENGINE_GetNbMods@@3VFName@@A @2611
    ?ENGINE_GetReticuleInfo@@3VFName@@A @2612
    ?ENGINE_GetServerIni@@3VFName@@A @2613
    ?ENGINE_GetSkins@@3VFName@@A @2614
    ?ENGINE_GetStoreGamePwd@@3VFName@@A @2615
    ?ENGINE_GetVideosRoot@@3VFName@@A @2616
    ?ENGINE_GetViewRotation@@3VFName@@A @2617
    ?ENGINE_HandleServerMsg@@3VFName@@A @2618
    ?ENGINE_HeadVolumeChange@@3VFName@@A @2619
    ?ENGINE_HearNoise@@3VFName@@A @2620
    ?ENGINE_HitWall@@3VFName@@A @2621
    ?ENGINE_Init@@3VFName@@A @2622
    ?ENGINE_InitGame@@3VFName@@A @2623
    ?ENGINE_InitInputSystem@@3VFName@@A @2624
    ?ENGINE_InitModMgr@@3VFName@@A @2625
    ?ENGINE_InitMultiPlayerOptions@@3VFName@@A @2626
    ?ENGINE_Initialize@@3VFName@@A @2627
    ?ENGINE_Initialized@@3VFName@@A @2628
    ?ENGINE_IsGameTypePlayWithNonRainbowNPCs@@3VFName@@A @2629
    ?ENGINE_IsGoggles@@3VFName@@A @2630
    ?ENGINE_IsMissionPack@@3VFName@@A @2631
    ?ENGINE_IsPlayerPassiveSpectator@@3VFName@@A @2632
    ?ENGINE_IsRavenShield@@3VFName@@A @2633
    ?ENGINE_KApplyForce@@3VFName@@A @2634
    ?ENGINE_KForceExceed@@3VFName@@A @2635
    ?ENGINE_KImpact@@3VFName@@A @2636
    ?ENGINE_KSkelConvulse@@3VFName@@A @2637
    ?ENGINE_KVelDropBelow@@3VFName@@A @2638
    ?ENGINE_KeyFrameReached@@3VFName@@A @2639
    ?ENGINE_KilledBy@@3VFName@@A @2640
    ?ENGINE_Landed@@3VFName@@A @2641
    ?ENGINE_LaunchR6MainMenu@@3VFName@@A @2642
    ?ENGINE_LightUpdateDirect@@3VFName@@A @2643
    ?ENGINE_LogGameSpecial2@@3VFName@@A @2644
    ?ENGINE_LogGameSpecial@@3VFName@@A @2645
    ?ENGINE_LogThis@@3VFName@@A @2646
    ?ENGINE_Login@@3VFName@@A @2647
    ?ENGINE_LongFall@@3VFName@@A @2648
    ?ENGINE_LostChild@@3VFName@@A @2649
    ?ENGINE_MayFall@@3VFName@@A @2650
    ?ENGINE_MenuLoadProfile@@3VFName@@A @2651
    ?ENGINE_MonitoredPawnAlert@@3VFName@@A @2652
    ?ENGINE_NewServerState@@3VFName@@A @2653
    ?ENGINE_Notify@@3VFName@@A @2654
    ?ENGINE_NotifyAfterLevelChange@@3VFName@@A @2655
    ?ENGINE_NotifyBump@@3VFName@@A @2656
    ?ENGINE_NotifyHeadVolumeChange@@3VFName@@A @2657
    ?ENGINE_NotifyHitMover@@3VFName@@A @2658
    ?ENGINE_NotifyHitWall@@3VFName@@A @2659
    ?ENGINE_NotifyLanded@@3VFName@@A @2660
    ?ENGINE_NotifyLevelChange@@3VFName@@A @2661
    ?ENGINE_NotifyPhysicsVolumeChange@@3VFName@@A @2662
    ?ENGINE_PawnEnteredVolume@@3VFName@@A @2663
    ?ENGINE_PawnIsMoving@@3VFName@@A @2664
    ?ENGINE_PawnLeavingVolume@@3VFName@@A @2665
    ?ENGINE_PawnStoppedMoving@@3VFName@@A @2666
    ?ENGINE_PhysicsChangedFor@@3VFName@@A @2667
    ?ENGINE_PhysicsVolumeChange@@3VFName@@A @2668
    ?ENGINE_PlayDying@@3VFName@@A @2669
    ?ENGINE_PlayFalling@@3VFName@@A @2670
    ?ENGINE_PlayJump@@3VFName@@A @2671
    ?ENGINE_PlayLandingAnimation@@3VFName@@A @2672
    ?ENGINE_PlayWeaponAnimation@@3VFName@@A @2673
    ?ENGINE_PlayerCalcView@@3VFName@@A @2674
    ?ENGINE_PlayerInput@@3VFName@@A @2675
    ?ENGINE_PlayerSeesMe@@3VFName@@A @2676
    ?ENGINE_PlayerTick@@3VFName@@A @2677
    ?ENGINE_PostBeginPlay@@3VFName@@A @2678
    ?ENGINE_PostFadeRender@@3VFName@@A @2679
    ?ENGINE_PostLogin@@3VFName@@A @2680
    ?ENGINE_PostNetBeginPlay@@3VFName@@A @2681
    ?ENGINE_PostRender@@3VFName@@A @2682
    ?ENGINE_PostTeleport@@3VFName@@A @2683
    ?ENGINE_PostTouch@@3VFName@@A @2684
    ?ENGINE_PreBeginPlay@@3VFName@@A @2685
    ?ENGINE_PreClientTravel@@3VFName@@A @2686
    ?ENGINE_PreLogOut@@3VFName@@A @2687
    ?ENGINE_PreLogin@@3VFName@@A @2688
    ?ENGINE_PreTeleport@@3VFName@@A @2689
    ?ENGINE_PrepareForMove@@3VFName@@A @2690
    ?ENGINE_ProcessHeart@@3VFName@@A @2691
    ?ENGINE_Process_KeyEvent@@3VFName@@A @2692
    ?ENGINE_Process_KeyType@@3VFName@@A @2693
    ?ENGINE_Process_Message@@3VFName@@A @2694
    ?ENGINE_Process_PostRender@@3VFName@@A @2695
    ?ENGINE_Process_PreRender@@3VFName@@A @2696
    ?ENGINE_Process_Tick@@3VFName@@A @2697
    ?ENGINE_R6ConnectionFailed@@3VFName@@A @2698
    ?ENGINE_R6ConnectionInProgress@@3VFName@@A @2699
    ?ENGINE_R6ConnectionInterrupted@@3VFName@@A @2700
    ?ENGINE_R6ConnectionSuccess@@3VFName@@A @2701
    ?ENGINE_R6DeadEndedMoving@@3VFName@@A @2702
    ?ENGINE_R6MakeNoise@@3VFName@@A @2703
    ?ENGINE_R6ProgressMsg@@3VFName@@A @2704
    ?ENGINE_R6QueryCircumstantialAction@@3VFName@@A @2705
    ?ENGINE_ReceiveLocalizedMessage@@3VFName@@A @2706
    ?ENGINE_ReceivedEngineWeapon@@3VFName@@A @2707
    ?ENGINE_ReceivedWeapons@@3VFName@@A @2708
    ?ENGINE_RemoveCameraEffect@@3VFName@@A @2709
    ?ENGINE_RemoveInteraction@@3VFName@@A @2710
    ?ENGINE_RenderFirstPersonGun@@3VFName@@A @2711
    ?ENGINE_Reset@@3VFName@@A @2712
    ?ENGINE_RestartServer@@3VFName@@A @2713
    ?ENGINE_RunAll@@3VFName@@A @2714
    ?ENGINE_SaveAndResetData@@3VFName@@A @2715
    ?ENGINE_SaveRemoteServerSettings@@3VFName@@A @2716
    ?ENGINE_SceneEnded@@3VFName@@A @2717
    ?ENGINE_SceneStarted@@3VFName@@A @2718
    ?ENGINE_SeeMonster@@3VFName@@A @2719
    ?ENGINE_SeePlayer@@3VFName@@A @2720
    ?ENGINE_ServerDisconnected@@3VFName@@A @2721
    ?ENGINE_ServerTravel@@3VFName@@A @2722
    ?ENGINE_SetAnimAction@@3VFName@@A @2723
    ?ENGINE_SetCurrentMod@@3VFName@@A @2724
    ?ENGINE_SetFocusTo@@3VFName@@A @2725
    ?ENGINE_SetIdentifyTarget@@3VFName@@A @2726
    ?ENGINE_SetInitialState@@3VFName@@A @2727
    ?ENGINE_SetMatchResult@@3VFName@@A @2728
    ?ENGINE_SetProgressTime@@3VFName@@A @2729
    ?ENGINE_SetWalking@@3VFName@@A @2730
    ?ENGINE_ShowUpgradeMenu@@3VFName@@A @2731
    ?ENGINE_ShowWeaponParticules@@3VFName@@A @2732
    ?ENGINE_SpecialCost@@3VFName@@A @2733
    ?ENGINE_SpecialHandling@@3VFName@@A @2734
    ?ENGINE_StartCrouch@@3VFName@@A @2735
    ?ENGINE_StopAnimForRG@@3VFName@@A @2736
    ?ENGINE_StopPlayFiring@@3VFName@@A @2737
    ?ENGINE_SuggestMovePreparation@@3VFName@@A @2738
    ?ENGINE_TeamMessage@@3VFName@@A @2739
    ?ENGINE_Tick@@3VFName@@A @2740
    ?ENGINE_Timer@@3VFName@@A @2741
    ?ENGINE_ToggleRadar@@3VFName@@A @2742
    ?ENGINE_TornOff@@3VFName@@A @2743
    ?ENGINE_Touch@@3VFName@@A @2744
    ?ENGINE_TravelPostAccept@@3VFName@@A @2745
    ?ENGINE_TravelPreAccept@@3VFName@@A @2746
    ?ENGINE_Trigger@@3VFName@@A @2747
    ?ENGINE_TriggerEvent@@3VFName@@A @2748
    ?ENGINE_UnTouch@@3VFName@@A @2749
    ?ENGINE_UnTrigger@@3VFName@@A @2750
    ?ENGINE_UpdateServer@@3VFName@@A @2751
    ?ENGINE_UpdateShadow@@3VFName@@A @2752
    ?ENGINE_UpdateWeaponAttachment@@3VFName@@A @2753
    ?ENGINE_UsedBy@@3VFName@@A @2754
    ?ENGINE_UserDisconnected@@3VFName@@A @2755
    ?ENGINE_WorldSpaceOverlays@@3VFName@@A @2756
    ?ENGINE_ZoneChange@@3VFName@@A @2757
    ?EdCallback@UEngine@@UAEXKHK@Z @2758
    ?EditorDestroyActor@ULevel@@QAEHPAVAActor@@@Z @2759
    ?Empty@?$TArray@E@@QAEXH@Z @2760
    ?EmptyElements@FKAggregateGeom@@QAEXXZ @2761
    ?EmptyModel@UModel@@QAEXHH@Z @2762
    ?EnableChannelNotify@USkeletalMeshInstance@@QAEHHH@Z @2763
    ?EnableCollision@AR6ColBox@@QAEXHHH@Z @2764
    ?Encompasses@AVolume@@QAEHVFVector@@@Z @2765
    ?EncroachingWorldGeometry@ULevel@@UAEHAAUFCheckResult@@VFVector@@1KPAVALevelInfo@@PAVAActor@@@Z @2766
    ?EndPainting@UTerrainBrush@@QAEXPAVUTexture@@PAVATerrainInfo@@@Z @2767
    ?EndTouch@AActor@@QAEXPAV1@H@Z @2768
    ?Evaluate@FBezier@@QAEMPAVFVector@@HPAV?$TArray@VFVector@@@@@Z @2769
    ?Exec@FStatGraph@@QAEHPBGAAVFOutputDevice@@@Z @2770
    ?Exec@UClient@@UAEHPBGAAVFOutputDevice@@@Z @2771
    ?Exec@UDemoRecDriver@@UAEHPBGAAVFOutputDevice@@@Z @2772
    ?Exec@UEngine@@UAEHPBGAAVFOutputDevice@@@Z @2773
    ?Exec@UGameEngine@@UAEHPBGAAVFOutputDevice@@@Z @2774
    ?Exec@UInput@@UAEHPBGAAVFOutputDevice@@@Z @2775
    ?Exec@UInteractionMaster@@QAEHPBGAAVFOutputDevice@@@Z @2776
    ?Exec@ULevel@@UAEHPBGAAVFOutputDevice@@@Z @2777
    ?Exec@UNetConnection@@UAEHPBGAAVFOutputDevice@@@Z @2778
    ?Exec@UNetDriver@@UAEHPBGAAVFOutputDevice@@@Z @2779
    ?Exec@UNullRenderDevice@@UAEHPBGAAVFOutputDevice@@@Z @2780
    ?Exec@UPlayer@@UAEHPBGAAVFOutputDevice@@@Z @2781
    ?Exec@UViewport@@UAEHPBGAAVFOutputDevice@@@Z @2782
    ?ExecInputCommands@UInput@@MAEXPBGAAVFOutputDevice@@@Z @2783
    ?ExecMacro@UViewport@@QAEXPBGAAVFOutputDevice@@@Z @2784
    ?ExecProfile@UViewport@@QAEXPBGHAAVFOutputDevice@@@Z @2785
    ?ExecServerProf@UEngine@@QAEHPBGHAAVFOutputDevice@@@Z @2786
    ?Execute@UTerrainBrush@@UAEXH@Z @2787
    ?Execute@UTerrainBrushColor@@UAEXH@Z @2788
    ?Execute@UTerrainBrushEdgeTurn@@UAEXH@Z @2789
    ?Execute@UTerrainBrushFlatten@@UAEXH@Z @2790
    ?Execute@UTerrainBrushNoise@@UAEXH@Z @2791
    ?Execute@UTerrainBrushPaint@@UAEXH@Z @2792
    ?Execute@UTerrainBrushPlanningPaint@@UAEXH@Z @2793
    ?Execute@UTerrainBrushSelect@@UAEXH@Z @2794
    ?Execute@UTerrainBrushSmooth@@UAEXH@Z @2795
    ?Execute@UTerrainBrushVisibility@@UAEXH@Z @2796
    ?ExecuteHits@UViewport@@QAEXABUFHitCause@@PAEHPAGPAVFColor@@PAPAVAActor@@@Z @2797
    ?Exit@UEngine@@UAEXXZ @2798
    ?Exit@UGameEngine@@UAEXXZ @2799
    ?Exit@UNullRenderDevice@@UAEXPAVUViewport@@@Z @2800
    ?FBrightness@FColor@@QBEMXZ @2801
    ?FGetHSV@@YA?AVFPlane@@EEE@Z @2802
    ?Faces@FPoly@@QBEHABV1@@Z @2803
    ?FarMoveActor@ULevel@@UAEHPAVAActor@@VFVector@@HHHH@Z @2804
    ?FastLineCheck@UModel@@QAEEVFVector@@0@Z @2805
    ?FillIndexBuffer@AFluidSurfaceInfo@@QAEXPAX@Z @2806
    ?FillVertexBuffer@AFluidSurfaceInfo@@QAEXPAX@Z @2807
    ?FillVertexBuffer@USpriteEmitter@@UAEHPAVFSpriteParticleVertex@@PAVFLevelSceneNode@@@Z @2808
    ?FilterActor@FLevelSceneNode@@UAEHPAVAActor@@@Z @2809
    ?FilterActor@FLightMapSceneNode@@UAEHPAVAActor@@@Z @2810
    ?FilterTest@FOctreeNode@@QAEXPAVFBox@@HPAV?$TArray@PAVFOctreeNode@@@@PBVFPlane@@@Z @2811
    ?Finalize@FPoly@@QAEHH@Z @2812
    ?FindActorsToAlign@FTerrainTools@@QAEXXZ @2813
    ?FindAlternatePath@ANavigationPoint@@QAEHPAVUReachSpec@@H@Z @2814
    ?FindAnimObjectForSequence@USkeletalMeshInstance@@UAEPAVUMeshAnimation@@VFName@@@Z @2815
    ?FindAxisName@UInput@@MBEPAMPAVAActor@@PBG@Z @2816
    ?FindBase@AActor@@QAEXXZ @2817
    ?FindBase@ADoor@@UAEXXZ @2818
    ?FindBase@ALiftCenter@@UAEXXZ @2819
    ?FindBase@ANavigationPoint@@UAEXXZ @2820
    ?FindBestJump@APawn@@QAE?AW4ETestMoveResult@@VFVector@@@Z @2821
    ?FindBlockingNormal@FPathBuilder@@AAEXAAVFVector@@@Z @2822
    ?FindButtonName@UInput@@MBEPAEPAVAActor@@PBG@Z @2823
    ?FindCenter@ALadderVolume@@QAE?AVFVector@@XZ @2824
    ?FindFile@UR6FileManager@@UAEHPAVFString@@@Z @2825
    ?FindGroup@AR6DecalManager@@QAEPAVAR6DecalGroup@@W4eDecalType@@@Z @2826
    ?FindItem@?$TArray@E@@QBEHABEAAH@Z @2827
    ?FindItemIndex@?$TArray@E@@QBEHABE@Z @2828
    ?FindJumpUp@APawn@@QAE?AW4ETestMoveResult@@VFVector@@@Z @2829
    ?FindKeyName@UInput@@UBEHPBGAAW4EInputKey@@@Z @2830
    ?FindNearestVertex@UModel@@QBEMABVFVector@@AAV2@MAAH@Z @2831
    ?FindPath@AController@@QAEPAVAActor@@VFVector@@PAV2@H@Z @2832
    ?FindSlopeRotation@AActor@@UAE?AVFRotator@@VFVector@@V2@@Z @2833
    ?FindSlopeRotation@APawn@@UAE?AVFRotator@@VFVector@@V2@@Z @2834
    ?FindSpot@ULevel@@UAEHVFVector@@AAV2@HPAVAActor@@@Z @2835
    ?FindTop@ALadderVolume@@QAE?AVFVector@@V2@@Z @2836
    ?Fix@FPoly@@QAEHXZ @2837
    ?FixPalette@UPalette@@QAEXXZ @2838
    ?FixUpLevel@UGameEngine@@QAEXXZ @2839
    ?FlipFaces@USkeletalMesh@@QAEXXZ @2840
    ?Flush@FCanvasUtil@@QAEXXZ @2841
    ?Flush@FLineBatcher@@QAEXK@Z @2842
    ?Flush@UClient@@UAEXH@Z @2843
    ?Flush@UEngine@@UAEXH@Z @2844
    ?Flush@UNullRenderDevice@@UAEXPAVUViewport@@@Z @2845
    ?FlushNet@UDemoRecConnection@@UAEXXZ @2846
    ?FlushNet@UNetConnection@@UAEXXZ @2847
    ?FlushResource@UNullRenderDevice@@UAEX_K@Z @2848
    ?ForceAnimRate@USkeletalMeshInstance@@QAEXHM@Z @2849
    ?FreezeAnimAt@UMeshInstance@@UAEHMH@Z @2850
    ?FreezeAnimAt@USkeletalMeshInstance@@UAEHMH@Z @2851
    ?GCache@@3VFMemCache@@A @2852
    ?GDbgLine@@3PAUSTDbgLine@@A @2853
    ?GDbgLineIndex@@3HA @2854
    ?GEngineMem@@3VFMemStack@@A @2855
    ?GEngineStats@@3VFEngineStats@@A @2856
    ?GEvilTest@@3PAVAR6eviLTesting@@A @2857
    ?GGameOptions@@3PAVUR6GameOptions@@A @2858
    ?GGlobalTempObjects@@3PAVUGlobalTempObjects@@A @2859
    ?GMatineeTools@@3VFMatineeTools@@A @2860
    ?GModMgr@@3PAVUR6ModMgr@@A @2861
    ?GNewCollisionHash@@YAPAVFCollisionHashBase@@XZ @2862
    ?GR6GameManager@@3PAVUR6AbstractGameManager@@A @2863
    ?GR6MissionDescription@@3PAVUR6MissionDescription@@A @2864
    ?GRebuildTools@@3VFRebuildTools@@A @2865
    ?GServerOptions@@3PAVUR6ServerInfo@@A @2866
    ?GStatGraph@@3PAVFStatGraph@@A @2867
    ?GStats@@3VFStats@@A @2868
    ?GTempLineBatcher@@3PAVFTempLineBatcher@@A @2869
    ?GTerrainTools@@3VFTerrainTools@@A @2870
    ?GameServiceTick@UR6AbstractGameManager@@UAEXPAVUConsole@@@Z @2871
    ?GenerateLodModel@USkeletalMesh@@QAEXHMMHH@Z @2872
    ?GenerateTriangles@UTerrainSector@@QAEXXZ @2873
    ?Get@UBitmapMaterial@@UAEPAV1@NPAVUViewport@@@Z @2874
    ?Get@UProxyBitmapMaterial@@UAEPAVUBitmapMaterial@@NPAVUViewport@@@Z @2875
    ?Get@UShadowBitmapMaterial@@UAEPAVUBitmapMaterial@@NPAVUViewport@@@Z @2876
    ?Get@UTexture@@UAEPAVUBitmapMaterial@@NPAVUViewport@@@Z @2877
    ?GetActionFromPct@ASceneManager@@QAEPAVUMatAction@@M@Z @2878
    ?GetActionIdx@FMatineeTools@@QAEHPAVASceneManager@@PAVUMatAction@@@Z @2879
    ?GetActionKey@UInput@@UAE?AVFString@@E@Z @2880
    ?GetActionPctFromScenePct@ASceneManager@@QAEMM@Z @2881
    ?GetActiveAnimFrame@UMeshInstance@@UAEMH@Z @2882
    ?GetActiveAnimFrame@USkeletalMeshInstance@@UAEMH@Z @2883
    ?GetActiveAnimFrame@UVertMeshInstance@@UAEMH@Z @2884
    ?GetActiveAnimRate@UMeshInstance@@UAEMH@Z @2885
    ?GetActiveAnimRate@USkeletalMeshInstance@@UAEMH@Z @2886
    ?GetActiveAnimRate@UVertMeshInstance@@UAEMH@Z @2887
    ?GetActiveAnimSequence@UMeshInstance@@UAE?AVFName@@H@Z @2888
    ?GetActiveAnimSequence@USkeletalMeshInstance@@UAE?AVFName@@H@Z @2889
    ?GetActiveAnimSequence@UVertMeshInstance@@UAE?AVFName@@H@Z @2890
    ?GetActor@HActor@@UAEPAVAActor@@XZ @2891
    ?GetActor@HHitProxy@@UAEPAVAActor@@XZ @2892
    ?GetActor@HTerrain@@UAEPAVAActor@@XZ @2893
    ?GetActor@UActorChannel@@QAEPAVAActor@@XZ @2894
    ?GetActor@ULodMeshInstance@@UAEPAVAActor@@XZ @2895
    ?GetActor@UMeshInstance@@UAEPAVAActor@@XZ @2896
    ?GetActorExtent@FCollisionHash@@QAEXPAVAActor@@AAH11111@Z @2897
    ?GetActorIndex@ULevel@@QAEHPAVAActor@@@Z @2898
    ?GetActorSceneNode@FActorSceneNode@@UAEPAV1@XZ @2899
    ?GetActorSceneNode@FSceneNode@@UAEPAVFActorSceneNode@@XZ @2900
    ?GetAdjust@FTerrainTools@@QAEHXZ @2901
    ?GetAmbientLightingActor@AActor@@QAEPAV1@XZ @2902
    ?GetAnimChannelCount@USkeletalMeshInstance@@QAEHXZ @2903
    ?GetAnimCount@UMeshInstance@@UAEHXZ @2904
    ?GetAnimCount@USkeletalMeshInstance@@UAEHXZ @2905
    ?GetAnimCount@UVertMeshInstance@@UAEHXZ @2906
    ?GetAnimFrame@USkeletalMeshInstance@@QAEMH@Z @2907
    ?GetAnimIndexed@UMeshInstance@@UAEPAXH@Z @2908
    ?GetAnimIndexed@USkeletalMeshInstance@@UAEPAXH@Z @2909
    ?GetAnimIndexed@UVertMeshInstance@@UAEPAXH@Z @2910
    ?GetAnimNamed@UMeshInstance@@UAEPAXVFName@@@Z @2911
    ?GetAnimNamed@USkeletalMeshInstance@@UAEPAXVFName@@@Z @2912
    ?GetAnimNamed@UVertMeshInstance@@UAEPAXVFName@@@Z @2913
    ?GetAnimRateOnChannel@USkeletalMeshInstance@@QAEMH@Z @2914
    ?GetAnimSeq@ULodMeshInstance@@QAEPAUFMeshAnimSeq@@VFName@@@Z @2915
    ?GetAnimSeq@UMeshAnimation@@UAEPAUFMeshAnimSeq@@VFName@@@Z @2916
    ?GetAnimSeq@UVertMeshInstance@@QAEPAUFMeshAnimSeq@@VFName@@@Z @2917
    ?GetAnimSequence@USkeletalMeshInstance@@QAE?AVFName@@H@Z @2918
    ?GetAvailableResolutions@URenderDevice@@UAEXAAV?$TArray@UFResolutionInfo@@@@@Z @2919
    ?GetAvailableVideoMemory@URenderDevice@@UAEKXZ @2920
    ?GetBlendAlpha@USkeletalMeshInstance@@QAEMH@Z @2921
    ?GetBoneCoords@USkeletalMeshInstance@@QAE?AVFCoords@@KH@Z @2922
    ?GetBoneCylinder@USkeletalMeshInstance@@QAEHHAAVFCylinder@@@Z @2923
    ?GetBoneName@USkeletalMeshInstance@@QAE?AVFName@@V2@@Z @2924
    ?GetBoneRotation@USkeletalMeshInstance@@QAE?AVFRotator@@KH@Z @2925
    ?GetBoneRotation@USkeletalMeshInstance@@QAE?AVFRotator@@VFName@@H@Z @2926
    ?GetCacheId@FAnimMeshVertexStream@@UAE_KXZ @2927
    ?GetCacheId@FBspVertexStream@@UAE_KXZ @2928
    ?GetCacheId@FCanvasUtil@@UAE_KXZ @2929
    ?GetCacheId@FLightMap@@UAE_KXZ @2930
    ?GetCacheId@FLightMapTexture@@UAE_KXZ @2931
    ?GetCacheId@FLineBatcher@@UAE_KXZ @2932
    ?GetCacheId@FRaw32BitIndexBuffer@@UAE_KXZ @2933
    ?GetCacheId@FRawColorStream@@UAE_KXZ @2934
    ?GetCacheId@FRawIndexBuffer@@UAE_KXZ @2935
    ?GetCacheId@FSkinVertexStream@@UAE_KXZ @2936
    ?GetCacheId@FStaticCubemap@@UAE_KXZ @2937
    ?GetCacheId@FStaticLightMapTexture@@UAE_KXZ @2938
    ?GetCacheId@FStaticMeshUVStream@@UAE_KXZ @2939
    ?GetCacheId@FStaticMeshVertexStream@@UAE_KXZ @2940
    ?GetCacheId@FStaticTexture@@UAE_KXZ @2941
    ?GetCameraSceneNode@FCameraSceneNode@@UAEPAV1@XZ @2942
    ?GetCameraSceneNode@FSceneNode@@UAEPAVFCameraSceneNode@@XZ @2943
    ?GetChild@FLightMapTexture@@UAEPAVFTexture@@HPAH0@Z @2944
    ?GetClampedBitmap@AFluidSurfaceInfo@@QAEHHH@Z @2945
    ?GetClosestVertex@ATerrainInfo@@QAEHAAVFVector@@PAV2@PAH2@Z @2946
    ?GetColBoxLocationFromOwner@AR6ColBox@@QAEXAAVFVector@@M@Z @2947
    ?GetCollisionBoundingBox@UFluidSurfacePrimitive@@UBE?AVFBox@@PBVAActor@@@Z @2948
    ?GetCollisionBoundingBox@UMeshInstance@@UAE?AVFBox@@PBVAActor@@@Z @2949
    ?GetCollisionBoundingBox@UModel@@UBE?AVFBox@@PBVAActor@@@Z @2950
    ?GetCollisionBoundingBox@UPrimitive@@UBE?AVFBox@@PBVAActor@@@Z @2951
    ?GetCollisionBoundingBox@UProjectorPrimitive@@UBE?AVFBox@@PBVAActor@@@Z @2952
    ?GetCollisionBoundingBox@USkeletalMesh@@UBE?AVFBox@@PBVAActor@@@Z @2953
    ?GetCollisionBoundingBox@UStaticMesh@@UBE?AVFBox@@PBVAActor@@@Z @2954
    ?GetColor@UConstantColor@@UAE?AVFColor@@M@Z @2955
    ?GetColor@UConstantMaterial@@UAE?AVFColor@@M@Z @2956
    ?GetColor@UFadeColor@@UAE?AVFColor@@M@Z @2957
    ?GetColors@UTexture@@QAEPAVFColor@@XZ @2958
    ?GetColorsIndex@UTexture@@QAEKXZ @2959
    ?GetComponents@FAnimMeshVertexStream@@UAEHPAUFVertexComponent@@@Z @2960
    ?GetComponents@FBspVertexStream@@UAEHPAUFVertexComponent@@@Z @2961
    ?GetComponents@FCanvasUtil@@UAEHPAUFVertexComponent@@@Z @2962
    ?GetComponents@FLineBatcher@@UAEHPAUFVertexComponent@@@Z @2963
    ?GetComponents@FRawColorStream@@UAEHPAUFVertexComponent@@@Z @2964
    ?GetComponents@FSkinVertexStream@@UAEHPAUFVertexComponent@@@Z @2965
    ?GetComponents@FStaticMeshColorStream@@UAEHPAUFVertexComponent@@@Z @2966
    ?GetComponents@FStaticMeshUVStream@@UAEHPAUFVertexComponent@@@Z @2967
    ?GetComponents@FStaticMeshVertexStream@@UAEHPAUFVertexComponent@@@Z @2968
    ?GetContents@FRaw32BitIndexBuffer@@UAEXPAX@Z @2969
    ?GetContents@FRawIndexBuffer@@UAEXPAX@Z @2970
    ?GetCurrent@FMatineeTools@@QAEPAVASceneManager@@XZ @2971
    ?GetCurrent@FRebuildTools@@QAEPAVFRebuildOptions@@XZ @2972
    ?GetCurrentAction@FMatineeTools@@QAEPAVUMatAction@@XZ @2973
    ?GetCurrentSubAction@FMatineeTools@@QAEPAVUMatSubAction@@XZ @2974
    ?GetCurrentTerrainInfo@FTerrainTools@@QAEPAVATerrainInfo@@XZ @2975
    ?GetCylinderExtent@AActor@@QBE?AVFVector@@XZ @2976
    ?GetData@UVertexBuffer@@UAEPAXXZ @2977
    ?GetData@UVertexStreamCOLOR@@UAEPAXXZ @2978
    ?GetData@UVertexStreamPosNormTex@@UAEPAXXZ @2979
    ?GetData@UVertexStreamUV@@UAEPAXXZ @2980
    ?GetData@UVertexStreamVECTOR@@UAEPAXXZ @2981
    ?GetDataSize@UVertexBuffer@@UAEHXZ @2982
    ?GetDataSize@UVertexStreamCOLOR@@UAEHXZ @2983
    ?GetDataSize@UVertexStreamPosNormTex@@UAEHXZ @2984
    ?GetDataSize@UVertexStreamUV@@UAEHXZ @2985
    ?GetDataSize@UVertexStreamVECTOR@@UAEHXZ @2986
    ?GetDefaultPhysicsVolume@ALevelInfo@@QAEPAVAPhysicsVolume@@XZ @2987
    ?GetDestination@AR6ColBox@@QAEXAAVFVector@@AAVFRotator@@@Z @2988
    ?GetDiffuse@UMaterial@@UAEPAV1@XZ @2989
    ?GetDiffuse@UShader@@UAEPAVUMaterial@@XZ @2990
    ?GetDisplayAs@ALevelInfo@@QAE?AVFString@@V2@@Z @2991
    ?GetDistanceFog@FRenderInterface@@UAEXAAHAAM1AAVFColor@@@Z @2992
    ?GetDriver@UDemoRecConnection@@QAEPAVUDemoRecDriver@@XZ @2993
    ?GetDriver@UNetConnection@@QAEPAVUNetDriver@@XZ @2994
    ?GetDuration@USound@@UAEMXZ @2995
    ?GetEdgeTurnBitmap@ATerrainInfo@@QAEHHH@Z @2996
    ?GetElementCount@FKAggregateGeom@@QAEHXZ @2997
    ?GetEncroachCenter@UModel@@UAE?AVFVector@@PAVAActor@@@Z @2998
    ?GetEncroachCenter@UPrimitive@@UAE?AVFVector@@PAVAActor@@@Z @2999
    ?GetEncroachCenter@UProjectorPrimitive@@UAE?AVFVector@@PAVAActor@@@Z @3000
    ?GetEncroachCenter@UStaticMesh@@UAE?AVFVector@@PAVAActor@@@Z @3001
    ?GetEncroachExtent@UModel@@UAE?AVFVector@@PAVAActor@@@Z @3002
    ?GetEncroachExtent@UPrimitive@@UAE?AVFVector@@PAVAActor@@@Z @3003
    ?GetEncroachExtent@UProjectorPrimitive@@UAE?AVFVector@@PAVAActor@@@Z @3004
    ?GetEncroachExtent@UStaticMesh@@UAE?AVFVector@@PAVAActor@@@Z @3005
    ?GetExecFromBrushName@FTerrainTools@@QAE?AVFString@@AAV2@@Z @3006
    ?GetFROTATOR@@YAHPBG0AAVFRotator@@H@Z @3007
    ?GetFROTATOR@@YAHPBGAAVFRotator@@H@Z @3008
    ?GetFVECTOR@@YAHPBG0AAVFVector@@@Z @3009
    ?GetFVECTOR@@YAHPBGAAVFVector@@@Z @3010
    ?GetFace@FStaticCubemap@@UAEPAVFTexture@@H@Z @3011
    ?GetFileName@UR6FileManager@@UAEXHPAVFString@@@Z @3012
    ?GetFirstMip@FLightMap@@UAEHXZ @3013
    ?GetFirstMip@FLightMapTexture@@UAEHXZ @3014
    ?GetFirstMip@FStaticCubemap@@UAEHXZ @3015
    ?GetFirstMip@FStaticLightMapTexture@@UAEHXZ @3016
    ?GetFirstMip@FStaticTexture@@UAEHXZ @3017
    ?GetFloorOffset@FTerrainTools@@QAEHXZ @3018
    ?GetFormat@FLightMap@@UAE?AW4ETextureFormat@@XZ @3019
    ?GetFormat@FLightMapTexture@@UAE?AW4ETextureFormat@@XZ @3020
    ?GetFormat@FStaticCubemap@@UAE?AW4ETextureFormat@@XZ @3021
    ?GetFormat@FStaticLightMapTexture@@UAE?AW4ETextureFormat@@XZ @3022
    ?GetFormat@FStaticTexture@@UAE?AW4ETextureFormat@@XZ @3023
    ?GetFormatDesc@UTexture@@QAE?AVFString@@XZ @3024
    ?GetFrame@ULodMeshInstance@@UAEXPAVAActor@@PAVFLevelSceneNode@@PAVFVector@@HAAHK@Z @3025
    ?GetFrame@UMeshInstance@@UAEXPAVAActor@@PAVFLevelSceneNode@@PAVFVector@@HAAHK@Z @3026
    ?GetFrame@USkeletalMeshInstance@@UAEXPAVAActor@@PAVFLevelSceneNode@@PAVFVector@@HAAHK@Z @3027
    ?GetFrame@UVertMeshInstance@@UAEXPAVAActor@@PAVFLevelSceneNode@@PAVFVector@@HAAHK@Z @3028
    ?GetFromName@FRebuildTools@@QAEPAVFRebuildOptions@@VFString@@@Z @3029
    ?GetGSCreateUbiServer@UR6AbstractGameManager@@UAEHXZ @3030
    ?GetGlobalVertex@ATerrainInfo@@QAEHHH@Z @3031
    ?GetGlobalVertex@UTerrainSector@@QAEHHH@Z @3032
    ?GetHashIndices@FCollisionHash@@QAEXVFVector@@AAH11@Z @3033
    ?GetHashLink@FCollisionHash@@QAEAAPAUFCollisionLink@1@HHHAAH@Z @3034
    ?GetHeartBeatStatus@AR6EngineWeapon@@UAEHXZ @3035
    ?GetHeight@FLightMap@@UAEHXZ @3036
    ?GetHeight@FLightMapTexture@@UAEHXZ @3037
    ?GetHeight@FStaticCubemap@@UAEHXZ @3038
    ?GetHeight@FStaticLightMapTexture@@UAEHXZ @3039
    ?GetHeight@FStaticTexture@@UAEHXZ @3040
    ?GetHeightmap@ATerrainInfo@@QAEGHH@Z @3041
    ?GetHitActor@AActor@@QAEPAV1@XZ @3042
    ?GetIdxFromName@FRebuildTools@@QAEHVFString@@@Z @3043
    ?GetIndexSize@FRaw32BitIndexBuffer@@UAEHXZ @3044
    ?GetIndexSize@FRawIndexBuffer@@UAEHXZ @3045
    ?GetInnerRadius@FTerrainTools@@QAEHXZ @3046
    ?GetInputAction@UInput@@QAE?AW4EInputAction@@XZ @3047
    ?GetInputDelta@UInput@@QAEMXZ @3048
    ?GetKey@UInput@@UAEEPBG@Z @3049
    ?GetKeyName@UInput@@UBEPBGW4EInputKey@@@Z @3050
    ?GetLastUpdateTime@UTexture@@QAENXZ @3051
    ?GetLayerAlpha@ATerrainInfo@@QAEEHHHPAVUTexture@@@Z @3052
    ?GetLevel@AActor@@QBEPAVULevel@@XZ @3053
    ?GetLevel@UDemoRecDriver@@QAEPAVULevel@@XZ @3054
    ?GetLevelInfo@ULevel@@QAEPAVALevelInfo@@XZ @3055
    ?GetLevelSceneNode@FLevelSceneNode@@UAEPAV1@XZ @3056
    ?GetLevelSceneNode@FSceneNode@@UAEPAVFLevelSceneNode@@XZ @3057
    ?GetLocalVertex@UTerrainSector@@QAEHHH@Z @3058
    ?GetLocation@ASceneManager@@QAE?AVFVector@@PAV?$TArray@VFVector@@@@M@Z @3059
    ?GetMaterial@ULodMeshInstance@@UAEPAVUMaterial@@HPAVAActor@@@Z @3060
    ?GetMaterial@UMeshInstance@@UAEPAVUMaterial@@HPAVAActor@@@Z @3061
    ?GetMaterial@USkeletalMeshInstance@@UAEPAVUMaterial@@HPAVAActor@@@Z @3062
    ?GetMaterial@UVertMeshInstance@@UAEPAVUMaterial@@HPAVAActor@@@Z @3063
    ?GetMatrix@UTexEnvMap@@UAEPAVFMatrix@@M@Z @3064
    ?GetMatrix@UTexMatrix@@UAEPAVFMatrix@@M@Z @3065
    ?GetMatrix@UTexModifier@@UAEPAVFMatrix@@M@Z @3066
    ?GetMatrix@UTexOscillator@@UAEPAVFMatrix@@M@Z @3067
    ?GetMatrix@UTexPanner@@UAEPAVFMatrix@@M@Z @3068
    ?GetMatrix@UTexRotator@@UAEPAVFMatrix@@M@Z @3069
    ?GetMatrix@UTexScaler@@UAEPAVFMatrix@@M@Z @3070
    ?GetMaxSpeed@APawn@@QAEMXZ @3071
    ?GetMaxStepUp@AR6ColBox@@QAEM_NM@Z @3072
    ?GetMaxTickRate@UEngine@@UAEMXZ @3073
    ?GetMaxTickRate@UGameEngine@@UAEMXZ @3074
    ?GetMesh@ULodMeshInstance@@UAEPAVUMesh@@XZ @3075
    ?GetMesh@UMeshInstance@@UAEPAVUMesh@@XZ @3076
    ?GetMeshVerts@ULodMeshInstance@@UAEXPAVAActor@@PAVFVector@@HAAH@Z @3077
    ?GetMeshVerts@USkeletalMeshInstance@@UAEXPAVAActor@@PAVFVector@@HAAH@Z @3078
    ?GetMeshVerts@UVertMeshInstance@@UAEXPAVAActor@@PAVFVector@@HAAH@Z @3079
    ?GetMip@UTexture@@QAEPAUFMipmapBase@@H@Z @3080
    ?GetMirrorAxis@FTerrainTools@@QAEHXZ @3081
    ?GetMirrorSceneNode@FMirrorSceneNode@@UAEPAV1@XZ @3082
    ?GetMirrorSceneNode@FSceneNode@@UAEPAVFMirrorSceneNode@@XZ @3083
    ?GetMovement@UMeshAnimation@@UAEPAVMotionChunk@@VFName@@@Z @3084
    ?GetName@FRebuildOptions@@QAE?AVFString@@XZ @3085
    ?GetName@HActor@@UBEPBGXZ @3086
    ?GetName@HBspSurf@@UBEPBGXZ @3087
    ?GetName@HCoords@@UBEPBGXZ @3088
    ?GetName@HHitProxy@@UBEPBGXZ @3089
    ?GetName@HMaterialTree@@UBEPBGXZ @3090
    ?GetName@HMatineeAction@@UBEPBGXZ @3091
    ?GetName@HMatineeScene@@UBEPBGXZ @3092
    ?GetName@HMatineeSubAction@@UBEPBGXZ @3093
    ?GetName@HMatineeTimePath@@UBEPBGXZ @3094
    ?GetName@HTerrain@@UBEPBGXZ @3095
    ?GetName@HTerrainToolLayer@@UBEPBGXZ @3096
    ?GetNbFile@UR6FileManager@@UAEHPAVFString@@0@Z @3097
    ?GetNearestIndex@AFluidSurfaceInfo@@QAEXABVFVector@@AAH1@Z @3098
    ?GetNetBuoyancy@AActor@@QAEXAAM0@Z @3099
    ?GetNetPriority@AActor@@UAEMPAV1@MM@Z @3100
    ?GetNetPriority@APawn@@UAEMPAVAActor@@MM@Z @3101
    ?GetNextAction@FMatineeTools@@QAEPAVUMatAction@@PAVASceneManager@@PAV2@@Z @3102
    ?GetNextMovementAction@FMatineeTools@@QAEPAVUMatAction@@PAVASceneManager@@PAV2@@Z @3103
    ?GetNumChildren@FLightMapTexture@@UAEHXZ @3104
    ?GetNumMips@FLightMap@@UAEHXZ @3105
    ?GetNumMips@FLightMapTexture@@UAEHXZ @3106
    ?GetNumMips@FStaticCubemap@@UAEHXZ @3107
    ?GetNumMips@FStaticLightMapTexture@@UAEHXZ @3108
    ?GetNumMips@FStaticTexture@@UAEHXZ @3109
    ?GetNumMips@UTexture@@QAEHXZ @3110
    ?GetOptimizedRepList@AActor@@UAEPAHPAEPAUFPropertyRetirement@@PAHPAVUPackageMap@@PAVUActorChannel@@@Z @3111
    ?GetOptimizedRepList@AController@@UAEPAHPAEPAUFPropertyRetirement@@PAHPAVUPackageMap@@PAVUActorChannel@@@Z @3112
    ?GetOptimizedRepList@AGameReplicationInfo@@UAEPAHPAEPAUFPropertyRetirement@@PAHPAVUPackageMap@@PAVUActorChannel@@@Z @3113
    ?GetOptimizedRepList@ALevelInfo@@UAEPAHPAEPAUFPropertyRetirement@@PAHPAVUPackageMap@@PAVUActorChannel@@@Z @3114
    ?GetOptimizedRepList@AMover@@UAEPAHPAEPAUFPropertyRetirement@@PAHPAVUPackageMap@@PAVUActorChannel@@@Z @3115
    ?GetOptimizedRepList@APawn@@UAEPAHPAEPAUFPropertyRetirement@@PAHPAVUPackageMap@@PAVUActorChannel@@@Z @3116
    ?GetOptimizedRepList@APhysicsVolume@@UAEPAHPAEPAUFPropertyRetirement@@PAHPAVUPackageMap@@PAVUActorChannel@@@Z @3117
    ?GetOptimizedRepList@APlayerController@@UAEPAHPAEPAUFPropertyRetirement@@PAHPAVUPackageMap@@PAVUActorChannel@@@Z @3118
    ?GetOptimizedRepList@APlayerReplicationInfo@@UAEPAHPAEPAUFPropertyRetirement@@PAHPAVUPackageMap@@PAVUActorChannel@@@Z @3119
    ?GetOptimizedRepList@AR6AbstractCircumstantialActionQuery@@UAEPAHPAEPAUFPropertyRetirement@@PAHPAVUPackageMap@@PAVUActorChannel@@@Z @3120
    ?GetOption@FURL@@QBEPBGPBG0@Z @3121
    ?GetOrientationDesc@FMatineeTools@@QAE?AVFString@@H@Z @3122
    ?GetOuterRadius@FTerrainTools@@QAEHXZ @3123
    ?GetOuterUClient@UViewport@@QBEPAVUClient@@XZ @3124
    ?GetPartialSize@FAnimMeshVertexStream@@UAEHXZ @3125
    ?GetPathStyle@FMatineeTools@@QAEHPAVUMatAction@@@Z @3126
    ?GetPawnOrColBoxOwner@AActor@@UBEPAVAPawn@@XZ @3127
    ?GetPawnOrColBoxOwner@APawn@@UBEPAV1@XZ @3128
    ?GetPawnOrColBoxOwner@AR6ColBox@@UBEPAVAPawn@@XZ @3129
    ?GetPeriod@FSoundData@@QAEMXZ @3130
    ?GetPhysicsVolume@ALevelInfo@@QAEPAVAPhysicsVolume@@VFVector@@PAVAActor@@H@Z @3131
    ?GetPlanningFloorMap@ATerrainInfo@@QAEHHH@Z @3132
    ?GetPlayerNetworkAddress@APlayerController@@QAE?AVFString@@XZ @3133
    ?GetPlayerPawn@AActor@@UBEPAVAPawn@@XZ @3134
    ?GetPlayerPawn@APawn@@UBEPAV1@XZ @3135
    ?GetPrevAction@FMatineeTools@@QAEPAVUMatAction@@PAVASceneManager@@PAV2@@Z @3136
    ?GetPrimitive@AActor@@UAEPAVUPrimitive@@XZ @3137
    ?GetPrimitive@ABrush@@UAEPAVUPrimitive@@XZ @3138
    ?GetPrimitive@AFluidSurfaceInfo@@UAEPAVUPrimitive@@XZ @3139
    ?GetPrimitive@AProjector@@UAEPAVUPrimitive@@XZ @3140
    ?GetPrimitive@ATerrainInfo@@UAEPAVUPrimitive@@XZ @3141
    ?GetProjectorBase@AActor@@UAEPAV1@XZ @3142
    ?GetQuadVisibilityBitmap@ATerrainInfo@@QAEHHH@Z @3143
    ?GetR6AvailabilityPtr@AActor@@QAEPAEVFString@@H@Z @3144
    ?GetRawStreamData@FAnimMeshVertexStream@@UAEXPAPAXH@Z @3145
    ?GetRawStreamData@FBspVertexStream@@UAEXPAPAXH@Z @3146
    ?GetRawStreamData@FCanvasUtil@@UAEXPAPAXH@Z @3147
    ?GetRawStreamData@FLineBatcher@@UAEXPAPAXH@Z @3148
    ?GetRawStreamData@FRawColorStream@@UAEXPAPAXH@Z @3149
    ?GetRawStreamData@FSkinVertexStream@@UAEXPAPAXH@Z @3150
    ?GetRawStreamData@FStaticMeshUVStream@@UAEXPAPAXH@Z @3151
    ?GetRawStreamData@FStaticMeshVertexStream@@UAEXPAPAXH@Z @3152
    ?GetRawTextureData@FLightMap@@UAEPAXH@Z @3153
    ?GetRawTextureData@FStaticLightMapTexture@@UAEPAXH@Z @3154
    ?GetRawTextureData@FStaticTexture@@UAEPAXH@Z @3155
    ?GetReachSpecTo@ANavigationPoint@@QAEPAVUReachSpec@@PAV1@@Z @3156
    ?GetRect@UTerrainBrush@@UAE?AVFBox@@XZ @3157
    ?GetRect@UTerrainBrushEdgeTurn@@UAE?AVFBox@@XZ @3158
    ?GetRect@UTerrainBrushSelect@@UAE?AVFBox@@XZ @3159
    ?GetRect@UTerrainBrushVisibility@@UAE?AVFBox@@XZ @3160
    ?GetRenderBoundingBox@UConvexVolume@@UAE?AVFBox@@PBVAActor@@@Z @3161
    ?GetRenderBoundingBox@UFluidSurfacePrimitive@@UAE?AVFBox@@PBVAActor@@@Z @3162
    ?GetRenderBoundingBox@UMeshInstance@@UAE?AVFBox@@PBVAActor@@@Z @3163
    ?GetRenderBoundingBox@UModel@@UAE?AVFBox@@PBVAActor@@@Z @3164
    ?GetRenderBoundingBox@UPrimitive@@UAE?AVFBox@@PBVAActor@@@Z @3165
    ?GetRenderBoundingBox@USkeletalMesh@@UAE?AVFBox@@PBVAActor@@@Z @3166
    ?GetRenderBoundingBox@USkeletalMeshInstance@@UAE?AVFBox@@PBVAActor@@@Z @3167
    ?GetRenderBoundingBox@UStaticMesh@@UAE?AVFBox@@PBVAActor@@@Z @3168
    ?GetRenderBoundingBox@UTerrainPrimitive@@QAE?AVFBox@@PBVAActor@@H@Z @3169
    ?GetRenderBoundingBox@UVertMesh@@UAE?AVFBox@@PBVAActor@@@Z @3170
    ?GetRenderBoundingBox@UVertMeshInstance@@UAE?AVFBox@@PBVAActor@@@Z @3171
    ?GetRenderBoundingSphere@UFluidSurfacePrimitive@@UAE?AVFSphere@@PBVAActor@@@Z @3172
    ?GetRenderBoundingSphere@UMeshInstance@@UAE?AVFSphere@@PBVAActor@@@Z @3173
    ?GetRenderBoundingSphere@UPrimitive@@UAE?AVFSphere@@PBVAActor@@@Z @3174
    ?GetRenderBoundingSphere@USkeletalMesh@@UAE?AVFSphere@@PBVAActor@@@Z @3175
    ?GetRenderBoundingSphere@USkeletalMeshInstance@@UAE?AVFSphere@@PBVAActor@@@Z @3176
    ?GetRenderBoundingSphere@UStaticMesh@@UAE?AVFSphere@@PBVAActor@@@Z @3177
    ?GetRenderBoundingSphere@UVertMesh@@UAE?AVFSphere@@PBVAActor@@@Z @3178
    ?GetRenderBoundingSphere@UVertMeshInstance@@UAE?AVFSphere@@PBVAActor@@@Z @3179
    ?GetRenderCaps@UNullRenderDevice@@UAEPAUFRenderCaps@@XZ @3180
    ?GetRenderCombinationNum@ATerrainInfo@@QAEHAAV?$TArray@H@@W4ETerrainRenderMethod@@@Z @3181
    ?GetRenderInterface@UCubemap@@UAEPAVFBaseTexture@@XZ @3182
    ?GetRenderInterface@UProxyBitmapMaterial@@UAEPAVFBaseTexture@@XZ @3183
    ?GetRenderInterface@UShadowBitmapMaterial@@UAEPAVFBaseTexture@@XZ @3184
    ?GetRenderInterface@UTexture@@UAEPAVFBaseTexture@@XZ @3185
    ?GetRevision@FAnimMeshVertexStream@@UAEHXZ @3186
    ?GetRevision@FBspVertexStream@@UAEHXZ @3187
    ?GetRevision@FCanvasUtil@@UAEHXZ @3188
    ?GetRevision@FLightMap@@UAEHXZ @3189
    ?GetRevision@FLightMapTexture@@UAEHXZ @3190
    ?GetRevision@FLineBatcher@@UAEHXZ @3191
    ?GetRevision@FRaw32BitIndexBuffer@@UAEHXZ @3192
    ?GetRevision@FRawColorStream@@UAEHXZ @3193
    ?GetRevision@FRawIndexBuffer@@UAEHXZ @3194
    ?GetRevision@FSkinVertexStream@@UAEHXZ @3195
    ?GetRevision@FStaticCubemap@@UAEHXZ @3196
    ?GetRevision@FStaticLightMapTexture@@UAEHXZ @3197
    ?GetRevision@FStaticMeshUVStream@@UAEHXZ @3198
    ?GetRevision@FStaticMeshVertexStream@@UAEHXZ @3199
    ?GetRevision@FStaticTexture@@UAEHXZ @3200
    ?GetRootLocation@USkeletalMeshInstance@@QAE?AVFVector@@XZ @3201
    ?GetRootLocationDelta@USkeletalMeshInstance@@QAE?AVFVector@@XZ @3202
    ?GetRootRotation@USkeletalMeshInstance@@QAE?AVFRotator@@XZ @3203
    ?GetRootRotationDelta@USkeletalMeshInstance@@QAE?AVFRotator@@XZ @3204
    ?GetRotation@ASceneManager@@QAE?AVFRotator@@PAV?$TArray@VFVector@@@@MVFVector@@V2@PAVUMatAction@@H@Z @3205
    ?GetSUBSTRING@@YAHPBG0PAGH@Z @3206
    ?GetSamples@FMatineeTools@@QAEXPAVASceneManager@@PAVUMatAction@@PAV?$TArray@VFVector@@@@@Z @3207
    ?GetSelectedVerticesBounds@ATerrainInfo@@QAE?AVFBox@@XZ @3208
    ?GetServer@UViewport@@UAEPAXXZ @3209
    ?GetSize@FAnimMeshVertexStream@@UAEHXZ @3210
    ?GetSize@FBspVertexStream@@UAEHXZ @3211
    ?GetSize@FCanvasUtil@@UAEHXZ @3212
    ?GetSize@FLineBatcher@@UAEHXZ @3213
    ?GetSize@FRaw32BitIndexBuffer@@UAEHXZ @3214
    ?GetSize@FRawColorStream@@UAEHXZ @3215
    ?GetSize@FRawIndexBuffer@@UAEHXZ @3216
    ?GetSize@FSkinVertexStream@@UAEHXZ @3217
    ?GetSize@FStaticMeshUVStream@@UAEHXZ @3218
    ?GetSize@FStaticMeshVertexStream@@UAEHXZ @3219
    ?GetSkin@AActor@@UAEPAVUMaterial@@H@Z @3220
    ?GetSkin@UStaticMesh@@QAEPAVUMaterial@@PAVAActor@@H@Z @3221
    ?GetSkySceneNode@FSceneNode@@UAEPAVFSkySceneNode@@XZ @3222
    ?GetSkySceneNode@FSkySceneNode@@UAEPAV1@XZ @3223
    ?GetStatString@UMatSubAction@@UAE?AVFString@@XZ @3224
    ?GetStatString@USubActionCameraEffect@@UAE?AVFString@@XZ @3225
    ?GetStatString@USubActionCameraShake@@UAE?AVFString@@XZ @3226
    ?GetStatString@USubActionFOV@@UAE?AVFString@@XZ @3227
    ?GetStatString@USubActionFade@@UAE?AVFString@@XZ @3228
    ?GetStatString@USubActionGameSpeed@@UAE?AVFString@@XZ @3229
    ?GetStatString@USubActionOrientation@@UAE?AVFString@@XZ @3230
    ?GetStatString@USubActionSceneSpeed@@UAE?AVFString@@XZ @3231
    ?GetStatString@USubActionTrigger@@UAE?AVFString@@XZ @3232
    ?GetStatus@ULodMeshInstance@@UAEHXZ @3233
    ?GetStatus@UMeshInstance@@UAEHXZ @3234
    ?GetStatusDesc@UMatSubAction@@QAE?AVFString@@XZ @3235
    ?GetStreamData@FAnimMeshVertexStream@@UAEXPAX@Z @3236
    ?GetStreamData@FBspVertexStream@@UAEXPAX@Z @3237
    ?GetStreamData@FCanvasUtil@@UAEXPAX@Z @3238
    ?GetStreamData@FLineBatcher@@UAEXPAX@Z @3239
    ?GetStreamData@FRawColorStream@@UAEXPAX@Z @3240
    ?GetStreamData@FSkinVertexStream@@UAEXPAX@Z @3241
    ?GetStreamData@FStaticMeshUVStream@@UAEXPAX@Z @3242
    ?GetStreamData@FStaticMeshVertexStream@@UAEXPAX@Z @3243
    ?GetStrength@FTerrainTools@@QAEHXZ @3244
    ?GetStride@FAnimMeshVertexStream@@UAEHXZ @3245
    ?GetStride@FBspVertexStream@@UAEHXZ @3246
    ?GetStride@FCanvasUtil@@UAEHXZ @3247
    ?GetStride@FLineBatcher@@UAEHXZ @3248
    ?GetStride@FRawColorStream@@UAEHXZ @3249
    ?GetStride@FSkinVertexStream@@UAEHXZ @3250
    ?GetStride@FStaticMeshUVStream@@UAEHXZ @3251
    ?GetStride@FStaticMeshVertexStream@@UAEHXZ @3252
    ?GetSubActionIdx@FMatineeTools@@QAEHPAVUMatSubAction@@@Z @3253
    ?GetTag@UStaticMesh@@QAEPAVFTags@@VFString@@@Z @3254
    ?GetTagCoords@USkeletalMeshInstance@@QAE?AVFCoords@@VFName@@@Z @3255
    ?GetTagPosition@USkeletalMeshInstance@@QAE?AVFCoords@@VFName@@@Z @3256
    ?GetTeamLeader@UR6AbstractPlanningInfo@@UAEPAVAActor@@XZ @3257
    ?GetTeamManager@AController@@UAEPAVAActor@@XZ @3258
    ?GetTexel@UTexture@@QAE?AVFColor@@MMMM@Z @3259
    ?GetTextureColor@ATerrainInfo@@QAE?AVFColor@@HHPAVUTexture@@@Z @3260
    ?GetTextureData@FLightMap@@UAEXHPAXHW4ETextureFormat@@H@Z @3261
    ?GetTextureData@FStaticLightMapTexture@@UAEXHPAXHW4ETextureFormat@@H@Z @3262
    ?GetTextureData@FStaticTexture@@UAEXHPAXHW4ETextureFormat@@H@Z @3263
    ?GetTextureSize@FPoly@@QAE?AVFVector@@XZ @3264
    ?GetTopOwner@AActor@@QAEPAV1@XZ @3265
    ?GetTotalSceneTime@ASceneManager@@QAEMXZ @3266
    ?GetUClamp@FLightMap@@UAE?AW4ETexClampMode@@XZ @3267
    ?GetUClamp@FLightMapTexture@@UAE?AW4ETexClampMode@@XZ @3268
    ?GetUClamp@FStaticCubemap@@UAE?AW4ETexClampMode@@XZ @3269
    ?GetUClamp@FStaticLightMapTexture@@UAE?AW4ETexClampMode@@XZ @3270
    ?GetUClamp@FStaticTexture@@UAE?AW4ETexClampMode@@XZ @3271
    ?GetUTexture@FLightMap@@UAEPAVUTexture@@XZ @3272
    ?GetUTexture@FStaticLightMapTexture@@UAEPAVUTexture@@XZ @3273
    ?GetUTexture@FStaticTexture@@UAEPAVUTexture@@XZ @3274
    ?GetVClamp@FLightMap@@UAE?AW4ETexClampMode@@XZ @3275
    ?GetVClamp@FLightMapTexture@@UAE?AW4ETexClampMode@@XZ @3276
    ?GetVClamp@FStaticCubemap@@UAE?AW4ETexClampMode@@XZ @3277
    ?GetVClamp@FStaticLightMapTexture@@UAE?AW4ETexClampMode@@XZ @3278
    ?GetVClamp@FStaticTexture@@UAE?AW4ETexClampMode@@XZ @3279
    ?GetValidated@UFinalBlend@@UAEHXZ @3280
    ?GetValidated@UMaterial@@UAEHXZ @3281
    ?GetValidated@UTexModifier@@UAEHXZ @3282
    ?GetVertexNormal@ATerrainInfo@@QAE?AVFVector@@HH@Z @3283
    ?GetVertexPos@AFluidSurfaceInfo@@QAE?AVFVector@@HH@Z @3284
    ?GetViewFrustum@FDirectionalLightMapSceneNode@@UAE?AVFConvexVolume@@XZ @3285
    ?GetViewFrustum@FLevelSceneNode@@UAE?AVFConvexVolume@@XZ @3286
    ?GetViewFrustum@FPointLightMapSceneNode@@UAE?AVFConvexVolume@@XZ @3287
    ?GetViewRotation@AActor@@UAE?AVFRotator@@XZ @3288
    ?GetViewTarget@AController@@UAEPAVAActor@@XZ @3289
    ?GetViewTarget@APlayerController@@UAEPAVAActor@@XZ @3290
    ?GetWarpZoneSceneNode@FSceneNode@@UAEPAVFWarpZoneSceneNode@@XZ @3291
    ?GetWarpZoneSceneNode@FWarpZoneSceneNode@@UAEPAV1@XZ @3292
    ?GetWidth@FLightMap@@UAEHXZ @3293
    ?GetWidth@FLightMapTexture@@UAEHXZ @3294
    ?GetWidth@FStaticCubemap@@UAEHXZ @3295
    ?GetWidth@FStaticLightMapTexture@@UAEHXZ @3296
    ?GetWidth@FStaticTexture@@UAEHXZ @3297
    ?GetZoneActor@ULevel@@QAEPAVAZoneInfo@@H@Z @3298
    ?GlobalIDToString@AActor@@QAE?AVFString@@QAE@Z @3299
    ?HalveData@FWaveModInfo@@QAEXXZ @3300
    ?HalveReduce16to8@FWaveModInfo@@QAEXXZ @3301
    ?HandleActorForce@UParticleEmitter@@UAEXPAVAActor@@M@Z @3302
    ?HandleClientPlayer@UDemoRecConnection@@UAEXPAVAPlayerController@@@Z @3303
    ?HandleClientPlayer@UNetConnection@@UAEXPAVAPlayerController@@@Z @3304
    ?HandleFullScreenEffects@URenderDevice@@UAEXHH@Z @3305
    ?HandleSpecial@AController@@QAEPAVAActor@@PAV2@@Z @3306
    ?HasAssociatedLevelGeometry@AActor@@UAEHPAV1@@Z @3307
    ?HasAssociatedLevelGeometry@ADoor@@UAEHPAVAActor@@@Z @3308
    ?HasFallback@UMaterial@@UAEHXZ @3309
    ?HasFallback@UShader@@UAEHXZ @3310
    ?HasFallback@UTerrainMaterial@@UAEHXZ @3311
    ?HasOption@FURL@@QBEHPBG@Z @3312
    ?HashX@FCollisionHash@@2PAHA @3313
    ?HashY@FCollisionHash@@2PAHA @3314
    ?HashZ@FCollisionHash@@2PAHA @3315
    ?HeightmapToWorld@ATerrainInfo@@QAE?AVFVector@@V2@@Z @3316
    ?HiColor555@FColor@@QBEGXZ @3317
    ?HiColor565@FColor@@QBEGXZ @3318
    ?HurtByVolume@APawn@@UAEHPAVAActor@@@Z @3319
    ?HurtByVolume@AScout@@UAEHPAVAActor@@@Z @3320
    ?Illuminate@UModel@@UAEXPAVAActor@@H@Z @3321
    ?Illuminate@UPrimitive@@UAEXPAVAActor@@H@Z @3322
    ?Illuminate@UStaticMesh@@UAEXPAVAActor@@H@Z @3323
    ?Illuminate@UTerrainPrimitive@@UAEXPAVAActor@@H@Z @3324
    ?Init@AFluidSurfaceInfo@@QAEXXZ @3325
    ?Init@FEngineStats@@QAEXXZ @3326
    ?Init@FMatineeTools@@QAEXXZ @3327
    ?Init@FPoly@@QAEXXZ @3328
    ?Init@FRebuildOptions@@QAEXXZ @3329
    ?Init@FRebuildTools@@QAEXXZ @3330
    ?Init@FTags@@QAEXXZ @3331
    ?Init@FTerrainTools@@QAEXXZ @3332
    ?Init@UActorChannel@@UAEXPAVUNetConnection@@HH@Z @3333
    ?Init@UCanvas@@UAEXPAVUViewport@@@Z @3334
    ?Init@UChannel@@UAEXPAVUNetConnection@@HH@Z @3335
    ?Init@UClient@@UAEXPAVUEngine@@@Z @3336
    ?Init@UControlChannel@@UAEXPAVUNetConnection@@HH@Z @3337
    ?Init@UEngine@@UAEXXZ @3338
    ?Init@UFileChannel@@UAEXPAVUNetConnection@@HH@Z @3339
    ?Init@UGameEngine@@UAEXXZ @3340
    ?Init@UInput@@UAEXPAVUViewport@@@Z @3341
    ?Init@UNullRenderDevice@@UAEHXZ @3342
    ?Init@UReachSpec@@QAEXXZ @3343
    ?Init@UTexture@@UAEXHH@Z @3344
    ?InitAudio@UEngine@@QAEXXZ @3345
    ?InitBase@UDemoRecDriver@@QAEHHPAVFNetworkNotify@@AAVFURL@@AAVFString@@@Z @3346
    ?InitConnect@UDemoRecDriver@@UAEHPAVFNetworkNotify@@AAVFURL@@AAVFString@@@Z @3347
    ?InitConnect@UNetDriver@@UAEHPAVFNetworkNotify@@AAVFURL@@AAVFString@@@Z @3348
    ?InitExecution@AActor@@UAEXXZ @3349
    ?InitForDigestion@UMeshAnimation@@UAEXXZ @3350
    ?InitForPathFinding@ADoor@@UAEXXZ @3351
    ?InitForPathFinding@ALadder@@UAEXXZ @3352
    ?InitForPathFinding@ANavigationPoint@@UAEXXZ @3353
    ?InitForPathing@AScout@@QAEXXZ @3354
    ?InitGameInfoGameService@AGameInfo@@UAEXXZ @3355
    ?InitInput@UViewport@@QAEXXZ @3356
    ?InitListen@UDemoRecDriver@@UAEHPAVFNetworkNotify@@AAVFURL@@AAVFString@@@Z @3357
    ?InitListen@UNetDriver@@UAEHPAVFNetworkNotify@@AAVFURL@@AAVFString@@@Z @3358
    ?InitOut@UNetConnection@@UAEXXZ @3359
    ?InitPosRotScale@ABrush@@UAEXXZ @3360
    ?Inited@FCollisionHash@@2HA @3361
    ?Initialize@AEmitter@@UAEXXZ @3362
    ?Initialize@UBeamEmitter@@UAEXH@Z @3363
    ?Initialize@UMatAction@@UAEXXZ @3364
    ?Initialize@UMatSubAction@@UAEXXZ @3365
    ?Initialize@UMeshEmitter@@UAEXH@Z @3366
    ?Initialize@UParticleEmitter@@UAEXH@Z @3367
    ?Initialize@USparkEmitter@@UAEXH@Z @3368
    ?Initialize@USpriteEmitter@@UAEXH@Z @3369
    ?InitializeActions@ASceneManager@@QAEXXZ @3370
    ?InitializeGameService@UR6AbstractGameManager@@UAEXPAVUConsole@@@Z @3371
    ?InitializeMissionDescription@UGameEngine@@UAEXAAVFString@@@Z @3372
    ?InputEvent@UEngine@@UAEHPAVUViewport@@W4EInputKey@@W4EInputAction@@M@Z @3373
    ?Insert@?$TArray@E@@QAEXHH@Z @3374
    ?InsertLodModel@USkeletalMesh@@QAEXHPAV1@MH@Z @3375
    ?InsertVertex@FPoly@@QAEXHVFVector@@@Z @3376
    ?InsertZeroed@?$TArray@E@@QAEXHH@Z @3377
    ?InternalConstructor@AAIController@@SAXPAX@Z @3378
    ?InternalConstructor@AAIMarker@@SAXPAX@Z @3379
    ?InternalConstructor@AAIScript@@SAXPAX@Z @3380
    ?InternalConstructor@AActor@@SAXPAX@Z @3381
    ?InternalConstructor@AActorManager@@SAXPAX@Z @3382
    ?InternalConstructor@AAntiPortalActor@@SAXPAX@Z @3383
    ?InternalConstructor@ABlockingVolume@@SAXPAX@Z @3384
    ?InternalConstructor@ABrush@@SAXPAX@Z @3385
    ?InternalConstructor@ACamera@@SAXPAX@Z @3386
    ?InternalConstructor@AClipMarker@@SAXPAX@Z @3387
    ?InternalConstructor@AController@@SAXPAX@Z @3388
    ?InternalConstructor@ADecoVolumeObject@@SAXPAX@Z @3389
    ?InternalConstructor@ADecorationList@@SAXPAX@Z @3390
    ?InternalConstructor@ADefaultPhysicsVolume@@SAXPAX@Z @3391
    ?InternalConstructor@ADoor@@SAXPAX@Z @3392
    ?InternalConstructor@AEmitter@@SAXPAX@Z @3393
    ?InternalConstructor@AFluidSurfaceInfo@@SAXPAX@Z @3394
    ?InternalConstructor@AFluidSurfaceOscillator@@SAXPAX@Z @3395
    ?InternalConstructor@AGameInfo@@SAXPAX@Z @3396
    ?InternalConstructor@AGameReplicationInfo@@SAXPAX@Z @3397
    ?InternalConstructor@AHUD@@SAXPAX@Z @3398
    ?InternalConstructor@AInfo@@SAXPAX@Z @3399
    ?InternalConstructor@AInternetInfo@@SAXPAX@Z @3400
    ?InternalConstructor@AInterpolationPoint@@SAXPAX@Z @3401
    ?InternalConstructor@AJumpDest@@SAXPAX@Z @3402
    ?InternalConstructor@AJumpPad@@SAXPAX@Z @3403
    ?InternalConstructor@AKActor@@SAXPAX@Z @3404
    ?InternalConstructor@AKBSJoint@@SAXPAX@Z @3405
    ?InternalConstructor@AKConeLimit@@SAXPAX@Z @3406
    ?InternalConstructor@AKConstraint@@SAXPAX@Z @3407
    ?InternalConstructor@AKHinge@@SAXPAX@Z @3408
    ?InternalConstructor@AKeypoint@@SAXPAX@Z @3409
    ?InternalConstructor@ALadder@@SAXPAX@Z @3410
    ?InternalConstructor@ALadderVolume@@SAXPAX@Z @3411
    ?InternalConstructor@ALevelInfo@@SAXPAX@Z @3412
    ?InternalConstructor@ALiftCenter@@SAXPAX@Z @3413
    ?InternalConstructor@ALiftExit@@SAXPAX@Z @3414
    ?InternalConstructor@ALight@@SAXPAX@Z @3415
    ?InternalConstructor@ALineOfSightTrigger@@SAXPAX@Z @3416
    ?InternalConstructor@ALookTarget@@SAXPAX@Z @3417
    ?InternalConstructor@AMapList@@SAXPAX@Z @3418
    ?InternalConstructor@AMover@@SAXPAX@Z @3419
    ?InternalConstructor@ANavigationPoint@@SAXPAX@Z @3420
    ?InternalConstructor@ANote@@SAXPAX@Z @3421
    ?InternalConstructor@APathNode@@SAXPAX@Z @3422
    ?InternalConstructor@APawn@@SAXPAX@Z @3423
    ?InternalConstructor@APhysicsVolume@@SAXPAX@Z @3424
    ?InternalConstructor@APlayerController@@SAXPAX@Z @3425
    ?InternalConstructor@APlayerReplicationInfo@@SAXPAX@Z @3426
    ?InternalConstructor@APlayerStart@@SAXPAX@Z @3427
    ?InternalConstructor@APolyMarker@@SAXPAX@Z @3428
    ?InternalConstructor@APotentialClimbWatcher@@SAXPAX@Z @3429
    ?InternalConstructor@AProjector@@SAXPAX@Z @3430
    ?InternalConstructor@AR6AbstractCircumstantialActionQuery@@SAXPAX@Z @3431
    ?InternalConstructor@AR6AbstractClimbableObj@@SAXPAX@Z @3432
    ?InternalConstructor@AR6ActionPointAbstract@@SAXPAX@Z @3433
    ?InternalConstructor@AR6ActionSpot@@SAXPAX@Z @3434
    ?InternalConstructor@AR6ColBox@@SAXPAX@Z @3435
    ?InternalConstructor@AR6Decal@@SAXPAX@Z @3436
    ?InternalConstructor@AR6DecalGroup@@SAXPAX@Z @3437
    ?InternalConstructor@AR6DecalManager@@SAXPAX@Z @3438
    ?InternalConstructor@AR6DecalsBase@@SAXPAX@Z @3439
    ?InternalConstructor@AR6EngineFirstPersonWeapon@@SAXPAX@Z @3440
    ?InternalConstructor@AR6EngineWeapon@@SAXPAX@Z @3441
    ?InternalConstructor@AR6FootStep@@SAXPAX@Z @3442
    ?InternalConstructor@AR6GlowLight@@SAXPAX@Z @3443
    ?InternalConstructor@AR6MapList@@SAXPAX@Z @3444
    ?InternalConstructor@AR6MorphMeshActor@@SAXPAX@Z @3445
    ?InternalConstructor@AR6PawnReplicationInfo@@SAXPAX@Z @3446
    ?InternalConstructor@AR6RainbowStartInfo@@SAXPAX@Z @3447
    ?InternalConstructor@AR6StartGameInfo@@SAXPAX@Z @3448
    ?InternalConstructor@AR6TeamStartInfo@@SAXPAX@Z @3449
    ?InternalConstructor@AR6WallHit@@SAXPAX@Z @3450
    ?InternalConstructor@AR6eviLTesting@@SAXPAX@Z @3451
    ?InternalConstructor@AReplicationInfo@@SAXPAX@Z @3452
    ?InternalConstructor@ASavedMove@@SAXPAX@Z @3453
    ?InternalConstructor@ASceneManager@@SAXPAX@Z @3454
    ?InternalConstructor@AScout@@SAXPAX@Z @3455
    ?InternalConstructor@ASkyZoneInfo@@SAXPAX@Z @3456
    ?InternalConstructor@ASmallNavigationPoint@@SAXPAX@Z @3457
    ?InternalConstructor@AStatLog@@SAXPAX@Z @3458
    ?InternalConstructor@AStatLogFile@@SAXPAX@Z @3459
    ?InternalConstructor@AStaticMeshActor@@SAXPAX@Z @3460
    ?InternalConstructor@ATeleporter@@SAXPAX@Z @3461
    ?InternalConstructor@ATerrainInfo@@SAXPAX@Z @3462
    ?InternalConstructor@ATrigger@@SAXPAX@Z @3463
    ?InternalConstructor@ATriggers@@SAXPAX@Z @3464
    ?InternalConstructor@AVolume@@SAXPAX@Z @3465
    ?InternalConstructor@AWarpZoneInfo@@SAXPAX@Z @3466
    ?InternalConstructor@AWarpZoneMarker@@SAXPAX@Z @3467
    ?InternalConstructor@AZoneInfo@@SAXPAX@Z @3468
    ?InternalConstructor@UActionMoveActor@@SAXPAX@Z @3469
    ?InternalConstructor@UActionMoveCamera@@SAXPAX@Z @3470
    ?InternalConstructor@UActionPause@@SAXPAX@Z @3471
    ?InternalConstructor@UActorChannel@@SAXPAX@Z @3472
    ?InternalConstructor@UAnimNotify@@SAXPAX@Z @3473
    ?InternalConstructor@UAnimNotify_DestroyEffect@@SAXPAX@Z @3474
    ?InternalConstructor@UAnimNotify_Effect@@SAXPAX@Z @3475
    ?InternalConstructor@UAnimNotify_MatSubAction@@SAXPAX@Z @3476
    ?InternalConstructor@UAnimNotify_Script@@SAXPAX@Z @3477
    ?InternalConstructor@UAnimNotify_Scripted@@SAXPAX@Z @3478
    ?InternalConstructor@UAnimNotify_Sound@@SAXPAX@Z @3479
    ?InternalConstructor@UAnimation@@SAXPAX@Z @3480
    ?InternalConstructor@UBeamEmitter@@SAXPAX@Z @3481
    ?InternalConstructor@UBinaryFileDownload@@SAXPAX@Z @3482
    ?InternalConstructor@UCameraOverlay@@SAXPAX@Z @3483
    ?InternalConstructor@UCanvas@@SAXPAX@Z @3484
    ?InternalConstructor@UChannelDownload@@SAXPAX@Z @3485
    ?InternalConstructor@UCheatManager@@SAXPAX@Z @3486
    ?InternalConstructor@UColorModifier@@SAXPAX@Z @3487
    ?InternalConstructor@UCombiner@@SAXPAX@Z @3488
    ?InternalConstructor@UConsole@@SAXPAX@Z @3489
    ?InternalConstructor@UConstantColor@@SAXPAX@Z @3490
    ?InternalConstructor@UConstantMaterial@@SAXPAX@Z @3491
    ?InternalConstructor@UControlChannel@@SAXPAX@Z @3492
    ?InternalConstructor@UConvexVolume@@SAXPAX@Z @3493
    ?InternalConstructor@UCubemap@@SAXPAX@Z @3494
    ?InternalConstructor@UDemoRecConnection@@SAXPAX@Z @3495
    ?InternalConstructor@UDemoRecDriver@@SAXPAX@Z @3496
    ?InternalConstructor@UDiffuseAttenuationMaterial@@SAXPAX@Z @3497
    ?InternalConstructor@UFadeColor@@SAXPAX@Z @3498
    ?InternalConstructor@UFileChannel@@SAXPAX@Z @3499
    ?InternalConstructor@UFinalBlend@@SAXPAX@Z @3500
    ?InternalConstructor@UFluidSurfacePrimitive@@SAXPAX@Z @3501
    ?InternalConstructor@UFont@@SAXPAX@Z @3502
    ?InternalConstructor@UGameEngine@@SAXPAX@Z @3503
    ?InternalConstructor@UI3DL2Listener@@SAXPAX@Z @3504
    ?InternalConstructor@UIndexBuffer@@SAXPAX@Z @3505
    ?InternalConstructor@UInput@@SAXPAX@Z @3506
    ?InternalConstructor@UInputPlanning@@SAXPAX@Z @3507
    ?InternalConstructor@UInteraction@@SAXPAX@Z @3508
    ?InternalConstructor@UInteractionMaster@@SAXPAX@Z @3509
    ?InternalConstructor@UInteractions@@SAXPAX@Z @3510
    ?InternalConstructor@UKMeshProps@@SAXPAX@Z @3511
    ?InternalConstructor@UKarmaParams@@SAXPAX@Z @3512
    ?InternalConstructor@UKarmaParamsCollision@@SAXPAX@Z @3513
    ?InternalConstructor@UKarmaParamsRBFull@@SAXPAX@Z @3514
    ?InternalConstructor@UKarmaParamsSkel@@SAXPAX@Z @3515
    ?InternalConstructor@ULevel@@SAXPAX@Z @3516
    ?InternalConstructor@ULevelSummary@@SAXPAX@Z @3517
    ?InternalConstructor@ULodMesh@@SAXPAX@Z @3518
    ?InternalConstructor@ULodMeshInstance@@SAXPAX@Z @3519
    ?InternalConstructor@UMatAction@@SAXPAX@Z @3520
    ?InternalConstructor@UMatObject@@SAXPAX@Z @3521
    ?InternalConstructor@UMatSubAction@@SAXPAX@Z @3522
    ?InternalConstructor@UMaterialSwitch@@SAXPAX@Z @3523
    ?InternalConstructor@UMesh@@SAXPAX@Z @3524
    ?InternalConstructor@UMeshAnimation@@SAXPAX@Z @3525
    ?InternalConstructor@UMeshEmitter@@SAXPAX@Z @3526
    ?InternalConstructor@UMeshInstance@@SAXPAX@Z @3527
    ?InternalConstructor@UModel@@SAXPAX@Z @3528
    ?InternalConstructor@UModifier@@SAXPAX@Z @3529
    ?InternalConstructor@UMotionBlur@@SAXPAX@Z @3530
    ?InternalConstructor@UNullRenderDevice@@SAXPAX@Z @3531
    ?InternalConstructor@UOpacityModifier@@SAXPAX@Z @3532
    ?InternalConstructor@UPackageMapLevel@@SAXPAX@Z @3533
    ?InternalConstructor@UPalette@@SAXPAX@Z @3534
    ?InternalConstructor@UParticleEmitter@@SAXPAX@Z @3535
    ?InternalConstructor@UParticleMaterial@@SAXPAX@Z @3536
    ?InternalConstructor@UPlayerInput@@SAXPAX@Z @3537
    ?InternalConstructor@UPolys@@SAXPAX@Z @3538
    ?InternalConstructor@UPrimitive@@SAXPAX@Z @3539
    ?InternalConstructor@UProjectorPrimitive@@SAXPAX@Z @3540
    ?InternalConstructor@UProxyBitmapMaterial@@SAXPAX@Z @3541
    ?InternalConstructor@UR6AbstractGameManager@@SAXPAX@Z @3542
    ?InternalConstructor@UR6AbstractPlanningInfo@@SAXPAX@Z @3543
    ?InternalConstructor@UR6AbstractTerroristMgr@@SAXPAX@Z @3544
    ?InternalConstructor@UR6FileManager@@SAXPAX@Z @3545
    ?InternalConstructor@UR6GameColors@@SAXPAX@Z @3546
    ?InternalConstructor@UR6GameMenuCom@@SAXPAX@Z @3547
    ?InternalConstructor@UR6GameOptions@@SAXPAX@Z @3548
    ?InternalConstructor@UR6MissionDescription@@SAXPAX@Z @3549
    ?InternalConstructor@UR6Mod@@SAXPAX@Z @3550
    ?InternalConstructor@UR6ModMgr@@SAXPAX@Z @3551
    ?InternalConstructor@UR6ServerInfo@@SAXPAX@Z @3552
    ?InternalConstructor@UReachSpec@@SAXPAX@Z @3553
    ?InternalConstructor@UShader@@SAXPAX@Z @3554
    ?InternalConstructor@UShadowBitmapMaterial@@SAXPAX@Z @3555
    ?InternalConstructor@USkeletalMesh@@SAXPAX@Z @3556
    ?InternalConstructor@USkeletalMeshInstance@@SAXPAX@Z @3557
    ?InternalConstructor@USkinVertexBuffer@@SAXPAX@Z @3558
    ?InternalConstructor@USound@@SAXPAX@Z @3559
    ?InternalConstructor@USoundGen@@SAXPAX@Z @3560
    ?InternalConstructor@USparkEmitter@@SAXPAX@Z @3561
    ?InternalConstructor@USpriteEmitter@@SAXPAX@Z @3562
    ?InternalConstructor@UStaticMesh@@SAXPAX@Z @3563
    ?InternalConstructor@UStaticMeshInstance@@SAXPAX@Z @3564
    ?InternalConstructor@USubActionCameraEffect@@SAXPAX@Z @3565
    ?InternalConstructor@USubActionCameraShake@@SAXPAX@Z @3566
    ?InternalConstructor@USubActionFOV@@SAXPAX@Z @3567
    ?InternalConstructor@USubActionFade@@SAXPAX@Z @3568
    ?InternalConstructor@USubActionGameSpeed@@SAXPAX@Z @3569
    ?InternalConstructor@USubActionOrientation@@SAXPAX@Z @3570
    ?InternalConstructor@USubActionSceneSpeed@@SAXPAX@Z @3571
    ?InternalConstructor@USubActionTrigger@@SAXPAX@Z @3572
    ?InternalConstructor@UTerrainMaterial@@SAXPAX@Z @3573
    ?InternalConstructor@UTerrainPrimitive@@SAXPAX@Z @3574
    ?InternalConstructor@UTerrainSector@@SAXPAX@Z @3575
    ?InternalConstructor@UTexCoordMaterial@@SAXPAX@Z @3576
    ?InternalConstructor@UTexCoordSource@@SAXPAX@Z @3577
    ?InternalConstructor@UTexEnvMap@@SAXPAX@Z @3578
    ?InternalConstructor@UTexMatrix@@SAXPAX@Z @3579
    ?InternalConstructor@UTexModifier@@SAXPAX@Z @3580
    ?InternalConstructor@UTexOscillator@@SAXPAX@Z @3581
    ?InternalConstructor@UTexPanner@@SAXPAX@Z @3582
    ?InternalConstructor@UTexRotator@@SAXPAX@Z @3583
    ?InternalConstructor@UTexScaler@@SAXPAX@Z @3584
    ?InternalConstructor@UTexture@@SAXPAX@Z @3585
    ?InternalConstructor@UVertMesh@@SAXPAX@Z @3586
    ?InternalConstructor@UVertMeshInstance@@SAXPAX@Z @3587
    ?InternalConstructor@UVertexBuffer@@SAXPAX@Z @3588
    ?InternalConstructor@UVertexColor@@SAXPAX@Z @3589
    ?InternalConstructor@UVertexStreamCOLOR@@SAXPAX@Z @3590
    ?InternalConstructor@UVertexStreamPosNormTex@@SAXPAX@Z @3591
    ?InternalConstructor@UVertexStreamUV@@SAXPAX@Z @3592
    ?InternalConstructor@UVertexStreamVECTOR@@SAXPAX@Z @3593
    ?IsA@HActor@@UBEHPBG@Z @3594
    ?IsA@HBspSurf@@UBEHPBG@Z @3595
    ?IsA@HCoords@@UBEHPBG@Z @3596
    ?IsA@HHitProxy@@UBEHPBG@Z @3597
    ?IsA@HMaterialTree@@UBEHPBG@Z @3598
    ?IsA@HMatineeAction@@UBEHPBG@Z @3599
    ?IsA@HMatineeScene@@UBEHPBG@Z @3600
    ?IsA@HMatineeSubAction@@UBEHPBG@Z @3601
    ?IsA@HMatineeTimePath@@UBEHPBG@Z @3602
    ?IsA@HTerrain@@UBEHPBG@Z @3603
    ?IsA@HTerrainToolLayer@@UBEHPBG@Z @3604
    ?IsAlive@APawn@@QAEHXZ @3605
    ?IsAnimLooping@UMeshInstance@@UAEHH@Z @3606
    ?IsAnimLooping@USkeletalMeshInstance@@UAEHH@Z @3607
    ?IsAnimLooping@UVertMeshInstance@@UAEHH@Z @3608
    ?IsAnimPastLastFrame@UMeshInstance@@UAEHH@Z @3609
    ?IsAnimPastLastFrame@USkeletalMeshInstance@@UAEHH@Z @3610
    ?IsAnimPastLastFrame@UVertMeshInstance@@UAEHH@Z @3611
    ?IsAnimTweening@UMeshInstance@@UAEHH@Z @3612
    ?IsAnimTweening@USkeletalMeshInstance@@UAEHH@Z @3613
    ?IsAnimTweening@UVertMeshInstance@@UAEHH@Z @3614
    ?IsAnimating@AActor@@QBEHH@Z @3615
    ?IsAnimating@UMeshInstance@@UAEHH@Z @3616
    ?IsAnimating@USkeletalMeshInstance@@UAEHH@Z @3617
    ?IsAnimating@UVertMeshInstance@@UAEHH@Z @3618
    ?IsAudibleAt@ULevel@@UAEHVFVector@@0PAVAActor@@W4ESoundOcclusion@@@Z @3619
    ?IsAvailableInGameType@AActor@@QAEHVFString@@@Z @3620
    ?IsBackfaced@FPoly@@QBEHABVFVector@@@Z @3621
    ?IsBasedOn@AActor@@QBEHPBV1@@Z @3622
    ?IsBlockedBy@AActor@@UBEHPBV1@@Z @3623
    ?IsBlockedBy@APawn@@UBEHPBVAActor@@@Z @3624
    ?IsBlockedBy@AR6ColBox@@UBEHPBVAActor@@@Z @3625
    ?IsBrush@AActor@@QBEHXZ @3626
    ?IsCoplanar@FPoly@@QBEHABV1@@Z @3627
    ?IsCrouched@APawn@@QAEHXZ @3628
    ?IsDepthComplexity@UViewport@@QAEHXZ @3629
    ?IsEditing@UViewport@@QAEHXZ @3630
    ?IsEncroacher@AActor@@QBEHXZ @3631
    ?IsEnding@UMatSubAction@@UAEHXZ @3632
    ?IsEnemy@APawn@@QAEHPAV1@@Z @3633
    ?IsFriend@APawn@@QAEHH@Z @3634
    ?IsFriend@APawn@@QAEHPAV1@@Z @3635
    ?IsHiddenEd@AActor@@QAEHXZ @3636
    ?IsHumanControlled@APawn@@QAEHXZ @3637
    ?IsIdentifiedAs@AAIMarker@@UAEHVFName@@@Z @3638
    ?IsIdentifiedAs@ADoor@@UAEHVFName@@@Z @3639
    ?IsIdentifiedAs@ANavigationPoint@@UAEHVFName@@@Z @3640
    ?IsIdentifiedAs@AWarpZoneMarker@@UAEHVFName@@@Z @3641
    ?IsInOctree@AActor@@QAEHXZ @3642
    ?IsInZone@AActor@@QBEHPBVAZoneInfo@@@Z @3643
    ?IsInternal@FURL@@QBEHXZ @3644
    ?IsJoinedTo@AActor@@QBEHPBV1@@Z @3645
    ?IsKnownChannelType@UChannel@@SAHH@Z @3646
    ?IsLit@UViewport@@QAEHXZ @3647
    ?IsLocalInternal@FURL@@QBEHXZ @3648
    ?IsLocallyControlled@APawn@@QAEHXZ @3649
    ?IsMovingBrush@AActor@@UBEHXZ @3650
    ?IsNetReady@UChannel@@QAEHH@Z @3651
    ?IsNetReady@UDemoRecConnection@@UAEHH@Z @3652
    ?IsNetReady@UNetConnection@@UAEHH@Z @3653
    ?IsNetRelevantFor@AActor@@UAEHPAVAPlayerController@@PAV1@VFVector@@@Z @3654
    ?IsNetRelevantFor@APawn@@UAEHPAVAPlayerController@@PAVAActor@@VFVector@@@Z @3655
    ?IsNetRelevantFor@APlayerController@@UAEHPAV1@PAVAActor@@VFVector@@@Z @3656
    ?IsNetRelevantFor@AR6DecalsBase@@UAEHPAVAPlayerController@@PAVAActor@@VFVector@@@Z @3657
    ?IsNeutral@APawn@@QAEHPAV1@@Z @3658
    ?IsOrtho@UViewport@@QAEHXZ @3659
    ?IsOverlapping@AActor@@QAEHPAV1@PAUFCheckResult@@@Z @3660
    ?IsOwnedBy@AActor@@QBEHPBV1@@Z @3661
    ?IsPaused@ULevel@@UAEHXZ @3662
    ?IsPendingDelete@AActor@@UAEHXZ @3663
    ?IsPendingKill@AActor@@UAEHXZ @3664
    ?IsPerspective@UViewport@@QAEHXZ @3665
    ?IsPlayer@AActor@@QBEHXZ @3666
    ?IsPlayer@APawn@@QAEHXZ @3667
    ?IsPointInside@UConvexVolume@@QAEHVFVector@@VFMatrix@@@Z @3668
    ?IsRealtime@UViewport@@QAEHXZ @3669
    ?IsRelevantToPawnHeartBeat@AActor@@UAEHPAVAPawn@@@Z @3670
    ?IsRelevantToPawnHeatVision@AActor@@UAEHPAVAPawn@@@Z @3671
    ?IsRelevantToPawnRadar@AActor@@UAEHPAVAPawn@@@Z @3672
    ?IsRunning@UMatSubAction@@UAEHXZ @3673
    ?IsRunning@USubActionOrientation@@UAEHXZ @3674
    ?IsSectorAll@UTerrainSector@@QAEHHE@Z @3675
    ?IsServer@ULevel@@UAEHXZ @3676
    ?IsSoundAudibleFromZone@ALevelInfo@@QAEHHH@Z @3677
    ?IsStaticBrush@AActor@@QBEHXZ @3678
    ?IsTopView@UViewport@@QAEHXZ @3679
    ?IsTransparent@UCombiner@@UAEHXZ @3680
    ?IsTransparent@UFinalBlend@@UAEHXZ @3681
    ?IsTransparent@UMaterial@@UAEHXZ @3682
    ?IsTransparent@UModifier@@UAEHXZ @3683
    ?IsTransparent@UShader@@UAEHXZ @3684
    ?IsTransparent@UTexture@@UAEHXZ @3685
    ?IsTriangleAll@UTerrainSector@@QAEHHHHHHE@Z @3686
    ?IsVolumeBrush@AActor@@QBEHXZ @3687
    ?IsWire@UViewport@@QAEHXZ @3688
    ?KAggregateGeomInstance@@YAPAU_McdGeometry@@PAVFKAggregateGeom@@VFVector@@PAUMcdGeomMan@@PBG@Z @3689
    ?KFreezeRagdoll@AActor@@QAEXXZ @3690
    ?KGData@@3PAU_KarmaGlobals@@A @3691
    ?KME2UCoords@@YAXPAVFCoords@@QAY03$$CBM@Z @3692
    ?KME2UMatrixCopy@@YAXPAVFMatrix@@QAY03M@Z @3693
    ?KME2UPosition@@YAXPAVFVector@@QBM@Z @3694
    ?KME2UTransform@@YAXPAVFVector@@PAVFRotator@@QAY03$$CBM@Z @3695
    ?KME2UVecCopy@@YAXPAVFVector@@QBM@Z @3696
    ?KMP2DynKarmaInterface@AActor@@UAEHHVFVector@@VFRotator@@PAV1@@Z @3697
    ?KModelToHulls@@YAXPAVFKAggregateGeom@@PAVUModel@@VFVector@@@Z @3698
    ?KTermGameKarma@@YAXXZ @3699
    ?KU2MEMatrixCopy@@YAXQAY03MPAVFMatrix@@@Z @3700
    ?KU2MEPosition@@YAXQAMVFVector@@@Z @3701
    ?KU2METransform@@YAXQAY03MVFVector@@VFRotator@@@Z @3702
    ?KU2MEVecCopy@@YAXQAMVFVector@@@Z @3703
    ?KUpdateConstraintParams@AKConeLimit@@UAEXXZ @3704
    ?KUpdateConstraintParams@AKConstraint@@UAEXXZ @3705
    ?KUpdateConstraintParams@AKHinge@@UAEXXZ @3706
    ?KUpdateMassProps@@YAXPAVUKMeshProps@@@Z @3707
    ?KarmaTriListDataInit@@YAXPAU_KarmaTriListData@@@Z @3708
    ?Key@UEngine@@UAEHPAVUViewport@@W4EInputKey@@@Z @3709
    ?KeyDown@UInput@@QAEEH@Z @3710
    ?Kill@AEmitter@@UAEXXZ @3711
    ?KillDecal@AR6DecalGroup@@QAEXPAVAR6Decal@@@Z @3712
    ?LODFootprint@USkeletalMesh@@QAEHHH@Z @3713
    ?Last@?$TArray@E@@QAEAAEH@Z @3714
    ?Last@?$TArray@E@@QBEABEH@Z @3715
    ?LaunchListenSrv@UR6AbstractGameManager@@UAEXVFString@@0@Z @3716
    ?LifeFraction@AActor@@QAEMXZ @3717
    ?LineCheck@ATerrainInfo@@QAEHAAUFCheckResult@@VFVector@@11H@Z @3718
    ?LineCheck@UFluidSurfacePrimitive@@UAEHAAUFCheckResult@@PAVAActor@@VFVector@@22KK@Z @3719
    ?LineCheck@UMeshInstance@@UAEHAAUFCheckResult@@PAVAActor@@VFVector@@22KK@Z @3720
    ?LineCheck@UModel@@UAEHAAUFCheckResult@@PAVAActor@@VFVector@@22KK@Z @3721
    ?LineCheck@UPrimitive@@UAEHAAUFCheckResult@@PAVAActor@@VFVector@@22KK@Z @3722
    ?LineCheck@UProjectorPrimitive@@UAEHAAUFCheckResult@@PAVAActor@@VFVector@@22KK@Z @3723
    ?LineCheck@USkeletalMesh@@UAEHAAUFCheckResult@@PAVAActor@@VFVector@@22KK@Z @3724
    ?LineCheck@USkeletalMeshInstance@@UAEHAAUFCheckResult@@PAVAActor@@VFVector@@22KK@Z @3725
    ?LineCheck@UStaticMesh@@UAEHAAUFCheckResult@@PAVAActor@@VFVector@@22KK@Z @3726
    ?LineCheck@UTerrainPrimitive@@UAEHAAUFCheckResult@@PAVAActor@@VFVector@@22KK@Z @3727
    ?LineCheckWithQuad@ATerrainInfo@@QAEHHHAAUFCheckResult@@VFVector@@11H@Z @3728
    ?LineOfSightTo@AController@@QAEKPAVAActor@@H@Z @3729
    ?Listen@ULevel@@UAEHAAVFString@@@Z @3730
    ?Load@?$TLazyArray@E@@UAEXXZ @3731
    ?Load@FSoundData@@UAEXXZ @3732
    ?LoadBackgroundImage@UEngine@@UAEHVFString@@PAVUTexture@@1@Z @3733
    ?LoadBackgroundImage@UGameEngine@@UAEHVFString@@PAVUTexture@@1@Z @3734
    ?LoadMap@UGameEngine@@UAEPAVULevel@@ABVFURL@@PAVUPendingLevel@@PBV?$TMap@VFString@@V1@@@AAVFString@@@Z @3735
    ?LoadRandomMenuBackgroundImage@UEngine@@UAEXVFString@@@Z @3736
    ?LoadRandomMenuBackgroundImage@UGameEngine@@UAEXVFString@@@Z @3737
    ?LoadURLConfig@FURL@@QAEXPBG0@Z @3738
    ?LocalPlayerController@AController@@UAEHXZ @3739
    ?LocalPlayerController@APlayerController@@UAEHXZ @3740
    ?LocalToWorld@AActor@@UBE?AVFMatrix@@XZ @3741
    ?Lock@UNullRenderDevice@@UAEPAVFRenderInterface@@PAVUViewport@@PAEPAH@Z @3742
    ?Lock@UViewport@@UAEHPAEPAH@Z @3743
    ?LockOnActor@UViewport@@QAEXPAVAActor@@@Z @3744
    ?LockRootMotion@USkeletalMeshInstance@@QAEHHH@Z @3745
    ?LowLevelDescribe@UDemoRecConnection@@UAE?AVFString@@XZ @3746
    ?LowLevelDestroy@UDemoRecDriver@@UAEXXZ @3747
    ?LowLevelGetNetworkNumber@UDemoRecDriver@@UAE?AVFString@@XZ @3748
    ?LowLevelGetRemoteAddress@UDemoRecConnection@@UAE?AVFString@@XZ @3749
    ?LowLevelSend@UDemoRecConnection@@UAEXPAXH@Z @3750
    ?MasterProcessKeyEvent@UInteractionMaster@@QAEHW4EInputKey@@W4EInputAction@@M@Z @3751
    ?MasterProcessKeyType@UInteractionMaster@@QAEHW4EInputKey@@@Z @3752
    ?MasterProcessMessage@UInteractionMaster@@QAEXABVFString@@M@Z @3753
    ?MasterProcessPostRender@UInteractionMaster@@QAEXPAVUCanvas@@@Z @3754
    ?MasterProcessPreRender@UInteractionMaster@@QAEXPAVUCanvas@@@Z @3755
    ?MasterProcessTick@UInteractionMaster@@QAEXM@Z @3756
    ?MasterServerManager@AGameInfo@@UAEXXZ @3757
    ?MatchRefBone@USkeletalMeshInstance@@QAEHVFName@@@Z @3758
    ?MaterialUSize@UBitmapMaterial@@UAEHXZ @3759
    ?MaterialUSize@UCombiner@@UAEHXZ @3760
    ?MaterialUSize@UMaterial@@UAEHXZ @3761
    ?MaterialUSize@UModifier@@UAEHXZ @3762
    ?MaterialUSize@UShader@@UAEHXZ @3763
    ?MaterialUSize@UTexCoordMaterial@@UAEHXZ @3764
    ?MaterialUSize@UTexModifier@@UAEHXZ @3765
    ?MaterialVSize@UBitmapMaterial@@UAEHXZ @3766
    ?MaterialVSize@UCombiner@@UAEHXZ @3767
    ?MaterialVSize@UMaterial@@UAEHXZ @3768
    ?MaterialVSize@UModifier@@UAEHXZ @3769
    ?MaterialVSize@UShader@@UAEHXZ @3770
    ?MaterialVSize@UTexCoordMaterial@@UAEHXZ @3771
    ?MaterialVSize@UTexModifier@@UAEHXZ @3772
    ?MaxSendBytes@UChannel@@QAEHXZ @3773
    ?MemFootprint@ULodMesh@@UAEHH@Z @3774
    ?MemFootprint@UMeshAnimation@@UAEHXZ @3775
    ?MemFootprint@USkeletalMesh@@UAEHH@Z @3776
    ?MeshBuildBounds@UMeshInstance@@UAEXXZ @3777
    ?MeshBuildBounds@USkeletalMeshInstance@@UAEXXZ @3778
    ?MeshBuildBounds@UVertMeshInstance@@UAEXXZ @3779
    ?MeshGetInstance@UMesh@@UAEPAVUMeshInstance@@PBVAActor@@@Z @3780
    ?MeshGetInstanceClass@ULodMesh@@UAEPAVUClass@@XZ @3781
    ?MeshGetInstanceClass@UMesh@@UAEPAVUClass@@XZ @3782
    ?MeshGetInstanceClass@USkeletalMesh@@UAEPAVUClass@@XZ @3783
    ?MeshGetInstanceClass@UVertMesh@@UAEPAVUClass@@XZ @3784
    ?MeshSkinVertsCallback@USkeletalMeshInstance@@UAEXPAX@Z @3785
    ?MeshToWorld@UMeshInstance@@UAE?AVFMatrix@@XZ @3786
    ?MeshToWorld@USkeletalMeshInstance@@UAE?AVFMatrix@@XZ @3787
    ?MeshToWorld@UVertMeshInstance@@UAE?AVFMatrix@@XZ @3788
    ?Modify@ULevel@@UAEXH@Z @3789
    ?Modify@UModel@@QAEXH@Z @3790
    ?ModifyAllSurfs@UModel@@QAEXH@Z @3791
    ?ModifySelectedSurfs@UModel@@QAEXH@Z @3792
    ?ModifySurf@UModel@@QAEXHH@Z @3793
    ?MouseButtonDown@UTerrainBrush@@UAEXPAVUViewport@@@Z @3794
    ?MouseButtonDown@UTerrainBrushPlanningPaint@@UAEXPAVUViewport@@@Z @3795
    ?MouseButtonDown@UTerrainBrushSelect@@UAEXPAVUViewport@@@Z @3796
    ?MouseButtonUp@UTerrainBrush@@UAEXPAVUViewport@@@Z @3797
    ?MouseDelta@UGameEngine@@UAEXPAVUViewport@@KMM@Z @3798
    ?MouseMove@UTerrainBrush@@UAEXMM@Z @3799
    ?MouseMove@UTerrainBrushSelect@@UAEXMM@Z @3800
    ?MouseMove@UTerrainBrushTexPan@@UAEXMM@Z @3801
    ?MouseMove@UTerrainBrushTexRotate@@UAEXMM@Z @3802
    ?MouseMove@UTerrainBrushTexScale@@UAEXMM@Z @3803
    ?MousePosition@UGameEngine@@UAEXPAVUViewport@@KMM@Z @3804
    ?MousePosition@UTexture@@UAEXKMM@Z @3805
    ?MouseWheel@UGameEngine@@UAEXPAVUViewport@@KH@Z @3806
    ?MoveActor@ULevel@@UAEHPAVAActor@@VFVector@@VFRotator@@AAUFCheckResult@@HHHHH@Z @3807
    ?MoveActorFirstBlocking@ULevel@@QAEHPAVAActor@@HHPAUFCheckResult@@AAU3@@Z @3808
    ?MoveVertices@ATerrainInfo@@QAEXM@Z @3809
    ?MultiLineCheck@ULevel@@UAEPAUFCheckResult@@AAVFMemStack@@VFVector@@11PAVALevelInfo@@KPAVAActor@@@Z @3810
    ?MultiNodeFilter@FOctreeNode@@QAEXPAVAActor@@PAVFCollisionOctree@@PBVFPlane@@@Z @3811
    ?MultiPointCheck@ULevel@@UAEPAUFCheckResult@@AAVFMemStack@@VFVector@@1KPAVALevelInfo@@HHHPAVAActor@@@Z @3812
    ?MultiShot@UViewport@@QAEHXZ @3813
    ?NativeNonUbiMatchMaking@AActor@@QAEHXZ @3814
    ?NativeNonUbiMatchMakingHost@AActor@@QAEHXZ @3815
    ?NativeStartedByGSClient@AActor@@QAEHXZ @3816
    ?NetDirty@AActor@@UAEXPAVUProperty@@@Z @3817
    ?NewFallVelocity@APawn@@QAE?AVFVector@@V2@0M@Z @3818
    ?NoiseGateFilter@FWaveModInfo@@QAEXXZ @3819
    ?NormalizeInfluences@USkeletalMesh@@QAEXH@Z @3820
    ?Notify@UAnimNotify@@UAEXPAVUMeshInstance@@PAVAActor@@@Z @3821
    ?Notify@UAnimNotify_DestroyEffect@@UAEXPAVUMeshInstance@@PAVAActor@@@Z @3822
    ?Notify@UAnimNotify_Effect@@UAEXPAVUMeshInstance@@PAVAActor@@@Z @3823
    ?Notify@UAnimNotify_MatSubAction@@UAEXPAVUMeshInstance@@PAVAActor@@@Z @3824
    ?Notify@UAnimNotify_Script@@UAEXPAVUMeshInstance@@PAVAActor@@@Z @3825
    ?Notify@UAnimNotify_Scripted@@UAEXPAVUMeshInstance@@PAVAActor@@@Z @3826
    ?Notify@UAnimNotify_Sound@@UAEXPAVUMeshInstance@@PAVAActor@@@Z @3827
    ?NotifyAcceptedConnection@ULevel@@UAEXPAVUNetConnection@@@Z @3828
    ?NotifyAcceptingChannel@ULevel@@UAEHPAVUChannel@@@Z @3829
    ?NotifyAcceptingConnection@ULevel@@UAE?AW4EAcceptConnection@@XZ @3830
    ?NotifyActorDestroyed@UNetDriver@@UAEXPAVAActor@@@Z @3831
    ?NotifyAnimEnd@AActor@@UAEXH@Z @3832
    ?NotifyAnimEnd@APawn@@UAEXH@Z @3833
    ?NotifyBump@AActor@@UAEXPAV1@@Z @3834
    ?NotifyBump@APawn@@UAEXPAVAActor@@@Z @3835
    ?NotifyGetLevel@ULevel@@UAEPAV1@XZ @3836
    ?NotifyLevelChange@UGameEngine@@UAEXXZ @3837
    ?NotifyProgress@ULevelBase@@UAEXPBG0M@Z @3838
    ?NotifyReceivedFile@ULevel@@UAEXPAVUNetConnection@@HPBGH@Z @3839
    ?NotifyReceivedText@ULevel@@UAEXPAVUNetConnection@@PBG@Z @3840
    ?NotifySendingFile@ULevel@@UAEHPAVUNetConnection@@VFGuid@@@Z @3841
    ?OldBuildCoords@ABrush@@QAEMPAVFModelCoords@@0@Z @3842
    ?OldToLocal@ABrush@@QBE?AVFCoords@@XZ @3843
    ?OldToWorld@ABrush@@QBE?AVFCoords@@XZ @3844
    ?OnEndSequenceNotify@FR6MatineePreviewProxy@@UAEXPAVASceneManager@@@Z @3845
    ?OnPlane@FPoly@@QAEHVFVector@@@Z @3846
    ?OnPoly@FPoly@@QAEHVFVector@@@Z @3847
    ?OnScrollBarUpdate@FR6MatineePreviewProxy@@UAEXXZ @3848
    ?OpenVideo@URenderDevice@@UAEHPAVUCanvas@@PAD1H@Z @3849
    ?PS2Convert@USound@@UAEXXZ @3850
    ?PS2DWColor@FColor@@QAEKXZ @3851
    ?Pad16Bit@FWaveModInfo@@QAEKK@Z @3852
    ?PaintProgress@UEngine@@UAEXXZ @3853
    ?PaintProgress@UGameEngine@@UAEXABVFURL@@@Z @3854
    ?Pass2From@FPathBuilder@@AAEXVFVector@@0M@Z @3855
    ?PassShouldRenderTriangle@UTerrainSector@@QAEHHHHHH@Z @3856
    ?PathColor@UReachSpec@@QAE?AVFPlane@@XZ @3857
    ?Pick3DWallAdjust@APawn@@AAEHVFVector@@@Z @3858
    ?PickWallAdjust@APawn@@QAEHVFVector@@@Z @3859
    ?PlaceScout@UReachSpec@@QAEHPAVAScout@@@Z @3860
    ?Plane@FColor@@QBE?AVFPlane@@XZ @3861
    ?PlayAnim@AActor@@UAEXHVFName@@MMHHH@Z @3862
    ?PlayAnim@UMeshInstance@@UAEHHVFName@@MMHHH@Z @3863
    ?PlayAnim@USkeletalMeshInstance@@UAEHHVFName@@MMHHH@Z @3864
    ?PlayAnim@UVertMeshInstance@@UAEHHVFName@@MMHHH@Z @3865
    ?PlayReplicatedAnim@AActor@@QAEXXZ @3866
    ?PlayerControlled@AActor@@UAEHXZ @3867
    ?PlayerControlled@APawn@@UAEHXZ @3868
    ?Pling@AFluidSurfaceInfo@@QAEXABVFVector@@MM@Z @3869
    ?PlingVertex@AFluidSurfaceInfo@@QAEXHHM@Z @3870
    ?PointCheck@ATerrainInfo@@QAEHAAUFCheckResult@@VFVector@@1H@Z @3871
    ?PointCheck@UFluidSurfacePrimitive@@UAEHAAUFCheckResult@@PAVAActor@@VFVector@@2K@Z @3872
    ?PointCheck@UMeshInstance@@UAEHAAUFCheckResult@@PAVAActor@@VFVector@@2K@Z @3873
    ?PointCheck@UModel@@UAEHAAUFCheckResult@@PAVAActor@@VFVector@@2K@Z @3874
    ?PointCheck@UPrimitive@@UAEHAAUFCheckResult@@PAVAActor@@VFVector@@2K@Z @3875
    ?PointCheck@UProjectorPrimitive@@UAEHAAUFCheckResult@@PAVAActor@@VFVector@@2K@Z @3876
    ?PointCheck@UStaticMesh@@UAEHAAUFCheckResult@@PAVAActor@@VFVector@@2K@Z @3877
    ?PointCheck@UTerrainPrimitive@@UAEHAAUFCheckResult@@PAVAActor@@VFVector@@2K@Z @3878
    ?PointRegion@UModel@@QBE?AUFPointRegion@@PAVAZoneInfo@@VFVector@@@Z @3879
    ?Pop@?$TArray@E@@QAEEXZ @3880
    ?PopHit@UViewport@@QAEXH@Z @3881
    ?PostBeginPlay@AActor@@UAEXXZ @3882
    ?PostBeginPlay@APawn@@UAEXXZ @3883
    ?PostBeginPlay@AR6WallHit@@UAEXXZ @3884
    ?PostBeginPlay@ASceneManager@@UAEXXZ @3885
    ?PostBeginPlay@AVolume@@UAEXXZ @3886
    ?PostEditChange@AActor@@UAEXXZ @3887
    ?PostEditChange@ABrush@@UAEXXZ @3888
    ?PostEditChange@AFluidSurfaceInfo@@UAEXXZ @3889
    ?PostEditChange@AFluidSurfaceOscillator@@UAEXXZ @3890
    ?PostEditChange@AInterpolationPoint@@UAEXXZ @3891
    ?PostEditChange@AKConstraint@@UAEXXZ @3892
    ?PostEditChange@AMover@@UAEXXZ @3893
    ?PostEditChange@AProjector@@UAEXXZ @3894
    ?PostEditChange@ASceneManager@@UAEXXZ @3895
    ?PostEditChange@ATerrainInfo@@UAEXXZ @3896
    ?PostEditChange@AZoneInfo@@UAEXXZ @3897
    ?PostEditChange@UAnimNotify@@UAEXXZ @3898
    ?PostEditChange@UBeamEmitter@@UAEXXZ @3899
    ?PostEditChange@UClient@@UAEXXZ @3900
    ?PostEditChange@UCombiner@@UAEXXZ @3901
    ?PostEditChange@UFinalBlend@@UAEXXZ @3902
    ?PostEditChange@UI3DL2Listener@@UAEXXZ @3903
    ?PostEditChange@UKarmaParams@@UAEXXZ @3904
    ?PostEditChange@UMatAction@@UAEXXZ @3905
    ?PostEditChange@UMatSubAction@@UAEXXZ @3906
    ?PostEditChange@UMaterialSwitch@@UAEXXZ @3907
    ?PostEditChange@UMeshEmitter@@UAEXXZ @3908
    ?PostEditChange@UModifier@@UAEXXZ @3909
    ?PostEditChange@UParticleEmitter@@UAEXXZ @3910
    ?PostEditChange@UShader@@UAEXXZ @3911
    ?PostEditChange@USparkEmitter@@UAEXXZ @3912
    ?PostEditChange@USpriteEmitter@@UAEXXZ @3913
    ?PostEditChange@UStaticMesh@@UAEXXZ @3914
    ?PostEditChange@UTexCoordSource@@UAEXXZ @3915
    ?PostEditLoad@AActor@@UAEXXZ @3916
    ?PostEditLoad@AProjector@@UAEXXZ @3917
    ?PostEditMove@AActor@@UAEXXZ @3918
    ?PostEditMove@AFluidSurfaceInfo@@UAEXXZ @3919
    ?PostEditMove@AInterpolationPoint@@UAEXXZ @3920
    ?PostEditMove@AKConstraint@@UAEXXZ @3921
    ?PostEditMove@AMover@@UAEXXZ @3922
    ?PostEditMove@ANavigationPoint@@UAEXXZ @3923
    ?PostEditMove@AProjector@@UAEXXZ @3924
    ?PostLoad@AActor@@UAEXXZ @3925
    ?PostLoad@ABrush@@UAEXXZ @3926
    ?PostLoad@AFluidSurfaceInfo@@UAEXXZ @3927
    ?PostLoad@AMover@@UAEXXZ @3928
    ?PostLoad@ATerrainInfo@@UAEXXZ @3929
    ?PostLoad@ULevel@@UAEXXZ @3930
    ?PostLoad@ULevelSummary@@UAEXXZ @3931
    ?PostLoad@UMatAction@@UAEXXZ @3932
    ?PostLoad@UMeshAnimation@@UAEXXZ @3933
    ?PostLoad@UModel@@UAEXXZ @3934
    ?PostLoad@UParticleEmitter@@UAEXXZ @3935
    ?PostLoad@USkeletalMesh@@UAEXXZ @3936
    ?PostLoad@USound@@UAEXXZ @3937
    ?PostLoad@UStaticMesh@@UAEXXZ @3938
    ?PostLoad@USubActionOrientation@@UAEXXZ @3939
    ?PostLoad@UTerrainSector@@UAEXXZ @3940
    ?PostLoad@UTexRotator@@UAEXXZ @3941
    ?PostLoad@UTexture@@UAEXXZ @3942
    ?PostLoad@UVertMesh@@UAEXXZ @3943
    ?PostNetReceive@AActor@@UAEXXZ @3944
    ?PostNetReceive@AGameReplicationInfo@@UAEXXZ @3945
    ?PostNetReceive@ALevelInfo@@UAEXXZ @3946
    ?PostNetReceive@AMover@@UAEXXZ @3947
    ?PostNetReceive@APawn@@UAEXXZ @3948
    ?PostNetReceive@APlayerController@@UAEXXZ @3949
    ?PostNetReceive@APlayerReplicationInfo@@UAEXXZ @3950
    ?PostNetReceiveLocation@AActor@@UAEXXZ @3951
    ?PostNetReceiveLocation@APawn@@UAEXXZ @3952
    ?PostPath@AActor@@UAEXXZ @3953
    ?PostPath@ADoor@@UAEXXZ @3954
    ?PostRaytrace@AActor@@UAEXXZ @3955
    ?PostRaytrace@AMover@@UAEXXZ @3956
    ?PostRender@UCameraEffect@@UAEXPAVUViewport@@PAVFRenderInterface@@@Z @3957
    ?PostRender@UCameraOverlay@@UAEXPAVUViewport@@PAVFRenderInterface@@@Z @3958
    ?PostRender@UMotionBlur@@UAEXPAVUViewport@@PAVFRenderInterface@@@Z @3959
    ?PostRenderFullScreenEffects@UGameEngine@@QAEXPAVFLevelSceneNode@@PAVUViewport@@@Z @3960
    ?PostScriptDestroyed@AActor@@UAEXXZ @3961
    ?PostScriptDestroyed@AEmitter@@UAEXXZ @3962
    ?PostScriptDestroyed@AR6DecalGroup@@UAEXXZ @3963
    ?PostSend@UNetConnection@@QAEXXZ @3964
    ?PostaddReachSpecs@ADoor@@UAEXPAVAPawn@@@Z @3965
    ?PostaddReachSpecs@ANavigationPoint@@UAEXPAVAPawn@@@Z @3966
    ?PotentiallyVisible@UModel@@QAEHHH@Z @3967
    ?PreBeginPreview@UMatSubAction@@UAEXXZ @3968
    ?PreNetReceive@AActor@@UAEXXZ @3969
    ?PreNetReceive@ALevelInfo@@UAEXXZ @3970
    ?PreNetReceive@AMover@@UAEXXZ @3971
    ?PreNetReceive@APawn@@UAEXXZ @3972
    ?PreNetReceive@APlayerController@@UAEXXZ @3973
    ?PrePath@AActor@@UAEXXZ @3974
    ?PrePath@ADoor@@UAEXXZ @3975
    ?PreProcess@UInput@@UAEHW4EInputKey@@W4EInputAction@@M@Z @3976
    ?PreRaytrace@AActor@@UAEXXZ @3977
    ?PreRaytrace@AMover@@UAEXXZ @3978
    ?PreRender@UCameraEffect@@UAEXPAVUViewport@@PAVFRenderInterface@@@Z @3979
    ?PreRender@UMotionBlur@@UAEXPAVUViewport@@PAVFRenderInterface@@@Z @3980
    ?PreSend@UNetConnection@@QAEXH@Z @3981
    ?PrecomputeLayerWeights@ATerrainInfo@@QAEXXZ @3982
    ?PrecomputeSphereFilter@UModel@@QAEXABVFPlane@@@Z @3983
    ?PreparePath@ASceneManager@@QAEXXZ @3984
    ?Present@UNullRenderDevice@@UAEXPAVUViewport@@@Z @3985
    ?Present@UViewport@@UAEXXZ @3986
    ?Prime@UTexture@@UAEXXZ @3987
    ?PrivateStaticClass@AAIController@@0VUClass@@A @3988
    ?PrivateStaticClass@AAIMarker@@0VUClass@@A @3989
    ?PrivateStaticClass@AAIScript@@0VUClass@@A @3990
    ?PrivateStaticClass@AActor@@0VUClass@@A @3991
    ?PrivateStaticClass@AActorManager@@0VUClass@@A @3992
    ?PrivateStaticClass@AAntiPortalActor@@0VUClass@@A @3993
    ?PrivateStaticClass@ABlockingVolume@@0VUClass@@A @3994
    ?PrivateStaticClass@ABrush@@0VUClass@@A @3995
    ?PrivateStaticClass@ACamera@@0VUClass@@A @3996
    ?PrivateStaticClass@AClipMarker@@0VUClass@@A @3997
    ?PrivateStaticClass@AController@@0VUClass@@A @3998
    ?PrivateStaticClass@ADecoVolumeObject@@0VUClass@@A @3999
    ?PrivateStaticClass@ADecorationList@@0VUClass@@A @4000
    ?PrivateStaticClass@ADefaultPhysicsVolume@@0VUClass@@A @4001
    ?PrivateStaticClass@ADoor@@0VUClass@@A @4002
    ?PrivateStaticClass@AEmitter@@0VUClass@@A @4003
    ?PrivateStaticClass@AFluidSurfaceInfo@@0VUClass@@A @4004
    ?PrivateStaticClass@AFluidSurfaceOscillator@@0VUClass@@A @4005
    ?PrivateStaticClass@AGameInfo@@0VUClass@@A @4006
    ?PrivateStaticClass@AGameReplicationInfo@@0VUClass@@A @4007
    ?PrivateStaticClass@AHUD@@0VUClass@@A @4008
    ?PrivateStaticClass@AInfo@@0VUClass@@A @4009
    ?PrivateStaticClass@AInternetInfo@@0VUClass@@A @4010
    ?PrivateStaticClass@AInterpolationPoint@@0VUClass@@A @4011
    ?PrivateStaticClass@AJumpDest@@0VUClass@@A @4012
    ?PrivateStaticClass@AJumpPad@@0VUClass@@A @4013
    ?PrivateStaticClass@AKActor@@0VUClass@@A @4014
    ?PrivateStaticClass@AKBSJoint@@0VUClass@@A @4015
    ?PrivateStaticClass@AKConeLimit@@0VUClass@@A @4016
    ?PrivateStaticClass@AKConstraint@@0VUClass@@A @4017
    ?PrivateStaticClass@AKHinge@@0VUClass@@A @4018
    ?PrivateStaticClass@AKeypoint@@0VUClass@@A @4019
    ?PrivateStaticClass@ALadder@@0VUClass@@A @4020
    ?PrivateStaticClass@ALadderVolume@@0VUClass@@A @4021
    ?PrivateStaticClass@ALevelInfo@@0VUClass@@A @4022
    ?PrivateStaticClass@ALiftCenter@@0VUClass@@A @4023
    ?PrivateStaticClass@ALiftExit@@0VUClass@@A @4024
    ?PrivateStaticClass@ALight@@0VUClass@@A @4025
    ?PrivateStaticClass@ALineOfSightTrigger@@0VUClass@@A @4026
    ?PrivateStaticClass@ALookTarget@@0VUClass@@A @4027
    ?PrivateStaticClass@AMapList@@0VUClass@@A @4028
    ?PrivateStaticClass@AMover@@0VUClass@@A @4029
    ?PrivateStaticClass@ANavigationPoint@@0VUClass@@A @4030
    ?PrivateStaticClass@ANote@@0VUClass@@A @4031
    ?PrivateStaticClass@APathNode@@0VUClass@@A @4032
    ?PrivateStaticClass@APawn@@0VUClass@@A @4033
    ?PrivateStaticClass@APhysicsVolume@@0VUClass@@A @4034
    ?PrivateStaticClass@APlayerController@@0VUClass@@A @4035
    ?PrivateStaticClass@APlayerReplicationInfo@@0VUClass@@A @4036
    ?PrivateStaticClass@APlayerStart@@0VUClass@@A @4037
    ?PrivateStaticClass@APolyMarker@@0VUClass@@A @4038
    ?PrivateStaticClass@APotentialClimbWatcher@@0VUClass@@A @4039
    ?PrivateStaticClass@AProjector@@0VUClass@@A @4040
    ?PrivateStaticClass@AR6AbstractCircumstantialActionQuery@@0VUClass@@A @4041
    ?PrivateStaticClass@AR6AbstractClimbableObj@@0VUClass@@A @4042
    ?PrivateStaticClass@AR6ActionPointAbstract@@0VUClass@@A @4043
    ?PrivateStaticClass@AR6ActionSpot@@0VUClass@@A @4044
    ?PrivateStaticClass@AR6ColBox@@0VUClass@@A @4045
    ?PrivateStaticClass@AR6Decal@@0VUClass@@A @4046
    ?PrivateStaticClass@AR6DecalGroup@@0VUClass@@A @4047
    ?PrivateStaticClass@AR6DecalManager@@0VUClass@@A @4048
    ?PrivateStaticClass@AR6DecalsBase@@0VUClass@@A @4049
    ?PrivateStaticClass@AR6EngineFirstPersonWeapon@@0VUClass@@A @4050
    ?PrivateStaticClass@AR6EngineWeapon@@0VUClass@@A @4051
    ?PrivateStaticClass@AR6FootStep@@0VUClass@@A @4052
    ?PrivateStaticClass@AR6GlowLight@@0VUClass@@A @4053
    ?PrivateStaticClass@AR6MapList@@0VUClass@@A @4054
    ?PrivateStaticClass@AR6MorphMeshActor@@0VUClass@@A @4055
    ?PrivateStaticClass@AR6PawnReplicationInfo@@0VUClass@@A @4056
    ?PrivateStaticClass@AR6RainbowStartInfo@@0VUClass@@A @4057
    ?PrivateStaticClass@AR6StartGameInfo@@0VUClass@@A @4058
    ?PrivateStaticClass@AR6TeamStartInfo@@0VUClass@@A @4059
    ?PrivateStaticClass@AR6WallHit@@0VUClass@@A @4060
    ?PrivateStaticClass@AR6eviLTesting@@0VUClass@@A @4061
    ?PrivateStaticClass@AReplicationInfo@@0VUClass@@A @4062
    ?PrivateStaticClass@ASavedMove@@0VUClass@@A @4063
    ?PrivateStaticClass@ASceneManager@@0VUClass@@A @4064
    ?PrivateStaticClass@AScout@@0VUClass@@A @4065
    ?PrivateStaticClass@ASkyZoneInfo@@0VUClass@@A @4066
    ?PrivateStaticClass@ASmallNavigationPoint@@0VUClass@@A @4067
    ?PrivateStaticClass@AStatLog@@0VUClass@@A @4068
    ?PrivateStaticClass@AStatLogFile@@0VUClass@@A @4069
    ?PrivateStaticClass@AStaticMeshActor@@0VUClass@@A @4070
    ?PrivateStaticClass@ATeleporter@@0VUClass@@A @4071
    ?PrivateStaticClass@ATerrainInfo@@0VUClass@@A @4072
    ?PrivateStaticClass@ATrigger@@0VUClass@@A @4073
    ?PrivateStaticClass@ATriggers@@0VUClass@@A @4074
    ?PrivateStaticClass@AVolume@@0VUClass@@A @4075
    ?PrivateStaticClass@AWarpZoneInfo@@0VUClass@@A @4076
    ?PrivateStaticClass@AWarpZoneMarker@@0VUClass@@A @4077
    ?PrivateStaticClass@AZoneInfo@@0VUClass@@A @4078
    ?PrivateStaticClass@UActionMoveActor@@0VUClass@@A @4079
    ?PrivateStaticClass@UActionMoveCamera@@0VUClass@@A @4080
    ?PrivateStaticClass@UActionPause@@0VUClass@@A @4081
    ?PrivateStaticClass@UActorChannel@@0VUClass@@A @4082
    ?PrivateStaticClass@UAnimNotify@@0VUClass@@A @4083
    ?PrivateStaticClass@UAnimNotify_DestroyEffect@@0VUClass@@A @4084
    ?PrivateStaticClass@UAnimNotify_Effect@@0VUClass@@A @4085
    ?PrivateStaticClass@UAnimNotify_MatSubAction@@0VUClass@@A @4086
    ?PrivateStaticClass@UAnimNotify_Script@@0VUClass@@A @4087
    ?PrivateStaticClass@UAnimNotify_Scripted@@0VUClass@@A @4088
    ?PrivateStaticClass@UAnimNotify_Sound@@0VUClass@@A @4089
    ?PrivateStaticClass@UAnimation@@0VUClass@@A @4090
    ?PrivateStaticClass@UAudioSubsystem@@0VUClass@@A @4091
    ?PrivateStaticClass@UBeamEmitter@@0VUClass@@A @4092
    ?PrivateStaticClass@UBinaryFileDownload@@0VUClass@@A @4093
    ?PrivateStaticClass@UBitmapMaterial@@0VUClass@@A @4094
    ?PrivateStaticClass@UCameraEffect@@0VUClass@@A @4095
    ?PrivateStaticClass@UCameraOverlay@@0VUClass@@A @4096
    ?PrivateStaticClass@UCanvas@@0VUClass@@A @4097
    ?PrivateStaticClass@UChannel@@0VUClass@@A @4098
    ?PrivateStaticClass@UChannelDownload@@0VUClass@@A @4099
    ?PrivateStaticClass@UCheatManager@@0VUClass@@A @4100
    ?PrivateStaticClass@UClient@@0VUClass@@A @4101
    ?PrivateStaticClass@UColorModifier@@0VUClass@@A @4102
    ?PrivateStaticClass@UCombiner@@0VUClass@@A @4103
    ?PrivateStaticClass@UConsole@@0VUClass@@A @4104
    ?PrivateStaticClass@UConstantColor@@0VUClass@@A @4105
    ?PrivateStaticClass@UConstantMaterial@@0VUClass@@A @4106
    ?PrivateStaticClass@UControlChannel@@0VUClass@@A @4107
    ?PrivateStaticClass@UConvexVolume@@0VUClass@@A @4108
    ?PrivateStaticClass@UCubemap@@0VUClass@@A @4109
    ?PrivateStaticClass@UDemoRecConnection@@0VUClass@@A @4110
    ?PrivateStaticClass@UDemoRecDriver@@0VUClass@@A @4111
    ?PrivateStaticClass@UDiffuseAttenuationMaterial@@0VUClass@@A @4112
    ?PrivateStaticClass@UDownload@@0VUClass@@A @4113
    ?PrivateStaticClass@UEngine@@0VUClass@@A @4114
    ?PrivateStaticClass@UFadeColor@@0VUClass@@A @4115
    ?PrivateStaticClass@UFileChannel@@0VUClass@@A @4116
    ?PrivateStaticClass@UFinalBlend@@0VUClass@@A @4117
    ?PrivateStaticClass@UFluidSurfacePrimitive@@0VUClass@@A @4118
    ?PrivateStaticClass@UFont@@0VUClass@@A @4119
    ?PrivateStaticClass@UGameEngine@@0VUClass@@A @4120
    ?PrivateStaticClass@UI3DL2Listener@@0VUClass@@A @4121
    ?PrivateStaticClass@UIndexBuffer@@0VUClass@@A @4122
    ?PrivateStaticClass@UInput@@0VUClass@@A @4123
    ?PrivateStaticClass@UInputPlanning@@0VUClass@@A @4124
    ?PrivateStaticClass@UInteraction@@0VUClass@@A @4125
    ?PrivateStaticClass@UInteractionMaster@@0VUClass@@A @4126
    ?PrivateStaticClass@UInteractions@@0VUClass@@A @4127
    ?PrivateStaticClass@UKMeshProps@@0VUClass@@A @4128
    ?PrivateStaticClass@UKarmaParams@@0VUClass@@A @4129
    ?PrivateStaticClass@UKarmaParamsCollision@@0VUClass@@A @4130
    ?PrivateStaticClass@UKarmaParamsRBFull@@0VUClass@@A @4131
    ?PrivateStaticClass@UKarmaParamsSkel@@0VUClass@@A @4132
    ?PrivateStaticClass@ULevel@@0VUClass@@A @4133
    ?PrivateStaticClass@ULevelBase@@0VUClass@@A @4134
    ?PrivateStaticClass@ULevelSummary@@0VUClass@@A @4135
    ?PrivateStaticClass@ULodMesh@@0VUClass@@A @4136
    ?PrivateStaticClass@ULodMeshInstance@@0VUClass@@A @4137
    ?PrivateStaticClass@UMatAction@@0VUClass@@A @4138
    ?PrivateStaticClass@UMatObject@@0VUClass@@A @4139
    ?PrivateStaticClass@UMatSubAction@@0VUClass@@A @4140
    ?PrivateStaticClass@UMaterial@@0VUClass@@A @4141
    ?PrivateStaticClass@UMaterialSwitch@@0VUClass@@A @4142
    ?PrivateStaticClass@UMesh@@0VUClass@@A @4143
    ?PrivateStaticClass@UMeshAnimation@@0VUClass@@A @4144
    ?PrivateStaticClass@UMeshEmitter@@0VUClass@@A @4145
    ?PrivateStaticClass@UMeshInstance@@0VUClass@@A @4146
    ?PrivateStaticClass@UModel@@0VUClass@@A @4147
    ?PrivateStaticClass@UModifier@@0VUClass@@A @4148
    ?PrivateStaticClass@UMotionBlur@@0VUClass@@A @4149
    ?PrivateStaticClass@UNetConnection@@0VUClass@@A @4150
    ?PrivateStaticClass@UNetDriver@@0VUClass@@A @4151
    ?PrivateStaticClass@UNullRenderDevice@@0VUClass@@A @4152
    ?PrivateStaticClass@UOpacityModifier@@0VUClass@@A @4153
    ?PrivateStaticClass@UPackageMapLevel@@0VUClass@@A @4154
    ?PrivateStaticClass@UPalette@@0VUClass@@A @4155
    ?PrivateStaticClass@UParticleEmitter@@0VUClass@@A @4156
    ?PrivateStaticClass@UParticleMaterial@@0VUClass@@A @4157
    ?PrivateStaticClass@UPlayer@@0VUClass@@A @4158
    ?PrivateStaticClass@UPlayerInput@@0VUClass@@A @4159
    ?PrivateStaticClass@UPolys@@0VUClass@@A @4160
    ?PrivateStaticClass@UPrimitive@@0VUClass@@A @4161
    ?PrivateStaticClass@UProjectorPrimitive@@0VUClass@@A @4162
    ?PrivateStaticClass@UProxyBitmapMaterial@@0VUClass@@A @4163
    ?PrivateStaticClass@UR6AbstractGameManager@@0VUClass@@A @4164
    ?PrivateStaticClass@UR6AbstractPlanningInfo@@0VUClass@@A @4165
    ?PrivateStaticClass@UR6AbstractTerroristMgr@@0VUClass@@A @4166
    ?PrivateStaticClass@UR6FileManager@@0VUClass@@A @4167
    ?PrivateStaticClass@UR6GameColors@@0VUClass@@A @4168
    ?PrivateStaticClass@UR6GameMenuCom@@0VUClass@@A @4169
    ?PrivateStaticClass@UR6GameOptions@@0VUClass@@A @4170
    ?PrivateStaticClass@UR6MissionDescription@@0VUClass@@A @4171
    ?PrivateStaticClass@UR6Mod@@0VUClass@@A @4172
    ?PrivateStaticClass@UR6ModMgr@@0VUClass@@A @4173
    ?PrivateStaticClass@UR6ServerInfo@@0VUClass@@A @4174
    ?PrivateStaticClass@UReachSpec@@0VUClass@@A @4175
    ?PrivateStaticClass@URenderDevice@@0VUClass@@A @4176
    ?PrivateStaticClass@URenderResource@@0VUClass@@A @4177
    ?PrivateStaticClass@URenderedMaterial@@0VUClass@@A @4178
    ?PrivateStaticClass@UShader@@0VUClass@@A @4179
    ?PrivateStaticClass@UShadowBitmapMaterial@@0VUClass@@A @4180
    ?PrivateStaticClass@USkeletalMesh@@0VUClass@@A @4181
    ?PrivateStaticClass@USkeletalMeshInstance@@0VUClass@@A @4182
    ?PrivateStaticClass@USkinVertexBuffer@@0VUClass@@A @4183
    ?PrivateStaticClass@USound@@0VUClass@@A @4184
    ?PrivateStaticClass@USoundGen@@0VUClass@@A @4185
    ?PrivateStaticClass@USparkEmitter@@0VUClass@@A @4186
    ?PrivateStaticClass@USpriteEmitter@@0VUClass@@A @4187
    ?PrivateStaticClass@UStaticMesh@@0VUClass@@A @4188
    ?PrivateStaticClass@UStaticMeshInstance@@0VUClass@@A @4189
    ?PrivateStaticClass@USubActionCameraEffect@@0VUClass@@A @4190
    ?PrivateStaticClass@USubActionCameraShake@@0VUClass@@A @4191
    ?PrivateStaticClass@USubActionFOV@@0VUClass@@A @4192
    ?PrivateStaticClass@USubActionFade@@0VUClass@@A @4193
    ?PrivateStaticClass@USubActionGameSpeed@@0VUClass@@A @4194
    ?PrivateStaticClass@USubActionOrientation@@0VUClass@@A @4195
    ?PrivateStaticClass@USubActionSceneSpeed@@0VUClass@@A @4196
    ?PrivateStaticClass@USubActionTrigger@@0VUClass@@A @4197
    ?PrivateStaticClass@UTerrainMaterial@@0VUClass@@A @4198
    ?PrivateStaticClass@UTerrainPrimitive@@0VUClass@@A @4199
    ?PrivateStaticClass@UTerrainSector@@0VUClass@@A @4200
    ?PrivateStaticClass@UTexCoordMaterial@@0VUClass@@A @4201
    ?PrivateStaticClass@UTexCoordSource@@0VUClass@@A @4202
    ?PrivateStaticClass@UTexEnvMap@@0VUClass@@A @4203
    ?PrivateStaticClass@UTexMatrix@@0VUClass@@A @4204
    ?PrivateStaticClass@UTexModifier@@0VUClass@@A @4205
    ?PrivateStaticClass@UTexOscillator@@0VUClass@@A @4206
    ?PrivateStaticClass@UTexPanner@@0VUClass@@A @4207
    ?PrivateStaticClass@UTexRotator@@0VUClass@@A @4208
    ?PrivateStaticClass@UTexScaler@@0VUClass@@A @4209
    ?PrivateStaticClass@UTexture@@0VUClass@@A @4210
    ?PrivateStaticClass@UVertMesh@@0VUClass@@A @4211
    ?PrivateStaticClass@UVertMeshInstance@@0VUClass@@A @4212
    ?PrivateStaticClass@UVertexBuffer@@0VUClass@@A @4213
    ?PrivateStaticClass@UVertexColor@@0VUClass@@A @4214
    ?PrivateStaticClass@UVertexStreamBase@@0VUClass@@A @4215
    ?PrivateStaticClass@UVertexStreamCOLOR@@0VUClass@@A @4216
    ?PrivateStaticClass@UVertexStreamPosNormTex@@0VUClass@@A @4217
    ?PrivateStaticClass@UVertexStreamUV@@0VUClass@@A @4218
    ?PrivateStaticClass@UVertexStreamVECTOR@@0VUClass@@A @4219
    ?PrivateStaticClass@UViewport@@0VUClass@@A @4220
    ?Process@UInput@@UAEHAAVFOutputDevice@@W4EInputKey@@W4EInputAction@@M@Z @4221
    ?ProcessDemoRecFunction@AActor@@QAEXPAVUFunction@@PAXPAUFFrame@@@Z @4222
    ?ProcessEvent@AActor@@UAEXPAVUFunction@@PAX1@Z @4223
    ?ProcessR6Availabilty@AGameInfo@@SAXPAVULevel@@VFString@@@Z @4224
    ?ProcessRemoteFunction@AActor@@UAEHPAVUFunction@@PAXPAUFFrame@@@Z @4225
    ?ProcessState@AActor@@UAEXM@Z @4226
    ?Project@FSceneNode@@QAE?AVFPlane@@VFVector@@@Z @4227
    ?ProscribedPathTo@ALadder@@UAEHPAVANavigationPoint@@@Z @4228
    ?ProscribedPathTo@ANavigationPoint@@UAEHPAV1@@Z @4229
    ?PrunePaths@ANavigationPoint@@UAEHXZ @4230
    ?PurgeAcks@UNetConnection@@QAEXXZ @4231
    ?PushHit@UViewport@@QAEXABUHHitProxy@@H@Z @4232
    ?PutOnGround@AActor@@QAEXXZ @4233
    ?R6LineCheck@UModel@@QAEHAAUFCheckResult@@HVFVector@@1@Z @4234
    ?R6LineCheck@USkeletalMesh@@UAEHAAUFCheckResult@@PAVAActor@@VFVector@@22KK@Z @4235
    ?R6LineOfSightTo@APawn@@UAEKPAVAActor@@H@Z @4236
    ?R6PBKickPlayer@APlayerController@@QAEXVFString@@@Z @4237
    ?R6SeePawn@APawn@@UAEKPAV1@H@Z @4238
    ?Reachable@APawn@@QAEHVFVector@@PAVAActor@@@Z @4239
    ?ReachedDestination@APawn@@QAEHVFVector@@PAVAActor@@@Z @4240
    ?ReadInput@UInput@@UAEXMAAVFOutputDevice@@@Z @4241
    ?ReadInput@UNetConnection@@UAEXM@Z @4242
    ?ReadInput@UViewport@@UAEXM@Z @4243
    ?ReadPixels@UNullRenderDevice@@UAEXPAVUViewport@@PAVFColor@@@Z @4244
    ?ReadWaveInfo@FWaveModInfo@@QAEHAAV?$TArray@E@@@Z @4245
    ?RebuildClampedBitmap@AFluidSurfaceInfo@@QAEXXZ @4246
    ?ReceiveData@UBinaryFileDownload@@UAEXPAEH@Z @4247
    ?ReceiveData@UDownload@@UAEXPAEH@Z @4248
    ?ReceiveFile@UBinaryFileDownload@@UAEXPAVUNetConnection@@HPBGH@Z @4249
    ?ReceiveFile@UChannelDownload@@UAEXPAVUNetConnection@@HPBGH@Z @4250
    ?ReceiveFile@UDownload@@UAEXPAVUNetConnection@@HPBGH@Z @4251
    ?ReceiveFile@UNetConnection@@QAEXH@Z @4252
    ?ReceivedAcks@UChannel@@QAEXXZ @4253
    ?ReceivedBunch@UActorChannel@@UAEXAAVFInBunch@@@Z @4254
    ?ReceivedBunch@UControlChannel@@UAEXAAVFInBunch@@@Z @4255
    ?ReceivedBunch@UFileChannel@@UAEXAAVFInBunch@@@Z @4256
    ?ReceivedNak@UActorChannel@@UAEXH@Z @4257
    ?ReceivedNak@UChannel@@UAEXH@Z @4258
    ?ReceivedNak@UNetConnection@@QAEXH@Z @4259
    ?ReceivedPacket@UNetConnection@@QAEXAAUFBitReader@@@Z @4260
    ?ReceivedRawBunch@UChannel@@QAEXAAVFInBunch@@@Z @4261
    ?ReceivedRawPacket@UNetConnection@@QAEXPAXH@Z @4262
    ?ReceivedSequencedBunch@UChannel@@QAEHAAVFInBunch@@@Z @4263
    ?ReconcileActors@ULevel@@UAEXXZ @4264
    ?ReconstructRawMesh@USkeletalMesh@@QAEXXZ @4265
    ?RedBlueSwap@FColor@@QAE?AV1@XZ @4266
    ?Reduce16to8@FWaveModInfo@@QAEXXZ @4267
    ?RefreshAll@UViewport@@SAXXZ @4268
    ?RefreshSubActions@ASceneManager@@QAEXM@Z @4269
    ?RegisterStats@FStats@@QAEHW4EStatsType@@W4EStatsDataType@@VFString@@2W4EStatsUnit@@@Z @4270
    ?RemapChar@UFont@@QAEGG@Z @4271
    ?RememberActors@ULevel@@UAEXXZ @4272
    ?Remove@?$TArray@E@@QAEXHH@Z @4273
    ?RemoveActor@FCollisionHash@@UAEXPAVAActor@@@Z @4274
    ?RemoveActor@FCollisionOctree@@UAEXPAVAActor@@@Z @4275
    ?RemoveAllActors@FOctreeNode@@QAEXPAVFCollisionOctree@@@Z @4276
    ?RemoveColinears@FPoly@@QAEHXZ @4277
    ?RemoveItem@?$TArray@E@@QAEHABE@Z @4278
    ?Render@AEmitter@@QAEXPAVFDynamicActor@@PAVFLevelSceneNode@@PAV?$TList@PAVFDynamicLight@@@@PAVFRenderInterface@@@Z @4279
    ?Render@AFluidSurfaceInfo@@QAEXPAVFDynamicActor@@PAVFLevelSceneNode@@PAV?$TList@PAVFDynamicLight@@@@PAVFRenderInterface@@@Z @4280
    ?Render@ATerrainInfo@@QAEXPAVFLevelSceneNode@@PAVFRenderInterface@@PAVFVisibilityInterface@@@Z @4281
    ?Render@FActorSceneNode@@UAEXPAVFRenderInterface@@@Z @4282
    ?Render@FCameraSceneNode@@UAEXPAVFRenderInterface@@@Z @4283
    ?Render@FDynamicActor@@QAEXPAVFLevelSceneNode@@PAV?$TList@PAVFDynamicLight@@@@PAVFRenderInterface@@@Z @4284
    ?Render@FLevelSceneNode@@UAEXPAVFRenderInterface@@@Z @4285
    ?Render@FLightMapSceneNode@@UAEXPAVFRenderInterface@@@Z @4286
    ?Render@FStatGraph@@QAEXPAVUViewport@@PAVFRenderInterface@@@Z @4287
    ?Render@FStats@@QAEXPAVUViewport@@PAVUEngine@@@Z @4288
    ?Render@FTempLineBatcher@@QAEXPAVFRenderInterface@@H@Z @4289
    ?Render@UMeshInstance@@UAEXPAVFDynamicActor@@PAVFLevelSceneNode@@PAV?$TList@PAVFDynamicLight@@@@PAVFRenderInterface@@@Z @4290
    ?Render@UModel@@QAEXPAVFDynamicActor@@PAVFLevelSceneNode@@PAVFRenderInterface@@@Z @4291
    ?Render@USkeletalMeshInstance@@UAEXPAVFDynamicActor@@PAVFLevelSceneNode@@PAV?$TList@PAVFDynamicLight@@@@PAVFRenderInterface@@@Z @4292
    ?Render@UVertMeshInstance@@UAEXPAVFDynamicActor@@PAVFLevelSceneNode@@PAV?$TList@PAVFDynamicLight@@@@PAVFRenderInterface@@@Z @4293
    ?RenderDecorations@ATerrainInfo@@QAEXPAVFLevelSceneNode@@PAVFRenderInterface@@PAVFVisibilityInterface@@@Z @4294
    ?RenderEditorInfo@AActor@@UAEXPAVFLevelSceneNode@@PAVFRenderInterface@@PAVFDynamicActor@@@Z @4295
    ?RenderEditorInfo@ACamera@@UAEXPAVFLevelSceneNode@@PAVFRenderInterface@@PAVFDynamicActor@@@Z @4296
    ?RenderEditorInfo@AEmitter@@UAEXPAVFLevelSceneNode@@PAVFRenderInterface@@PAVFDynamicActor@@@Z @4297
    ?RenderEditorInfo@AFluidSurfaceInfo@@UAEXPAVFLevelSceneNode@@PAVFRenderInterface@@PAVFDynamicActor@@@Z @4298
    ?RenderEditorInfo@ALadderVolume@@UAEXPAVFLevelSceneNode@@PAVFRenderInterface@@PAVFDynamicActor@@@Z @4299
    ?RenderEditorInfo@AR6ActionSpot@@UAEXPAVFLevelSceneNode@@PAVFRenderInterface@@PAVFDynamicActor@@@Z @4300
    ?RenderEditorSelected@AActor@@UAEXPAVFLevelSceneNode@@PAVFRenderInterface@@PAVFDynamicActor@@@Z @4301
    ?RenderEditorSelected@ACamera@@UAEXPAVFLevelSceneNode@@PAVFRenderInterface@@PAVFDynamicActor@@@Z @4302
    ?RenderEditorSelected@AInterpolationPoint@@UAEXPAVFLevelSceneNode@@PAVFRenderInterface@@PAVFDynamicActor@@@Z @4303
    ?RenderEditorSelected@AKConstraint@@UAEXPAVFLevelSceneNode@@PAVFRenderInterface@@PAVFDynamicActor@@@Z @4304
    ?RenderEditorSelected@APawn@@UAEXPAVFLevelSceneNode@@PAVFRenderInterface@@PAVFDynamicActor@@@Z @4305
    ?RenderEditorSelected@AProjector@@UAEXPAVFLevelSceneNode@@PAVFRenderInterface@@PAVFDynamicActor@@@Z @4306
    ?RenderParticles@UBeamEmitter@@UAEHPAVFDynamicActor@@PAVFLevelSceneNode@@PAV?$TList@PAVFDynamicLight@@@@PAVFRenderInterface@@@Z @4307
    ?RenderParticles@UMeshEmitter@@UAEHPAVFDynamicActor@@PAVFLevelSceneNode@@PAV?$TList@PAVFDynamicLight@@@@PAVFRenderInterface@@@Z @4308
    ?RenderParticles@UParticleEmitter@@UAEHPAVFDynamicActor@@PAVFLevelSceneNode@@PAV?$TList@PAVFDynamicLight@@@@PAVFRenderInterface@@@Z @4309
    ?RenderParticles@USparkEmitter@@UAEHPAVFDynamicActor@@PAVFLevelSceneNode@@PAV?$TList@PAVFDynamicLight@@@@PAVFRenderInterface@@@Z @4310
    ?RenderParticles@USpriteEmitter@@UAEHPAVFDynamicActor@@PAVFLevelSceneNode@@PAV?$TList@PAVFDynamicLight@@@@PAVFRenderInterface@@@Z @4311
    ?RenderPreProcess@USkeletalMesh@@QAEHXZ @4312
    ?RenderPreProcess@UVertMesh@@QAEHXZ @4313
    ?RenderWireframe@AProjector@@QAEXPAVFRenderInterface@@@Z @4314
    ?ReplaceTexture@UEngine@@UAEHVFString@@PAVUTexture@@@Z @4315
    ?ReplaceTexture@UGameEngine@@UAEHVFString@@PAVUTexture@@@Z @4316
    ?ReplaceWithExisting@UPalette@@QAEPAV1@XZ @4317
    ?ReplicateActor@UActorChannel@@QAEXXZ @4318
    ?ReplicateAnim@AActor@@QAEXHVFName@@MMMMH@Z @4319
    ?RequiredUVStreams@UCombiner@@UAEEXZ @4320
    ?RequiredUVStreams@UMaterial@@UAEEXZ @4321
    ?RequiredUVStreams@UModifier@@UAEEXZ @4322
    ?RequiredUVStreams@UShader@@UAEEXZ @4323
    ?RequiredUVStreams@UTexModifier@@UAEEXZ @4324
    ?RequiresSorting@UCombiner@@UAEHXZ @4325
    ?RequiresSorting@UFinalBlend@@UAEHXZ @4326
    ?RequiresSorting@UMaterial@@UAEHXZ @4327
    ?RequiresSorting@UModifier@@UAEHXZ @4328
    ?RequiresSorting@UShader@@UAEHXZ @4329
    ?RequiresSorting@UTexture@@UAEHXZ @4330
    ?Reset@FStatGraph@@QAEXXZ @4331
    ?Reset@UParticleEmitter@@UAEXXZ @4332
    ?ResetInput@UInput@@UAEXXZ @4333
    ?ResetMove@ATerrainInfo@@QAEXXZ @4334
    ?RestoreGamma@UClient@@UAEXXZ @4335
    ?RestoreGamma@UEngine@@UAEXXZ @4336
    ?RestoreGamma@UNullRenderDevice@@UAEXXZ @4337
    ?Reverse@FPoly@@QAEXXZ @4338
    ?ReviewPath@ANavigationPoint@@UAEHPAVAPawn@@@Z @4339
    ?ReviewPath@APathNode@@UAEHPAVAPawn@@@Z @4340
    ?ReviewPaths@FPathBuilder@@QAEXPAVULevel@@@Z @4341
    ?Rotator@FRotatorF@@QAE?AVFRotator@@XZ @4342
    ?RouteDestroy@UChannel@@QAEHXZ @4343
    ?SafeDestroyActor@AActor@@QAEXPAV1@@Z @4344
    ?SampleIntensity@FDynamicLight@@QAEMVFVector@@0@Z @4345
    ?SampleLight@FDynamicLight@@QAE?AVFColor@@VFVector@@0@Z @4346
    ?Save@FRebuildTools@@QAEPAVFRebuildOptions@@VFString@@@Z @4347
    ?SaveGame@UGameEngine@@UAEXH@Z @4348
    ?SaveServerOptions@AActor@@QAEXVFString@@@Z @4349
    ?SaveURLConfig@FURL@@QBEXPBG00@Z @4350
    ?Scale@UBeamEmitter@@UAEXM@Z @4351
    ?Scale@UParticleEmitter@@UAEXM@Z @4352
    ?SceneEnded@ASceneManager@@QAEXXZ @4353
    ?SceneStarted@ASceneManager@@QAEXXZ @4354
    ?ScreenShot@UViewport@@QAEXXZ @4355
    ?SecondsToString@AActor@@QAEXHHAAVFString@@@Z @4356
    ?SeePawn@AController@@QAEKPAVAPawn@@H@Z @4357
    ?SelectVertex@ATerrainInfo@@QAEHVFVector@@@Z @4358
    ?SelectVertexX@ATerrainInfo@@QAEHHH@Z @4359
    ?SelectVerticesInBox@ATerrainInfo@@QAEXAAVFBox@@@Z @4360
    ?SendAck@UNetConnection@@UAEXHH@Z @4361
    ?SendBunch@UChannel@@QAEHPAVFOutBunch@@H@Z @4362
    ?SendPackageMap@UNetConnection@@QAEXXZ @4363
    ?SendRawBunch@UNetConnection@@QAEHAAVFOutBunch@@H@Z @4364
    ?SequenceMemFootprint@UMeshAnimation@@UAEHVFName@@@Z @4365
    ?Serialize@AActor@@UAEXAAVFArchive@@@Z @4366
    ?Serialize@ATerrainInfo@@UAEXAAVFArchive@@@Z @4367
    ?Serialize@UAnimation@@UAEXAAVFArchive@@@Z @4368
    ?Serialize@UBinaryFileDownload@@UAEXAAVFArchive@@@Z @4369
    ?Serialize@UChannelDownload@@UAEXAAVFArchive@@@Z @4370
    ?Serialize@UClient@@UAEXAAVFArchive@@@Z @4371
    ?Serialize@UControlChannel@@UAEXPBGW4EName@@@Z @4372
    ?Serialize@UConvexVolume@@UAEXAAVFArchive@@@Z @4373
    ?Serialize@UDownload@@UAEXAAVFArchive@@@Z @4374
    ?Serialize@UEngine@@UAEXAAVFArchive@@@Z @4375
    ?Serialize@UFluidSurfacePrimitive@@UAEXAAVFArchive@@@Z @4376
    ?Serialize@UFont@@UAEXAAVFArchive@@@Z @4377
    ?Serialize@UGameEngine@@UAEXAAVFArchive@@@Z @4378
    ?Serialize@UIndexBuffer@@UAEXAAVFArchive@@@Z @4379
    ?Serialize@UInput@@UAEXAAVFArchive@@@Z @4380
    ?Serialize@UKMeshProps@@UAEXAAVFArchive@@@Z @4381
    ?Serialize@ULevel@@UAEXAAVFArchive@@@Z @4382
    ?Serialize@ULevelBase@@UAEXAAVFArchive@@@Z @4383
    ?Serialize@ULodMesh@@UAEXAAVFArchive@@@Z @4384
    ?Serialize@ULodMeshInstance@@UAEXAAVFArchive@@@Z @4385
    ?Serialize@UMaterial@@UAEXAAVFArchive@@@Z @4386
    ?Serialize@UMesh@@UAEXAAVFArchive@@@Z @4387
    ?Serialize@UMeshAnimation@@UAEXAAVFArchive@@@Z @4388
    ?Serialize@UModel@@UAEXAAVFArchive@@@Z @4389
    ?Serialize@UNetConnection@@UAEXAAVFArchive@@@Z @4390
    ?Serialize@UNetConnection@@UAEXPBGW4EName@@@Z @4391
    ?Serialize@UNetDriver@@UAEXAAVFArchive@@@Z @4392
    ?Serialize@UPalette@@UAEXAAVFArchive@@@Z @4393
    ?Serialize@UPlayer@@UAEXAAVFArchive@@@Z @4394
    ?Serialize@UPolys@@UAEXAAVFArchive@@@Z @4395
    ?Serialize@UPrimitive@@UAEXAAVFArchive@@@Z @4396
    ?Serialize@URenderResource@@UAEXAAVFArchive@@@Z @4397
    ?Serialize@USkeletalMesh@@UAEXAAVFArchive@@@Z @4398
    ?Serialize@USkeletalMeshInstance@@UAEXAAVFArchive@@@Z @4399
    ?Serialize@USkinVertexBuffer@@UAEXAAVFArchive@@@Z @4400
    ?Serialize@USound@@UAEXAAVFArchive@@@Z @4401
    ?Serialize@USoundGen@@UAEXAAVFArchive@@@Z @4402
    ?Serialize@UStaticMesh@@UAEXAAVFArchive@@@Z @4403
    ?Serialize@UStaticMeshInstance@@UAEXAAVFArchive@@@Z @4404
    ?Serialize@UTerrainPrimitive@@UAEXAAVFArchive@@@Z @4405
    ?Serialize@UTerrainSector@@UAEXAAVFArchive@@@Z @4406
    ?Serialize@UTexture@@UAEXAAVFArchive@@@Z @4407
    ?Serialize@UVertMesh@@UAEXAAVFArchive@@@Z @4408
    ?Serialize@UVertMeshInstance@@UAEXAAVFArchive@@@Z @4409
    ?Serialize@UVertexBuffer@@UAEXAAVFArchive@@@Z @4410
    ?Serialize@UVertexStreamBase@@UAEXAAVFArchive@@@Z @4411
    ?Serialize@UVertexStreamCOLOR@@UAEXAAVFArchive@@@Z @4412
    ?Serialize@UVertexStreamPosNormTex@@UAEXAAVFArchive@@@Z @4413
    ?Serialize@UVertexStreamUV@@UAEXAAVFArchive@@@Z @4414
    ?Serialize@UVertexStreamVECTOR@@UAEXAAVFArchive@@@Z @4415
    ?Serialize@UViewport@@UAEXAAVFArchive@@@Z @4416
    ?Serialize@UViewport@@UAEXPBGW4EName@@@Z @4417
    ?SerializeObject@UPackageMapLevel@@UAEHAAVFArchive@@PAVUClass@@AAPAVUObject@@@Z @4418
    ?ServerTickClient@ULevel@@UAEHPAVUNetConnection@@M@Z @4419
    ?SetActor@ULodMeshInstance@@UAEXPAVAActor@@@Z @4420
    ?SetActor@UMeshInstance@@UAEXPAVAActor@@@Z @4421
    ?SetActorCollision@ULevel@@UAEXHH@Z @4422
    ?SetActorDirty@UNetConnection@@QAEXPAVAActor@@@Z @4423
    ?SetAdjust@FTerrainTools@@QAEXH@Z @4424
    ?SetAdjustLocation@AAIController@@UAEXVFVector@@@Z @4425
    ?SetAdjustLocation@AController@@UAEXVFVector@@@Z @4426
    ?SetAnimFrame@UMeshInstance@@UAEXHM@Z @4427
    ?SetAnimFrame@USkeletalMeshInstance@@UAEXHM@Z @4428
    ?SetAnimFrame@UVertMeshInstance@@UAEXHM@Z @4429
    ?SetAnimRate@USkeletalMeshInstance@@QAEXHM@Z @4430
    ?SetAnimSequence@USkeletalMeshInstance@@QAEXHVFName@@@Z @4431
    ?SetAttachAlias@USkeletalMesh@@QAEHVFName@@0AAVFCoords@@@Z @4432
    ?SetAttachmentLocation@USkeletalMesh@@QAEHPAVAActor@@0@Z @4433
    ?SetBase@AActor@@UAEXPAV1@VFVector@@H@Z @4434
    ?SetBase@APawn@@UAEXPAVAActor@@VFVector@@H@Z @4435
    ?SetBase@AR6ColBox@@UAEXPAVAActor@@VFVector@@H@Z @4436
    ?SetBlendAlpha@USkeletalMeshInstance@@QAEXHM@Z @4437
    ?SetBlendParams@USkeletalMeshInstance@@QAEHHMMMVFName@@H@Z @4438
    ?SetBoneDirection@USkeletalMeshInstance@@QAEHVFName@@VFRotator@@VFVector@@M@Z @4439
    ?SetBoneLocation@USkeletalMeshInstance@@QAEHVFName@@VFVector@@M@Z @4440
    ?SetBonePosition@USkeletalMeshInstance@@QAEHVFName@@VFRotator@@VFVector@@M@Z @4441
    ?SetBoneRotation@USkeletalMeshInstance@@QAEHVFName@@VFRotator@@HMM@Z @4442
    ?SetBoneScale@USkeletalMeshInstance@@QAEHHMVFName@@@Z @4443
    ?SetBrushRaytraceKey@AMover@@UAEXXZ @4444
    ?SetChannelActor@UActorChannel@@QAEXPAVAActor@@@Z @4445
    ?SetClampedBitmap@AFluidSurfaceInfo@@QAEXHHH@Z @4446
    ?SetClientTravel@UGameEngine@@UAEXPAVUPlayer@@PBGHW4ETravelType@@@Z @4447
    ?SetClip@UCanvas@@UAEXHHHH@Z @4448
    ?SetClosingFlag@UActorChannel@@UAEXXZ @4449
    ?SetClosingFlag@UChannel@@UAEXXZ @4450
    ?SetCollision@AActor@@QAEXHHH@Z @4451
    ?SetCollisionSize@AActor@@QAEXMM@Z @4452
    ?SetCurrent@FMatineeTools@@QAEPAVASceneManager@@PAVUEngine@@PAVULevel@@PAV2@@Z @4453
    ?SetCurrent@FMatineeTools@@QAEPAVASceneManager@@PAVUEngine@@PAVULevel@@VFString@@@Z @4454
    ?SetCurrent@FRebuildTools@@QAEXVFString@@@Z @4455
    ?SetCurrentAction@FMatineeTools@@QAEPAVUMatAction@@PAV2@@Z @4456
    ?SetCurrentBrush@FTerrainTools@@QAEXH@Z @4457
    ?SetCurrentSubAction@FMatineeTools@@QAEPAVUMatSubAction@@PAV2@@Z @4458
    ?SetCurrentTerrainInfo@FTerrainTools@@QAEXPAVATerrainInfo@@@Z @4459
    ?SetCurrentTime@ASceneManager@@QAEXM@Z @4460
    ?SetDrag@UViewport@@UAEHH@Z @4461
    ?SetDrawScale3D@AActor@@QAEXVFVector@@@Z @4462
    ?SetDrawScale@AActor@@QAEXM@Z @4463
    ?SetDrawType@AActor@@QAEXW4EDrawType@@@Z @4464
    ?SetEdgeTurnBitmap@ATerrainInfo@@QAEXHHH@Z @4465
    ?SetEmulationMode@UNullRenderDevice@@UAEXW4EHardwareEmulationMode@@@Z @4466
    ?SetFloorOffset@FTerrainTools@@QAEXH@Z @4467
    ?SetGSCreateUbiServer@UR6AbstractGameManager@@UAEXH@Z @4468
    ?SetGameType@AActor@@QAEXVFString@@@Z @4469
    ?SetHeightmap@ATerrainInfo@@QAEXHHG@Z @4470
    ?SetInnerRadius@FTerrainTools@@QAEXH@Z @4471
    ?SetInputAction@UInput@@QAEXW4EInputAction@@M@Z @4472
    ?SetKey@UInput@@UAEXPBG@Z @4473
    ?SetLastUpdateTime@UTexture@@QAEXN@Z @4474
    ?SetLayerAlpha@ATerrainInfo@@QAEXMMHEPAVUTexture@@@Z @4475
    ?SetMesh@ULodMeshInstance@@UAEXPAVUMesh@@@Z @4476
    ?SetMesh@UMeshInstance@@UAEXPAVUMesh@@@Z @4477
    ?SetMesh@USkeletalMeshInstance@@UAEXPAVUMesh@@@Z @4478
    ?SetMirrorAxis@FTerrainTools@@QAEXH@Z @4479
    ?SetNPatchesInfos@FRenderInterface@@UAEXHM@Z @4480
    ?SetOuterRadius@FTerrainTools@@QAEXH@Z @4481
    ?SetOwner@AActor@@QAEXPAV1@@Z @4482
    ?SetPartialSize@FAnimMeshVertexStream@@UAEHH@Z @4483
    ?SetPath@AController@@QAEPAVAActor@@H@Z @4484
    ?SetPathCollision@FPathBuilder@@AAEXH@Z @4485
    ?SetPlanningFloorMap@ATerrainInfo@@QAEXHHH@Z @4486
    ?SetPlayer@APlayerController@@QAEXPAVUPlayer@@@Z @4487
    ?SetPolyFlags@UVertexStreamBase@@QAEXK@Z @4488
    ?SetPrePivot@APawn@@UAEXVFVector@@@Z @4489
    ?SetProgress@UEngine@@UAEXPBG0M@Z @4490
    ?SetProgress@UGameEngine@@UAEXPBG0M@Z @4491
    ?SetQuadVisibilityBitmap@ATerrainInfo@@QAEXHHH@Z @4492
    ?SetRes@UNullRenderDevice@@UAEHPAVUViewport@@HHH@Z @4493
    ?SetRouteCache@AController@@QAEXPAVANavigationPoint@@MM@Z @4494
    ?SetScale@UMeshInstance@@UAEXVFVector@@@Z @4495
    ?SetScale@USkeletalMeshInstance@@UAEXVFVector@@@Z @4496
    ?SetScale@UVertMeshInstance@@UAEXVFVector@@@Z @4497
    ?SetSceneStartTime@ASceneManager@@QAEXXZ @4498
    ?SetSkelAnim@USkeletalMeshInstance@@QAEHPAVUMeshAnimation@@PAVUSkeletalMesh@@@Z @4499
    ?SetStaticMesh@AActor@@QAEXPAVUStaticMesh@@@Z @4500
    ?SetStatus@ULodMeshInstance@@UAEXH@Z @4501
    ?SetStatus@UMeshInstance@@UAEXH@Z @4502
    ?SetStrength@FTerrainTools@@QAEXH@Z @4503
    ?SetStretch@UCanvas@@QAEXMM@Z @4504
    ?SetTextureColor@ATerrainInfo@@QAEXHHPAVUTexture@@AAVFColor@@@Z @4505
    ?SetTextureInterface@UProxyBitmapMaterial@@QAEXPAVFBaseTexture@@@Z @4506
    ?SetValidated@UFinalBlend@@UAEXH@Z @4507
    ?SetValidated@UMaterial@@UAEXH@Z @4508
    ?SetValidated@UTexModifier@@UAEXH@Z @4509
    ?SetVirtualSize@UCanvas@@QAEXMM@Z @4510
    ?SetVolumes@AActor@@UAEXABV?$TArray@PAVAVolume@@@@@Z @4511
    ?SetVolumes@AActor@@UAEXXZ @4512
    ?SetVolumes@ALevelInfo@@UAEXABV?$TArray@PAVAVolume@@@@@Z @4513
    ?SetVolumes@ALevelInfo@@UAEXXZ @4514
    ?SetVolumes@ANavigationPoint@@UAEXABV?$TArray@PAVAVolume@@@@@Z @4515
    ?SetVolumes@AVolume@@UAEXABV?$TArray@PAVAVolume@@@@@Z @4516
    ?SetVolumes@AVolume@@UAEXXZ @4517
    ?SetWorldRaytraceKey@AMover@@UAEXXZ @4518
    ?SetZone@AActor@@UAEXHH@Z @4519
    ?SetZone@ALevelInfo@@UAEXHH@Z @4520
    ?SetZone@APawn@@UAEXHH@Z @4521
    ?SetZone@APhysicsVolume@@UAEXHH@Z @4522
    ?SetupForcedPath@AJumpDest@@UAEXPAVAPawn@@PAVUReachSpec@@@Z @4523
    ?SetupForcedPath@ANavigationPoint@@UAEXPAVAPawn@@PAVUReachSpec@@@Z @4524
    ?SetupSectors@ATerrainInfo@@QAEXXZ @4525
    ?ShouldBeBased@ANavigationPoint@@QAEHXZ @4526
    ?ShouldTrace@AActor@@UAEHPAV1@K@Z @4527
    ?ShouldTrace@AMover@@UAEHPAVAActor@@K@Z @4528
    ?ShouldTrace@APawn@@UAEHPAVAActor@@K@Z @4529
    ?ShouldTrace@AProjector@@UAEHPAVAActor@@K@Z @4530
    ?ShouldTrace@AR6ColBox@@UAEHPAVAActor@@K@Z @4531
    ?ShouldTrace@AStaticMeshActor@@UAEHPAVAActor@@K@Z @4532
    ?ShouldTrace@AVolume@@UAEHPAVAActor@@K@Z @4533
    ?ShowSelf@AController@@QAEXXZ @4534
    ?Shrink@?$TArray@E@@QAEXXZ @4535
    ?ShrinkLevel@ULevel@@UAEXXZ @4536
    ?ShrinkModel@UModel@@QAEXXZ @4537
    ?Shutdown@FRebuildTools@@QAEXXZ @4538
    ?SingleLineCheck@ULevel@@UAEHAAUFCheckResult@@PAVAActor@@ABVFVector@@2KV4@@Z @4539
    ?SingleNodeFilter@FOctreeNode@@QAEXPAVAActor@@PAVFCollisionOctree@@PBVFPlane@@@Z @4540
    ?SinglePointCheck@ULevel@@UAEHAAUFCheckResult@@PAVAActor@@VFVector@@2KPAVALevelInfo@@H@Z @4541
    ?SinglePointCheck@ULevel@@UAEHAAUFCheckResult@@VFVector@@1KPAVALevelInfo@@H@Z @4542
    ?SlowAssertValid@UNetConnection@@QAEXXZ @4543
    ?SmoothHitWall@AActor@@UAEXVFVector@@PAV1@@Z @4544
    ?SmoothHitWall@APawn@@UAEXVFVector@@PAVAActor@@@Z @4545
    ?SoftDeselect@ATerrainInfo@@QAEXXZ @4546
    ?SoftSelect@ATerrainInfo@@QAEXMM@Z @4547
    ?SpawnActor@ULevel@@UAEPAVAActor@@PAVUClass@@VFName@@VFVector@@VFRotator@@PAV2@HH4PAVAPawn@@@Z @4548
    ?SpawnBrush@ULevel@@UAEPAVABrush@@XZ @4549
    ?SpawnDemoRecSpectator@UDemoRecDriver@@QAEXPAVUNetConnection@@@Z @4550
    ?SpawnEffects@AR6WallHit@@UAEXXZ @4551
    ?SpawnIndividualParticles@UParticleEmitter@@UAEXH@Z @4552
    ?SpawnParticle@UBeamEmitter@@UAEXHMHHABVFVector@@@Z @4553
    ?SpawnParticle@UParticleEmitter@@UAEXHMHHABVFVector@@@Z @4554
    ?SpawnParticle@USparkEmitter@@UAEXHMHHABVFVector@@@Z @4555
    ?SpawnParticles@UParticleEmitter@@UAEMMMM@Z @4556
    ?SpawnPlayActor@ULevel@@UAEPAVAPlayerController@@PAVUPlayer@@W4ENetRole@@ABVFURL@@AAVFString@@@Z @4557
    ?SpawnSound@AR6WallHit@@UAEXXZ @4558
    ?SpawnViewActor@ULevel@@UAEXPAVUViewport@@@Z @4559
    ?Spawned@AActor@@UAEXXZ @4560
    ?Spawned@AEmitter@@UAEXXZ @4561
    ?Spawned@AFluidSurfaceInfo@@UAEXXZ @4562
    ?Spawned@AKActor@@UAEXXZ @4563
    ?Spawned@AMover@@UAEXXZ @4564
    ?Spawned@ANavigationPoint@@UAEXXZ @4565
    ?Spawned@AR6DecalGroup@@UAEXXZ @4566
    ?Spawned@AR6DecalManager@@UAEXXZ @4567
    ?SpecialDestroy@APlayerController@@QAEXXZ @4568
    ?SphereCheck@FConvexVolume@@QAEEVFSphere@@@Z @4569
    ?SpiderstepUp@APawn@@AAEXVFVector@@0AAUFCheckResult@@@Z @4570
    ?Split@FPoly@@QAEHABVFVector@@0H@Z @4571
    ?SplitInHalf@FPoly@@QAEXPAV1@@Z @4572
    ?SplitPrecise@FPoly@@QAEHABVFVector@@0H@Z @4573
    ?SplitWithNode@FPoly@@QBEHPBVUModel@@HPAV1@1H@Z @4574
    ?SplitWithPlane@FPoly@@QBEHABVFVector@@0PAV1@1H@Z @4575
    ?SplitWithPlaneFast@FPoly@@QBEHVFPlane@@PAV1@1@Z @4576
    ?SplitWithPlaneFastPrecise@FPoly@@QBEHVFPlane@@PAV1@1@Z @4577
    ?StartAnimPoll@AActor@@UAEXXZ @4578
    ?StartAnimPoll@AController@@UAEXXZ @4579
    ?StartFade@UCanvas@@QAEXVFColor@@0MH@Z @4580
    ?StartJoinServer@UR6AbstractGameManager@@UAEXVFString@@0H@Z @4581
    ?StartLogInProcedure@UR6AbstractGameManager@@UAEHXZ @4582
    ?StartNewSerpentine@APawn@@QAEXVFVector@@0@Z @4583
    ?StartPreJoinProcedure@UR6AbstractGameManager@@UAEXH@Z @4584
    ?StartVideo@URenderDevice@@UAEXPAVUCanvas@@HHH@Z @4585
    ?StaticClass@AAIController@@SAPAVUClass@@XZ @4586
    ?StaticClass@AAIMarker@@SAPAVUClass@@XZ @4587
    ?StaticClass@AAIScript@@SAPAVUClass@@XZ @4588
    ?StaticClass@AActor@@SAPAVUClass@@XZ @4589
    ?StaticClass@AActorManager@@SAPAVUClass@@XZ @4590
    ?StaticClass@AAntiPortalActor@@SAPAVUClass@@XZ @4591
    ?StaticClass@ABlockingVolume@@SAPAVUClass@@XZ @4592
    ?StaticClass@ABrush@@SAPAVUClass@@XZ @4593
    ?StaticClass@ACamera@@SAPAVUClass@@XZ @4594
    ?StaticClass@AClipMarker@@SAPAVUClass@@XZ @4595
    ?StaticClass@AController@@SAPAVUClass@@XZ @4596
    ?StaticClass@ADecoVolumeObject@@SAPAVUClass@@XZ @4597
    ?StaticClass@ADecorationList@@SAPAVUClass@@XZ @4598
    ?StaticClass@ADefaultPhysicsVolume@@SAPAVUClass@@XZ @4599
    ?StaticClass@ADoor@@SAPAVUClass@@XZ @4600
    ?StaticClass@AEmitter@@SAPAVUClass@@XZ @4601
    ?StaticClass@AFluidSurfaceInfo@@SAPAVUClass@@XZ @4602
    ?StaticClass@AFluidSurfaceOscillator@@SAPAVUClass@@XZ @4603
    ?StaticClass@AGameInfo@@SAPAVUClass@@XZ @4604
    ?StaticClass@AGameReplicationInfo@@SAPAVUClass@@XZ @4605
    ?StaticClass@AHUD@@SAPAVUClass@@XZ @4606
    ?StaticClass@AInfo@@SAPAVUClass@@XZ @4607
    ?StaticClass@AInternetInfo@@SAPAVUClass@@XZ @4608
    ?StaticClass@AInterpolationPoint@@SAPAVUClass@@XZ @4609
    ?StaticClass@AJumpDest@@SAPAVUClass@@XZ @4610
    ?StaticClass@AJumpPad@@SAPAVUClass@@XZ @4611
    ?StaticClass@AKActor@@SAPAVUClass@@XZ @4612
    ?StaticClass@AKBSJoint@@SAPAVUClass@@XZ @4613
    ?StaticClass@AKConeLimit@@SAPAVUClass@@XZ @4614
    ?StaticClass@AKConstraint@@SAPAVUClass@@XZ @4615
    ?StaticClass@AKHinge@@SAPAVUClass@@XZ @4616
    ?StaticClass@AKeypoint@@SAPAVUClass@@XZ @4617
    ?StaticClass@ALadder@@SAPAVUClass@@XZ @4618
    ?StaticClass@ALadderVolume@@SAPAVUClass@@XZ @4619
    ?StaticClass@ALevelInfo@@SAPAVUClass@@XZ @4620
    ?StaticClass@ALiftCenter@@SAPAVUClass@@XZ @4621
    ?StaticClass@ALiftExit@@SAPAVUClass@@XZ @4622
    ?StaticClass@ALight@@SAPAVUClass@@XZ @4623
    ?StaticClass@ALineOfSightTrigger@@SAPAVUClass@@XZ @4624
    ?StaticClass@ALookTarget@@SAPAVUClass@@XZ @4625
    ?StaticClass@AMapList@@SAPAVUClass@@XZ @4626
    ?StaticClass@AMover@@SAPAVUClass@@XZ @4627
    ?StaticClass@ANavigationPoint@@SAPAVUClass@@XZ @4628
    ?StaticClass@ANote@@SAPAVUClass@@XZ @4629
    ?StaticClass@APathNode@@SAPAVUClass@@XZ @4630
    ?StaticClass@APawn@@SAPAVUClass@@XZ @4631
    ?StaticClass@APhysicsVolume@@SAPAVUClass@@XZ @4632
    ?StaticClass@APlayerController@@SAPAVUClass@@XZ @4633
    ?StaticClass@APlayerReplicationInfo@@SAPAVUClass@@XZ @4634
    ?StaticClass@APlayerStart@@SAPAVUClass@@XZ @4635
    ?StaticClass@APolyMarker@@SAPAVUClass@@XZ @4636
    ?StaticClass@APotentialClimbWatcher@@SAPAVUClass@@XZ @4637
    ?StaticClass@AProjector@@SAPAVUClass@@XZ @4638
    ?StaticClass@AR6AbstractCircumstantialActionQuery@@SAPAVUClass@@XZ @4639
    ; ?StaticClass@AR6AbstractClimbableObj@@SAPAVUClass@@XZ @4640  ; inline fn, no dllexport, ordinal reserved
    ?StaticClass@AR6ActionPointAbstract@@SAPAVUClass@@XZ @4641
    ?StaticClass@AR6ActionSpot@@SAPAVUClass@@XZ @4642
    ?StaticClass@AR6ColBox@@SAPAVUClass@@XZ @4643
    ?StaticClass@AR6Decal@@SAPAVUClass@@XZ @4644
    ?StaticClass@AR6DecalGroup@@SAPAVUClass@@XZ @4645
    ?StaticClass@AR6DecalManager@@SAPAVUClass@@XZ @4646
    ?StaticClass@AR6DecalsBase@@SAPAVUClass@@XZ @4647
    ?StaticClass@AR6EngineFirstPersonWeapon@@SAPAVUClass@@XZ @4648
    ?StaticClass@AR6EngineWeapon@@SAPAVUClass@@XZ @4649
    ?StaticClass@AR6FootStep@@SAPAVUClass@@XZ @4650
    ?StaticClass@AR6GlowLight@@SAPAVUClass@@XZ @4651
    ?StaticClass@AR6MapList@@SAPAVUClass@@XZ @4652
    ?StaticClass@AR6MorphMeshActor@@SAPAVUClass@@XZ @4653
    ?StaticClass@AR6PawnReplicationInfo@@SAPAVUClass@@XZ @4654
    ?StaticClass@AR6RainbowStartInfo@@SAPAVUClass@@XZ @4655
    ?StaticClass@AR6StartGameInfo@@SAPAVUClass@@XZ @4656
    ?StaticClass@AR6TeamStartInfo@@SAPAVUClass@@XZ @4657
    ?StaticClass@AR6WallHit@@SAPAVUClass@@XZ @4658
    ?StaticClass@AR6eviLTesting@@SAPAVUClass@@XZ @4659
    ?StaticClass@AReplicationInfo@@SAPAVUClass@@XZ @4660
    ?StaticClass@ASavedMove@@SAPAVUClass@@XZ @4661
    ?StaticClass@ASceneManager@@SAPAVUClass@@XZ @4662
    ?StaticClass@AScout@@SAPAVUClass@@XZ @4663
    ?StaticClass@ASkyZoneInfo@@SAPAVUClass@@XZ @4664
    ?StaticClass@ASmallNavigationPoint@@SAPAVUClass@@XZ @4665
    ?StaticClass@AStatLog@@SAPAVUClass@@XZ @4666
    ?StaticClass@AStatLogFile@@SAPAVUClass@@XZ @4667
    ?StaticClass@AStaticMeshActor@@SAPAVUClass@@XZ @4668
    ?StaticClass@ATeleporter@@SAPAVUClass@@XZ @4669
    ?StaticClass@ATerrainInfo@@SAPAVUClass@@XZ @4670
    ?StaticClass@ATrigger@@SAPAVUClass@@XZ @4671
    ?StaticClass@ATriggers@@SAPAVUClass@@XZ @4672
    ?StaticClass@AVolume@@SAPAVUClass@@XZ @4673
    ?StaticClass@AWarpZoneInfo@@SAPAVUClass@@XZ @4674
    ?StaticClass@AWarpZoneMarker@@SAPAVUClass@@XZ @4675
    ?StaticClass@AZoneInfo@@SAPAVUClass@@XZ @4676
    ?StaticClass@UActionMoveActor@@SAPAVUClass@@XZ @4677
    ?StaticClass@UActionMoveCamera@@SAPAVUClass@@XZ @4678
    ?StaticClass@UActionPause@@SAPAVUClass@@XZ @4679
    ?StaticClass@UActorChannel@@SAPAVUClass@@XZ @4680
    ?StaticClass@UAnimNotify@@SAPAVUClass@@XZ @4681
    ?StaticClass@UAnimNotify_DestroyEffect@@SAPAVUClass@@XZ @4682
    ?StaticClass@UAnimNotify_Effect@@SAPAVUClass@@XZ @4683
    ?StaticClass@UAnimNotify_MatSubAction@@SAPAVUClass@@XZ @4684
    ?StaticClass@UAnimNotify_Script@@SAPAVUClass@@XZ @4685
    ?StaticClass@UAnimNotify_Scripted@@SAPAVUClass@@XZ @4686
    ?StaticClass@UAnimNotify_Sound@@SAPAVUClass@@XZ @4687
    ?StaticClass@UAnimation@@SAPAVUClass@@XZ @4688
    ?StaticClass@UAudioSubsystem@@SAPAVUClass@@XZ @4689
    ?StaticClass@UBeamEmitter@@SAPAVUClass@@XZ @4690
    ?StaticClass@UBinaryFileDownload@@SAPAVUClass@@XZ @4691
    ?StaticClass@UBitmapMaterial@@SAPAVUClass@@XZ @4692
    ?StaticClass@UCameraEffect@@SAPAVUClass@@XZ @4693
    ?StaticClass@UCameraOverlay@@SAPAVUClass@@XZ @4694
    ?StaticClass@UCanvas@@SAPAVUClass@@XZ @4695
    ?StaticClass@UChannel@@SAPAVUClass@@XZ @4696
    ?StaticClass@UChannelDownload@@SAPAVUClass@@XZ @4697
    ?StaticClass@UCheatManager@@SAPAVUClass@@XZ @4698
    ?StaticClass@UClient@@SAPAVUClass@@XZ @4699
    ?StaticClass@UColorModifier@@SAPAVUClass@@XZ @4700
    ?StaticClass@UCombiner@@SAPAVUClass@@XZ @4701
    ?StaticClass@UConsole@@SAPAVUClass@@XZ @4702
    ?StaticClass@UConstantColor@@SAPAVUClass@@XZ @4703
    ?StaticClass@UConstantMaterial@@SAPAVUClass@@XZ @4704
    ?StaticClass@UControlChannel@@SAPAVUClass@@XZ @4705
    ?StaticClass@UConvexVolume@@SAPAVUClass@@XZ @4706
    ?StaticClass@UCubemap@@SAPAVUClass@@XZ @4707
    ?StaticClass@UDemoRecConnection@@SAPAVUClass@@XZ @4708
    ?StaticClass@UDemoRecDriver@@SAPAVUClass@@XZ @4709
    ?StaticClass@UDiffuseAttenuationMaterial@@SAPAVUClass@@XZ @4710
    ?StaticClass@UDownload@@SAPAVUClass@@XZ @4711
    ?StaticClass@UEngine@@SAPAVUClass@@XZ @4712
    ?StaticClass@UFadeColor@@SAPAVUClass@@XZ @4713
    ?StaticClass@UFileChannel@@SAPAVUClass@@XZ @4714
    ?StaticClass@UFinalBlend@@SAPAVUClass@@XZ @4715
    ?StaticClass@UFluidSurfacePrimitive@@SAPAVUClass@@XZ @4716
    ?StaticClass@UFont@@SAPAVUClass@@XZ @4717
    ?StaticClass@UGameEngine@@SAPAVUClass@@XZ @4718
    ?StaticClass@UI3DL2Listener@@SAPAVUClass@@XZ @4719
    ?StaticClass@UIndexBuffer@@SAPAVUClass@@XZ @4720
    ?StaticClass@UInput@@SAPAVUClass@@XZ @4721
    ?StaticClass@UInputPlanning@@SAPAVUClass@@XZ @4722
    ?StaticClass@UInteraction@@SAPAVUClass@@XZ @4723
    ?StaticClass@UInteractionMaster@@SAPAVUClass@@XZ @4724
    ?StaticClass@UInteractions@@SAPAVUClass@@XZ @4725
    ?StaticClass@UKMeshProps@@SAPAVUClass@@XZ @4726
    ?StaticClass@UKarmaParams@@SAPAVUClass@@XZ @4727
    ?StaticClass@UKarmaParamsCollision@@SAPAVUClass@@XZ @4728
    ?StaticClass@UKarmaParamsRBFull@@SAPAVUClass@@XZ @4729
    ?StaticClass@UKarmaParamsSkel@@SAPAVUClass@@XZ @4730
    ?StaticClass@ULevel@@SAPAVUClass@@XZ @4731
    ?StaticClass@ULevelBase@@SAPAVUClass@@XZ @4732
    ?StaticClass@ULevelSummary@@SAPAVUClass@@XZ @4733
    ?StaticClass@ULodMesh@@SAPAVUClass@@XZ @4734
    ?StaticClass@ULodMeshInstance@@SAPAVUClass@@XZ @4735
    ?StaticClass@UMatAction@@SAPAVUClass@@XZ @4736
    ?StaticClass@UMatObject@@SAPAVUClass@@XZ @4737
    ?StaticClass@UMatSubAction@@SAPAVUClass@@XZ @4738
    ?StaticClass@UMaterial@@SAPAVUClass@@XZ @4739
    ?StaticClass@UMaterialSwitch@@SAPAVUClass@@XZ @4740
    ?StaticClass@UMesh@@SAPAVUClass@@XZ @4741
    ?StaticClass@UMeshAnimation@@SAPAVUClass@@XZ @4742
    ?StaticClass@UMeshEmitter@@SAPAVUClass@@XZ @4743
    ?StaticClass@UMeshInstance@@SAPAVUClass@@XZ @4744
    ?StaticClass@UModel@@SAPAVUClass@@XZ @4745
    ?StaticClass@UModifier@@SAPAVUClass@@XZ @4746
    ?StaticClass@UMotionBlur@@SAPAVUClass@@XZ @4747
    ?StaticClass@UNetConnection@@SAPAVUClass@@XZ @4748
    ?StaticClass@UNetDriver@@SAPAVUClass@@XZ @4749
    ?StaticClass@UNullRenderDevice@@SAPAVUClass@@XZ @4750
    ?StaticClass@UOpacityModifier@@SAPAVUClass@@XZ @4751
    ?StaticClass@UPackageMapLevel@@SAPAVUClass@@XZ @4752
    ?StaticClass@UPalette@@SAPAVUClass@@XZ @4753
    ?StaticClass@UParticleEmitter@@SAPAVUClass@@XZ @4754
    ?StaticClass@UParticleMaterial@@SAPAVUClass@@XZ @4755
    ?StaticClass@UPlayer@@SAPAVUClass@@XZ @4756
    ?StaticClass@UPlayerInput@@SAPAVUClass@@XZ @4757
    ?StaticClass@UPolys@@SAPAVUClass@@XZ @4758
    ?StaticClass@UPrimitive@@SAPAVUClass@@XZ @4759
    ?StaticClass@UProjectorPrimitive@@SAPAVUClass@@XZ @4760
    ?StaticClass@UProxyBitmapMaterial@@SAPAVUClass@@XZ @4761
    ?StaticClass@UR6AbstractGameManager@@SAPAVUClass@@XZ @4762
    ?StaticClass@UR6AbstractPlanningInfo@@SAPAVUClass@@XZ @4763
    ; ?StaticClass@UR6AbstractTerroristMgr@@SAPAVUClass@@XZ @4764  ; inline fn, no dllexport, ordinal reserved
    ?StaticClass@UR6FileManager@@SAPAVUClass@@XZ @4765
    ?StaticClass@UR6GameColors@@SAPAVUClass@@XZ @4766
    ?StaticClass@UR6GameMenuCom@@SAPAVUClass@@XZ @4767
    ?StaticClass@UR6GameOptions@@SAPAVUClass@@XZ @4768
    ?StaticClass@UR6MissionDescription@@SAPAVUClass@@XZ @4769
    ?StaticClass@UR6Mod@@SAPAVUClass@@XZ @4770
    ?StaticClass@UR6ModMgr@@SAPAVUClass@@XZ @4771
    ?StaticClass@UR6ServerInfo@@SAPAVUClass@@XZ @4772
    ?StaticClass@UReachSpec@@SAPAVUClass@@XZ @4773
    ?StaticClass@URenderDevice@@SAPAVUClass@@XZ @4774
    ?StaticClass@URenderResource@@SAPAVUClass@@XZ @4775
    ?StaticClass@URenderedMaterial@@SAPAVUClass@@XZ @4776
    ?StaticClass@UShader@@SAPAVUClass@@XZ @4777
    ?StaticClass@UShadowBitmapMaterial@@SAPAVUClass@@XZ @4778
    ?StaticClass@USkeletalMesh@@SAPAVUClass@@XZ @4779
    ?StaticClass@USkeletalMeshInstance@@SAPAVUClass@@XZ @4780
    ?StaticClass@USkinVertexBuffer@@SAPAVUClass@@XZ @4781
    ?StaticClass@USound@@SAPAVUClass@@XZ @4782
    ?StaticClass@USoundGen@@SAPAVUClass@@XZ @4783
    ?StaticClass@USparkEmitter@@SAPAVUClass@@XZ @4784
    ?StaticClass@USpriteEmitter@@SAPAVUClass@@XZ @4785
    ?StaticClass@UStaticMesh@@SAPAVUClass@@XZ @4786
    ?StaticClass@UStaticMeshInstance@@SAPAVUClass@@XZ @4787
    ?StaticClass@USubActionCameraEffect@@SAPAVUClass@@XZ @4788
    ?StaticClass@USubActionCameraShake@@SAPAVUClass@@XZ @4789
    ?StaticClass@USubActionFOV@@SAPAVUClass@@XZ @4790
    ?StaticClass@USubActionFade@@SAPAVUClass@@XZ @4791
    ?StaticClass@USubActionGameSpeed@@SAPAVUClass@@XZ @4792
    ?StaticClass@USubActionOrientation@@SAPAVUClass@@XZ @4793
    ?StaticClass@USubActionSceneSpeed@@SAPAVUClass@@XZ @4794
    ?StaticClass@USubActionTrigger@@SAPAVUClass@@XZ @4795
    ?StaticClass@UTerrainMaterial@@SAPAVUClass@@XZ @4796
    ?StaticClass@UTerrainPrimitive@@SAPAVUClass@@XZ @4797
    ?StaticClass@UTerrainSector@@SAPAVUClass@@XZ @4798
    ?StaticClass@UTexCoordMaterial@@SAPAVUClass@@XZ @4799
    ?StaticClass@UTexCoordSource@@SAPAVUClass@@XZ @4800
    ?StaticClass@UTexEnvMap@@SAPAVUClass@@XZ @4801
    ?StaticClass@UTexMatrix@@SAPAVUClass@@XZ @4802
    ?StaticClass@UTexModifier@@SAPAVUClass@@XZ @4803
    ?StaticClass@UTexOscillator@@SAPAVUClass@@XZ @4804
    ?StaticClass@UTexPanner@@SAPAVUClass@@XZ @4805
    ?StaticClass@UTexRotator@@SAPAVUClass@@XZ @4806
    ?StaticClass@UTexScaler@@SAPAVUClass@@XZ @4807
    ?StaticClass@UTexture@@SAPAVUClass@@XZ @4808
    ?StaticClass@UVertMesh@@SAPAVUClass@@XZ @4809
    ?StaticClass@UVertMeshInstance@@SAPAVUClass@@XZ @4810
    ?StaticClass@UVertexBuffer@@SAPAVUClass@@XZ @4811
    ?StaticClass@UVertexColor@@SAPAVUClass@@XZ @4812
    ?StaticClass@UVertexStreamBase@@SAPAVUClass@@XZ @4813
    ?StaticClass@UVertexStreamCOLOR@@SAPAVUClass@@XZ @4814
    ?StaticClass@UVertexStreamPosNormTex@@SAPAVUClass@@XZ @4815
    ?StaticClass@UVertexStreamUV@@SAPAVUClass@@XZ @4816
    ?StaticClass@UVertexStreamVECTOR@@SAPAVUClass@@XZ @4817
    ?StaticClass@UViewport@@SAPAVUClass@@XZ @4818
    ?StaticConfigName@UInput@@CAPBGXZ @4819
    ?StaticConfigName@UInputPlanning@@CAPBGXZ @4820
    ?StaticConstructor@UActorChannel@@QAEXXZ @4821
    ?StaticConstructor@UBinaryFileDownload@@QAEXXZ @4822
    ?StaticConstructor@UChannelDownload@@QAEXXZ @4823
    ?StaticConstructor@UClient@@QAEXXZ @4824
    ?StaticConstructor@UControlChannel@@QAEXXZ @4825
    ?StaticConstructor@UDemoRecConnection@@QAEXXZ @4826
    ?StaticConstructor@UDemoRecDriver@@QAEXXZ @4827
    ?StaticConstructor@UDownload@@QAEXXZ @4828
    ?StaticConstructor@UEngine@@QAEXXZ @4829
    ?StaticConstructor@UFileChannel@@QAEXXZ @4830
    ?StaticConstructor@UInput@@QAEXXZ @4831
    ?StaticConstructor@UNetDriver@@QAEXXZ @4832
    ?StaticConstructor@UNullRenderDevice@@QAEXXZ @4833
    ?StaticConstructor@URenderDevice@@QAEXXZ @4834
    ?StaticConstructor@UStaticMesh@@QAEXXZ @4835
    ?StaticExit@FURL@@SAXXZ @4836
    ?StaticInit@FURL@@SAXXZ @4837
    ?StaticInitInput@UInput@@SAXXZ @4838
    ?StaticInitInput@UInputPlanning@@SAXXZ @4839
    ?StaticLight@UTerrainSector@@QAEXH@Z @4840
    ?StopAnimating@UMeshInstance@@UAEHH@Z @4841
    ?StopAnimating@USkeletalMeshInstance@@UAEHH@Z @4842
    ?StopAnimating@UVertMeshInstance@@UAEHH@Z @4843
    ?StopVideo@URenderDevice@@UAEXPAVUCanvas@@@Z @4844
    ?StoreActor@FOctreeNode@@AAEXPAVAActor@@PAVFCollisionOctree@@PBVFPlane@@@Z @4845
    ?String@FURL@@QBE?AVFString@@H@Z @4846
    ?Stripify@FRawIndexBuffer@@UAEHXZ @4847
    ?SuggestJumpVelocity@APawn@@QAE?AVFVector@@V2@MM@Z @4848
    ?SupportsTextureFormat@UNullRenderDevice@@UAEHW4ETextureFormat@@@Z @4849
    ?Swim@APawn@@AAEMVFVector@@AAUFCheckResult@@@Z @4850
    ?TestCanSeeMe@AActor@@QAEHPAVAPlayerController@@@Z @4851
    ?TestReach@FPathBuilder@@AAEHVFVector@@0@Z @4852
    ?TestWalk@FPathBuilder@@AAEHVFVector@@UFCheckResult@@M@Z @4853
    ?Tick@AActor@@UAEHMW4ELevelTick@@@Z @4854
    ?Tick@AController@@UAEHMW4ELevelTick@@@Z @4855
    ?Tick@AEmitter@@UAEHMW4ELevelTick@@@Z @4856
    ?Tick@AFluidSurfaceInfo@@UAEHMW4ELevelTick@@@Z @4857
    ?Tick@APlayerController@@UAEHMW4ELevelTick@@@Z @4858
    ?Tick@ASceneManager@@UAEHMW4ELevelTick@@@Z @4859
    ?Tick@FCollisionHash@@UAEXXZ @4860
    ?Tick@FCollisionOctree@@UAEXXZ @4861
    ?Tick@UActorChannel@@UAEXXZ @4862
    ?Tick@UBinaryFileDownload@@UAEXXZ @4863
    ?Tick@UChannel@@UAEXXZ @4864
    ?Tick@UDownload@@UAEXXZ @4865
    ?Tick@UFileChannel@@UAEXXZ @4866
    ?Tick@UGameEngine@@UAEXM@Z @4867
    ?Tick@ULevel@@UAEXW4ELevelTick@@M@Z @4868
    ?Tick@UNetConnection@@UAEXXZ @4869
    ?Tick@UTexture@@UAEXM@Z @4870
    ?TickAuthoritative@AActor@@UAEXM@Z @4871
    ?TickAuthoritative@ALineOfSightTrigger@@UAEXM@Z @4872
    ?TickDemoPlayback@ULevel@@UAEHM@Z @4873
    ?TickDemoRecord@ULevel@@UAEHM@Z @4874
    ?TickDispatch@UDemoRecDriver@@UAEXM@Z @4875
    ?TickDispatch@UNetDriver@@UAEXM@Z @4876
    ?TickFlush@UNetDriver@@UAEXXZ @4877
    ?TickNetClient@ULevel@@UAEXM@Z @4878
    ?TickNetServer@ULevel@@UAEXM@Z @4879
    ?TickSimulated@AActor@@UAEXM@Z @4880
    ?TickSimulated@APawn@@UAEXM@Z @4881
    ?TickSpecial@AActor@@UAEXM@Z @4882
    ?TickSpecial@APawn@@UAEXM@Z @4883
    ?TickSpecial@AProjector@@UAEXM@Z @4884
    ?TickThisFrame@AActor@@UAEHM@Z @4885
    ?ToFloor@ULevel@@QAEHPAVAActor@@H0@Z @4886
    ?ToLocal@AActor@@UBE?AVFCoords@@XZ @4887
    ?ToLocal@ABrush@@UBE?AVFCoords@@XZ @4888
    ?ToWorld@AActor@@UBE?AVFCoords@@XZ @4889
    ?ToWorld@ABrush@@UBE?AVFCoords@@XZ @4890
    ?Trace@AActor@@QAEPAV1@AAVFVector@@000H0PAPAVUMaterial@@@Z @4891
    ?TraceHeadHit@USkeletalMeshInstance@@QAEHAAUFCheckResult@@ABVFVector@@11ABM@Z @4892
    ?TransferFile@AR6RainbowStartInfo@@QAEXAAVFArchive@@@Z @4893
    ?TransferFile@AR6TeamStartInfo@@QAEXAAVFArchive@@H@Z @4894
    ?TransferFile@UR6AbstractPlanningInfo@@UAEXAAVFArchive@@@Z @4895
    ?Transform@FPoly@@QAEXABVFModelCoords@@ABVFVector@@1M@Z @4896
    ?Transform@UModel@@QAEXPAVABrush@@@Z @4897
    ?TriangleSphereQuery@UStaticMesh@@QAEXPAVAActor@@AAVFSphere@@AAV?$TArray@PAUFStaticMeshCollisionTriangle@@@@@Z @4898
    ?TrueColor@FColor@@QBEKXZ @4899
    ?TryRenderDevice@UViewport@@UAEXPBGHHH@Z @4900
    ?TrySkipFile@UBinaryFileDownload@@UAEHXZ @4901
    ?TrySkipFile@UChannelDownload@@UAEHXZ @4902
    ?TrySkipFile@UDownload@@UAEHXZ @4903
    ?TwoWallAdjust@AActor@@QAEXAAVFVector@@000M@Z @4904
    ?UnClick@UGameEngine@@UAEXPAVUViewport@@KHH@Z @4905
    ?UnCrouch@APawn@@QAEXH@Z @4906
    ?UnInitialize@UR6AbstractGameManager@@UAEXXZ @4907
    ?Unload@?$TLazyArray@E@@UAEXXZ @4908
    ?Unlock@UNullRenderDevice@@UAEXPAVFRenderInterface@@@Z @4909
    ?Unlock@UViewport@@UAEXXZ @4910
    ?Update@ATerrainInfo@@QAEXMHHHHH@Z @4911
    ?Update@UCanvas@@UAEXXZ @4912
    ?Update@UMatSubAction@@UAEHMPAVASceneManager@@@Z @4913
    ?Update@USubActionCameraEffect@@UAEHMPAVASceneManager@@@Z @4914
    ?Update@USubActionCameraShake@@UAEHMPAVASceneManager@@@Z @4915
    ?Update@USubActionFOV@@UAEHMPAVASceneManager@@@Z @4916
    ?Update@USubActionFade@@UAEHMPAVASceneManager@@@Z @4917
    ?Update@USubActionGameSpeed@@UAEHMPAVASceneManager@@@Z @4918
    ?Update@USubActionOrientation@@UAEHMPAVASceneManager@@@Z @4919
    ?Update@USubActionSceneSpeed@@UAEHMPAVASceneManager@@@Z @4920
    ?Update@USubActionTrigger@@UAEHMPAVASceneManager@@@Z @4921
    ?Update@UTexture@@UAEXN@Z @4922
    ?UpdateActorHitList@UBeamEmitter@@UAEXXZ @4923
    ?UpdateAnimation@AActor@@UAEXM@Z @4924
    ?UpdateAnimation@UMeshInstance@@UAEHM@Z @4925
    ?UpdateAnimation@USkeletalMeshInstance@@UAEHM@Z @4926
    ?UpdateAnimation@UVertMeshInstance@@UAEHM@Z @4927
    ?UpdateBlendAlpha@USkeletalMeshInstance@@QAEXHMM@Z @4928
    ?UpdateColBox@AActor@@UAEXAAVFVector@@HHH@Z @4929
    ?UpdateConnectingMessage@UGameEngine@@UAEXXZ @4930
    ?UpdateDecorations@ATerrainInfo@@QAEXH@Z @4931
    ?UpdateFromSelectedVertices@ATerrainInfo@@QAEXXZ @4932
    ?UpdateGamma@UClient@@UAEXXZ @4933
    ?UpdateGamma@UEngine@@UAEXXZ @4934
    ?UpdateGamma@UNullRenderDevice@@UAEXPAVUViewport@@@Z @4935
    ?UpdateGraphicOptions@UClient@@UAEXXZ @4936
    ?UpdateMatrices@FCameraSceneNode@@UAEXXZ @4937
    ?UpdateMovementAnimation@APawn@@UAEXM@Z @4938
    ?UpdateOscillation@AFluidSurfaceOscillator@@QAEXM@Z @4939
    ?UpdateOscillatorList@AFluidSurfaceInfo@@QAEXXZ @4940
    ?UpdateParticleMaterial@AProjector@@UAEXPAVUParticleMaterial@@H@Z @4941
    ?UpdateParticles@UBeamEmitter@@UAEHM@Z @4942
    ?UpdateParticles@UMeshEmitter@@UAEHM@Z @4943
    ?UpdateParticles@UParticleEmitter@@UAEHM@Z @4944
    ?UpdateParticles@USparkEmitter@@UAEHM@Z @4945
    ?UpdateParticles@USpriteEmitter@@UAEHM@Z @4946
    ?UpdateRelativeRotation@AActor@@QAEXXZ @4947
    ?UpdateRenderData@AActor@@QAEXXZ @4948
    ?UpdateSimulation@AFluidSurfaceInfo@@QAEXM@Z @4949
    ?UpdateString@FStats@@QAEXAAVFString@@H@Z @4950
    ?UpdateTerrainArrays@ULevel@@QAEXXZ @4951
    ?UpdateTime@ULevel@@UAEXPAVALevelInfo@@@Z @4952
    ?UpdateTimers@AActor@@UAEXM@Z @4953
    ?UpdateTriangles@ATerrainInfo@@QAEXHHHHH@Z @4954
    ?UpdateVertices@ATerrainInfo@@QAEXMHHHH@Z @4955
    ?UpdateViewerFromPct@ASceneManager@@QAEXM@Z @4956
    ?UpdateWaveData@FWaveModInfo@@QAEHAAV?$TArray@E@@@Z @4957
    ?UseCylinderCollision@UModel@@UAEHPBVAActor@@@Z @4958
    ?UseCylinderCollision@USkeletalMesh@@UAEHPBVAActor@@@Z @4959
    ?UseVirtualSize@UCanvas@@QAEXHMM@Z @4960
    ?ValidAnchor@APawn@@QAEHXZ @4961
    ?ValidNode@FPathBuilder@@AAEHPAVANavigationPoint@@PAVAActor@@@Z @4962
    ?ValidateAnimChannel@USkeletalMeshInstance@@QAEHH@Z @4963
    ?Vector@FRotatorF@@QAE?AVFVector@@XZ @4964
    ?VerifyIntPoints@ASceneManager@@QAEHXZ @4965
    ?WasSkeletonUpdated@USkeletalMeshInstance@@QAEHXZ @4966
    ?WelcomePlayer@ULevel@@UAEXPAVUNetConnection@@PAG@Z @4967
    ?WorldLightRadius@AActor@@UBEMXZ @4968
    ?WorldToHeightmap@ATerrainInfo@@QAE?AVFVector@@V2@@Z @4969
    ?WorldToLocal@AActor@@UBE?AVFMatrix@@XZ @4970
    ?WrappedDrawString@UCanvas@@UAEXW4ERenderStyle@@AAH1PAVUFont@@HPBG@Z @4971
    ?WrappedPrint@UCanvas@@AAAXW4ERenderStyle@@AAH1PAVUFont@@HPBG@Z @4972
    ?WrappedPrintf@UCanvas@@UAAXPAVUFont@@HPBGZZ @4973
    ?WrappedStrLenf@UCanvas@@UAAXPAVUFont@@AAH1PBGZZ @4974
    ?ZeroMovementAlpha@APawn@@QAEXHHM@Z @4975
    ?_DrawString@UCanvas@@UAEHPAVUFont@@HHPBGVFPlane@@HHH@Z @4976
    ?_Screen@UViewport@@QAEPAEHH@Z @4977
    ?__Client@UTexture@@2PAVUClient@@A @4978
    ?__FUNC_NAME__@?2???0FDirectionalLightMapSceneNode@@QAE@PAVUViewport@@PAVAActor@@AAVFBspSurf@@PAVFLightMap@@@Z@4QBGB @4979
    ?__FUNC_NAME__@?2???0FPointLightMapSceneNode@@QAE@PAVUViewport@@PAVAActor@@AAVFBspSurf@@PAVFLightMap@@HHHH@Z@4QBGB @4980
    ?__FUNC_NAME__@?2???1?$TLazyArray@E@@QAE@XZ@4QBGB @4981
    ?__FUNC_NAME__@?2??BuildCoords@ABrush@@QAEMPAVFModelCoords@@0@Z@4QBGB @4982
    ?__FUNC_NAME__@?2??Clear@FMipmap@@QAEXXZ@4QBGB @4983
    ?__FUNC_NAME__@?2??CopyPosRotScaleFrom@ABrush@@UAEXPAV2@@Z@4QBGB @4984
    ?__FUNC_NAME__@?2??GetActorIndex@ULevel@@QAEHPAVAActor@@@Z@4QBGB @4985
    ?__FUNC_NAME__@?2??GetLayerAlpha@ATerrainInfo@@QAEEHHHPAVUTexture@@@Z@4QBGB @4986
    ?__FUNC_NAME__@?2??Init@FTags@@QAEXXZ@4QBGB @4987
    ?__FUNC_NAME__@?2??IsTriangleAll@UTerrainSector@@QAEHHHHHHE@Z@4QBGB @4988
    ?__FUNC_NAME__@?2??Load@?$TLazyArray@E@@UAEXXZ@4QBGB @4989
    ?__FUNC_NAME__@?2??OldBuildCoords@ABrush@@QAEMPAVFModelCoords@@0@Z@4QBGB @4990
    ?__FUNC_NAME__@?2??PostLoad@ULevelSummary@@UAEXXZ@4QBGB @4991
    ?__FUNC_NAME__@?2??Serialize@UKMeshProps@@UAEXAAVFArchive@@@Z@4QBGB @4992
    ?__FUNC_NAME__@?2??Serialize@UPolys@@UAEXAAVFArchive@@@Z@4QBGB @4993
    ?__FUNC_NAME__@?2??Serialize@UVertexBuffer@@UAEXAAVFArchive@@@Z@4QBGB @4994
    ?__FUNC_NAME__@?2??Serialize@UVertexStreamCOLOR@@UAEXAAVFArchive@@@Z@4QBGB @4995
    ?__FUNC_NAME__@?2??Serialize@UVertexStreamPosNormTex@@UAEXAAVFArchive@@@Z@4QBGB @4996
    ?__FUNC_NAME__@?2??Serialize@UVertexStreamUV@@UAEXAAVFArchive@@@Z@4QBGB @4997
    ?__FUNC_NAME__@?2??Serialize@UVertexStreamVECTOR@@UAEXAAVFArchive@@@Z@4QBGB @4998
    ?__FUNC_NAME__@?2??StaticConstructor@UActorChannel@@QAEXXZ@4QBGB @4999
    ?__FUNC_NAME__@?2??StaticConstructor@UControlChannel@@QAEXXZ@4QBGB @5000
    ?__FUNC_NAME__@?2??StaticConstructor@UFileChannel@@QAEXXZ@4QBGB @5001
    ?__FUNC_NAME__@?2??TwoWallAdjust@AActor@@QAEXAAVFVector@@000M@Z@4QBGB @5002
    ?__FUNC_NAME__@?2??Unload@?$TLazyArray@E@@UAEXXZ@4QBGB @5003
    ?__FUNC_NAME__@?DD@??physKarmaRagDoll_internal@AActor@@QAEXM@Z@4QBGB @5004
    ?__FUNC_NAME__@?DK@??physKarmaRagDoll_internal@AActor@@QAEXM@Z@4QBGB @5005
    ?__FUNC_NAME__@?FG@??physKarmaRagDoll_internal@AActor@@QAEXM@Z@4QBGB @5006
    ?actorReachable@APawn@@QAEHPAVAActor@@HH@Z @5007
    ?addPath@FSortedPathList@@QAEXPAVANavigationPoint@@H@Z @5008
    ?addReachSpecs@AJumpPad@@UAEXPAVAPawn@@H@Z @5009
    ?addReachSpecs@ALadder@@UAEXPAVAPawn@@H@Z @5010
    ?addReachSpecs@ALiftCenter@@UAEXPAVAPawn@@H@Z @5011
    ?addReachSpecs@ANavigationPoint@@UAEXPAVAPawn@@H@Z @5012
    ?addReachSpecs@APlayerStart@@UAEXPAVAPawn@@H@Z @5013
    ?addReachSpecs@ATeleporter@@UAEXPAVAPawn@@H@Z @5014
    ?addReachSpecs@AWarpZoneMarker@@UAEXPAVAPawn@@H@Z @5015
    ?breadthPathTo@APawn@@QAEPAVANavigationPoint@@P6AMPAV2@PAV1@M@Z0HPAM@Z @5016
    ?buildPaths@FPathBuilder@@QAEHPAVULevel@@@Z @5017
    ?calcMoveFlags@APawn@@QAEHXZ @5018
    ?calcVelocity@APawn@@UAEXVFVector@@MMMHHH@Z @5019
    ?checkFloor@APawn@@AAEHVFVector@@AAUFCheckResult@@@Z @5020
    ?clearPath@APawn@@QAEXPAVANavigationPoint@@@Z @5021
    ?clearPaths@APawn@@QAEXXZ @5022
    ?createPaths@FPathBuilder@@AAEHXZ @5023
    ?defineChangedPaths@FPathBuilder@@QAEXPAVULevel@@@Z @5024
    ?defineFor@UReachSpec@@QAEHPAVANavigationPoint@@0PAVAPawn@@@Z @5025
    ?definePaths@FPathBuilder@@QAEXPAVULevel@@@Z @5026
    ?edDrawAxisIndicator@UEngine@@UAEXPAVFSceneNode@@@Z @5027
    ?edSetClickLocation@UEngine@@UAEXAAVFVector@@@Z @5028
    ?edcamMode@UEngine@@UAEHPAVUViewport@@@Z @5029
    ?edcamMouseControl@UEngine@@UAEHPAVUViewport@@@Z @5030
    ?edcamTerrainBrush@UEngine@@UAEHXZ @5031
    ?eventAIHearSound@AController@@QAEXPAVAActor@@HPAVUSound@@VFVector@@2K@Z @5032
    ?eventAccept@ANavigationPoint@@QAEKPAVAActor@@0@Z @5033
    ?eventAcceptInventory@AGameInfo@@QAEXPAVAPawn@@@Z @5034
    ?eventActionStart@UMatAction@@QAEXPAVAActor@@@Z @5035
    ?eventActorEntered@AZoneInfo@@QAEXPAVAActor@@@Z @5036
    ?eventActorEnteredVolume@APhysicsVolume@@QAEXPAVAActor@@@Z @5037
    ?eventActorLeaving@AZoneInfo@@QAEXPAVAActor@@@Z @5038
    ?eventActorLeavingVolume@APhysicsVolume@@QAEXPAVAActor@@@Z @5039
    ?eventAddCameraEffect@APlayerController@@QAEXPAVUCameraEffect@@K@Z @5040
    ?eventAddInteraction@UInteractionMaster@@QAEPAVUInteraction@@ABVFString@@PAVUPlayer@@@Z @5041
    ?eventAnimEnd@AActor@@QAEXH@Z @5042
    ?eventAttach@AActor@@QAEXPAV1@@Z @5043
    ?eventBaseChange@AActor@@QAEXXZ @5044
    ?eventBeginEvent@AActor@@QAEXXZ @5045
    ?eventBeginPlay@AActor@@QAEXXZ @5046
    ?eventBreathTimer@APawn@@QAEXXZ @5047
    ?eventBroadcast@AGameInfo@@QAEXPAVAActor@@ABVFString@@VFName@@@Z @5048
    ?eventBroadcastLocalized@AGameInfo@@QAEXPAVAActor@@PAVUClass@@HPAVAPlayerReplicationInfo@@2PAVUObject@@@Z @5049
    ?eventBroadcastLocalizedMessage@AActor@@QAEXPAVUClass@@HPAVAPlayerReplicationInfo@@1PAVUObject@@@Z @5050
    ?eventBump@AActor@@QAEXPAV1@@Z @5051
    ?eventCanPlayIntroVideo@AGameInfo@@QAEKXZ @5052
    ?eventCanPlayOutroVideo@AGameInfo@@QAEKXZ @5053
    ?eventChangeAnimation@APawn@@QAEXXZ @5054
    ?eventClientHearSound@APlayerController@@QAEXPAVAActor@@PAVUSound@@E@Z @5055
    ?eventClientMessage@APawn@@QAEXABVFString@@VFName@@@Z @5056
    ?eventClientMessage@APlayerController@@QAEXABVFString@@VFName@@@Z @5057
    ?eventClientPBKickedOutMessage@APlayerController@@QAEXABVFString@@@Z @5058
    ?eventClientSetNewViewTarget@APlayerController@@QAEXXZ @5059
    ?eventClientTravel@APlayerController@@QAEXABVFString@@EK@Z @5060
    ?eventConnectionFailed@UInteraction@@QAEXXZ @5061
    ?eventConvertKeyToLocalisation@UInteraction@@QAE?AVFString@@EABV2@@Z @5062
    ?eventDemoPlaySound@AActor@@QAEXPAVUSound@@EMKMMK@Z @5063
    ?eventDeployWeaponBipod@AR6EngineWeapon@@QAEXK@Z @5064
    ?eventDestroyed@AActor@@QAEXXZ @5065
    ?eventDetach@AActor@@QAEXPAV1@@Z @5066
    ?eventDetailChange@AGameInfo@@QAEXXZ @5067
    ?eventEncroachedBy@AActor@@QAEXPAV1@@Z @5068
    ?eventEncroachingOn@AActor@@QAEKPAV1@@Z @5069
    ?eventEndClimbLadder@APawn@@QAEXPAVALadderVolume@@@Z @5070
    ?eventEndCrouch@APawn@@QAEXM@Z @5071
    ?eventEndEvent@AActor@@QAEXXZ @5072
    ?eventEndedRotation@AActor@@QAEXXZ @5073
    ?eventEnemyNotVisible@AController@@QAEXXZ @5074
    ?eventEyePosition@APawn@@QAE?AVFVector@@XZ @5075
    ?eventFalling@AActor@@QAEXXZ @5076
    ?eventFellOutOfWorld@AActor@@QAEXXZ @5077
    ?eventFinishedInterpolation@AActor@@QAEXXZ @5078
    ?eventForceGenerate@AWarpZoneInfo@@QAEXXZ @5079
    ?eventGMProcessMsg@UR6AbstractGameManager@@QAEXABVFString@@@Z @5080
    ?eventGainedChild@AActor@@QAEXPAV1@@Z @5081
    ?eventGameEnding@AGameInfo@@QAEXXZ @5082
    ?eventGameTypeUseNbOfTerroristToSpawn@ALevelInfo@@QAEKABVFString@@@Z @5083
    ?eventGenerate@AWarpZoneInfo@@QAEXXZ @5084
    ?eventGetBackgroundsRoot@UR6ModMgr@@QAE?AVFString@@XZ @5085
    ?eventGetBeaconText@AGameInfo@@QAE?AVFString@@XZ @5086
    ?eventGetCampaignDir@UR6ModMgr@@QAE?AVFString@@XZ @5087
    ?eventGetDefaultCampaignDir@UR6ModMgr@@QAE?AVFString@@XZ @5088
    ?eventGetGameTypeIndex@UR6ModMgr@@QAEHABVFString@@@Z @5089
    ?eventGetGameTypeName@UR6ModMgr@@QAE?AVFString@@H@Z @5090
    ?eventGetIniFilesDir@UR6ModMgr@@QAE?AVFString@@XZ @5091
    ?eventGetLocalLogFileName@AStatLog@@QAE?AVFString@@XZ @5092
    ?eventGetLocalPlayerIp@APlayerController@@QAE?AVFString@@XZ @5093
    ?eventGetMapsDir@UR6ModMgr@@QAE?AVFString@@XZ @5094
    ?eventGetModKeyword@UR6ModMgr@@QAE?AVFString@@XZ @5095
    ?eventGetModName@UR6ModMgr@@QAE?AVFString@@XZ @5096
    ?eventGetNbMods@UR6ModMgr@@QAEHXZ @5097
    ?eventGetReticuleInfo@AActor@@QAEKPAVAPawn@@AAVFString@@@Z @5098
    ?eventGetServerIni@UR6ModMgr@@QAE?AVFString@@XZ @5099
    ?eventGetSkins@UR6MissionDescription@@QAEKAAPAVALevelInfo@@ABVFString@@@Z @5100
    ?eventGetStoreGamePwd@UInteraction@@QAE?AVFString@@XZ @5101
    ?eventGetVideosRoot@UR6ModMgr@@QAE?AVFString@@XZ @5102
    ?eventGetViewRotation@APawn@@QAE?AVFRotator@@XZ @5103
    ?eventHandleServerMsg@APlayerController@@QAEXABVFString@@H@Z @5104
    ?eventHeadVolumeChange@APawn@@QAEXPAVAPhysicsVolume@@@Z @5105
    ?eventHearNoise@AController@@QAEXMPAVAActor@@EE@Z @5106
    ?eventHitWall@AActor@@QAEXVFVector@@PAV1@@Z @5107
    ?eventInit@UR6MissionDescription@@QAEKPAVALevelInfo@@ABVFString@@@Z @5108
    ?eventInitGame@AGameInfo@@QAEXABVFString@@AAV2@@Z @5109
    ?eventInitInputSystem@APlayerController@@QAEXXZ @5110
    ?eventInitModMgr@UR6ModMgr@@QAEXXZ @5111
    ?eventInitMultiPlayerOptions@APlayerController@@QAEXXZ @5112
    ?eventInitialize@UMatAction@@QAEXXZ @5113
    ?eventInitialize@UMatSubAction@@QAEXXZ @5114
    ?eventInitialized@UInteraction@@QAEXXZ @5115
    ?eventIsGameTypePlayWithNonRainbowNPCs@ALevelInfo@@QAEKABVFString@@@Z @5116
    ?eventIsGoggles@AR6EngineWeapon@@QAEKXZ @5117
    ?eventIsMissionPack@UR6ModMgr@@QAEKXZ @5118
    ?eventIsPlayerPassiveSpectator@APlayerController@@QAEKXZ @5119
    ?eventIsRavenShield@UR6ModMgr@@QAEKXZ @5120
    ?eventKApplyForce@AActor@@QAEXAAVFVector@@0@Z @5121
    ?eventKForceExceed@AKConstraint@@QAEXM@Z @5122
    ?eventKImpact@AActor@@QAEXPAV1@VFVector@@11@Z @5123
    ?eventKSkelConvulse@AActor@@QAEXXZ @5124
    ?eventKVelDropBelow@AActor@@QAEXXZ @5125
    ?eventKeyFrameReached@AMover@@QAEXXZ @5126
    ?eventKilledBy@AActor@@QAEXPAVAPawn@@@Z @5127
    ?eventLanded@AActor@@QAEXVFVector@@@Z @5128
    ?eventLaunchR6MainMenu@UInteraction@@QAEXXZ @5129
    ?eventLightUpdateDirect@AProjector@@QAEXVFVector@@ME@Z @5130
    ?eventLogGameSpecial2@AStatLog@@QAEXABVFString@@00@Z @5131
    ?eventLogGameSpecial@AStatLog@@QAEXABVFString@@0@Z @5132
    ?eventLogThis@UCheatManager@@QAEXKPAVAActor@@@Z @5133
    ?eventLogin@AGameInfo@@QAEPAVAPlayerController@@ABVFString@@0AAV3@@Z @5134
    ?eventLongFall@AController@@QAEXXZ @5135
    ?eventLostChild@AActor@@QAEXPAV1@@Z @5136
    ?eventMayFall@AController@@QAEXXZ @5137
    ?eventMenuLoadProfile@UInteraction@@QAEXK@Z @5138
    ?eventMonitoredPawnAlert@AController@@QAEXXZ @5139
    ?eventNewServerState@AGameReplicationInfo@@QAEXXZ @5140
    ?eventNotify@UAnimNotify_Scripted@@QAEXPAVAActor@@@Z @5141
    ?eventNotifyAfterLevelChange@UInteraction@@QAEXXZ @5142
    ?eventNotifyBump@AController@@QAEKPAVAActor@@@Z @5143
    ?eventNotifyHeadVolumeChange@AController@@QAEKPAVAPhysicsVolume@@@Z @5144
    ?eventNotifyHitMover@AController@@QAEXVFVector@@PAVAMover@@@Z @5145
    ?eventNotifyHitWall@AController@@QAEKVFVector@@PAVAActor@@@Z @5146
    ?eventNotifyLanded@AController@@QAEKVFVector@@@Z @5147
    ?eventNotifyLevelChange@UInteraction@@QAEXXZ @5148
    ?eventNotifyPhysicsVolumeChange@AController@@QAEKPAVAPhysicsVolume@@@Z @5149
    ?eventPawnEnteredVolume@APhysicsVolume@@QAEXPAVAPawn@@@Z @5150
    ?eventPawnIsMoving@AR6EngineWeapon@@QAEXXZ @5151
    ?eventPawnLeavingVolume@APhysicsVolume@@QAEXPAVAPawn@@@Z @5152
    ?eventPawnStoppedMoving@AR6EngineWeapon@@QAEXXZ @5153
    ?eventPhysicsChangedFor@APhysicsVolume@@QAEXPAVAActor@@@Z @5154
    ?eventPhysicsVolumeChange@AActor@@QAEXPAVAPhysicsVolume@@@Z @5155
    ?eventPlayDying@APawn@@QAEXVFVector@@@Z @5156
    ?eventPlayFalling@APawn@@QAEXXZ @5157
    ?eventPlayJump@APawn@@QAEXXZ @5158
    ?eventPlayLandingAnimation@APawn@@QAEXM@Z @5159
    ?eventPlayWeaponAnimation@APawn@@QAEXXZ @5160
    ?eventPlayerCalcView@APlayerController@@QAEXAAPAVAActor@@AAVFVector@@AAVFRotator@@@Z @5161
    ?eventPlayerInput@UPlayerInput@@QAEXM@Z @5162
    ?eventPlayerSeesMe@ALineOfSightTrigger@@QAEXPAVAPlayerController@@@Z @5163
    ?eventPlayerTick@APlayerController@@QAEXM@Z @5164
    ?eventPostBeginPlay@AActor@@QAEXXZ @5165
    ?eventPostFadeRender@AHUD@@QAEXPAVUCanvas@@@Z @5166
    ?eventPostLogin@AGameInfo@@QAEXPAVAPlayerController@@@Z @5167
    ?eventPostNetBeginPlay@AActor@@QAEXXZ @5168
    ?eventPostRender@AHUD@@QAEXPAVUCanvas@@@Z @5169
    ?eventPostTeleport@AActor@@QAEXPAVATeleporter@@@Z @5170
    ?eventPostTouch@AActor@@QAEXPAV1@@Z @5171
    ?eventPreBeginPlay@AActor@@QAEXXZ @5172
    ?eventPreClientTravel@APlayerController@@QAEXXZ @5173
    ?eventPreLogOut@AGameInfo@@QAEXPAVAPlayerController@@@Z @5174
    ?eventPreLogin@AGameInfo@@QAEXABVFString@@0AAV2@1@Z @5175
    ?eventPreTeleport@AActor@@QAEKPAVATeleporter@@@Z @5176
    ?eventPrepareForMove@AController@@QAEXPAVANavigationPoint@@PAVUReachSpec@@@Z @5177
    ?eventProcessHeart@AActor@@QAEKMAAM0@Z @5178
    ?eventProcess_KeyEvent@UInteractionMaster@@QAEKV?$TArray@PAVUInteraction@@@@AAE1M@Z @5179
    ?eventProcess_KeyType@UInteractionMaster@@QAEKV?$TArray@PAVUInteraction@@@@AAE@Z @5180
    ?eventProcess_Message@UInteractionMaster@@QAEXABVFString@@MV?$TArray@PAVUInteraction@@@@@Z @5181
    ?eventProcess_PostRender@UInteractionMaster@@QAEXV?$TArray@PAVUInteraction@@@@PAVUCanvas@@@Z @5182
    ?eventProcess_PreRender@UInteractionMaster@@QAEXV?$TArray@PAVUInteraction@@@@PAVUCanvas@@@Z @5183
    ?eventProcess_Tick@UInteractionMaster@@QAEXV?$TArray@PAVUInteraction@@@@M@Z @5184
    ?eventR6ConnectionFailed@UInteraction@@QAEXABVFString@@@Z @5185
    ?eventR6ConnectionInProgress@UInteraction@@QAEXXZ @5186
    ?eventR6ConnectionInterrupted@UInteraction@@QAEXXZ @5187
    ?eventR6ConnectionSuccess@UInteraction@@QAEXXZ @5188
    ?eventR6DeadEndedMoving@APawn@@QAEXXZ @5189
    ?eventR6MakeNoise@AActor@@QAEXE@Z @5190
    ?eventR6ProgressMsg@UInteraction@@QAEXABVFString@@0M@Z @5191
    ?eventR6QueryCircumstantialAction@AActor@@QAEXMAAPAVAR6AbstractCircumstantialActionQuery@@PAVAPlayerController@@@Z @5192
    ?eventReceiveLocalizedMessage@APlayerController@@QAEXPAVUClass@@HPAVAPlayerReplicationInfo@@1PAVUObject@@@Z @5193
    ?eventReceivedEngineWeapon@APawn@@QAEXXZ @5194
    ?eventReceivedWeapons@APawn@@QAEXXZ @5195
    ?eventRemoveCameraEffect@APlayerController@@QAEXPAVUCameraEffect@@@Z @5196
    ?eventRemoveInteraction@UInteractionMaster@@QAEXPAVUInteraction@@@Z @5197
    ?eventRenderFirstPersonGun@AHUD@@QAEXPAVUCanvas@@@Z @5198
    ?eventReset@UCanvas@@QAEXXZ @5199
    ?eventReset@UR6MissionDescription@@QAEXXZ @5200
    ?eventRestartServer@UR6ServerInfo@@QAEXXZ @5201
    ?eventRunAll@AR6eviLTesting@@QAEXXZ @5202
    ?eventSaveAndResetData@AActor@@QAEXXZ @5203
    ?eventSaveRemoteServerSettings@AGameReplicationInfo@@QAEXABVFString@@@Z @5204
    ?eventSceneEnded@ASceneManager@@QAEXXZ @5205
    ?eventSceneStarted@ASceneManager@@QAEXXZ @5206
    ?eventSeeMonster@AController@@QAEXPAVAPawn@@@Z @5207
    ?eventSeePlayer@AController@@QAEXPAVAPawn@@@Z @5208
    ?eventServerDisconnected@UInteraction@@QAEXXZ @5209
    ?eventServerTravel@ALevelInfo@@QAEXABVFString@@K@Z @5210
    ?eventSetAnimAction@APawn@@QAEXVFName@@@Z @5211
    ?eventSetCurrentMod@UR6ModMgr@@QAEXABVFString@@PAVALevelInfo@@KPAVUConsole@@PAVULevel@@@Z @5212
    ?eventSetFocusTo@UInteractionMaster@@QAEXPAVUInteraction@@PAVUPlayer@@@Z @5213
    ?eventSetIdentifyTarget@AR6EngineWeapon@@QAEXKKABVFString@@@Z @5214
    ?eventSetInitialState@AActor@@QAEXXZ @5215
    ?eventSetMatchResult@APlayerController@@QAEXABVFString@@HH@Z @5216
    ?eventSetProgressTime@APlayerController@@QAEXM@Z @5217
    ?eventSetWalking@APawn@@QAEXK@Z @5218
    ?eventShowUpgradeMenu@AHUD@@QAEXXZ @5219
    ?eventShowWeaponParticules@AR6EngineWeapon@@QAEXE@Z @5220
    ?eventSpecialCost@ANavigationPoint@@QAEHPAVAPawn@@PAVUReachSpec@@@Z @5221
    ?eventSpecialHandling@AActor@@QAEPAV1@PAVAPawn@@@Z @5222
    ?eventStartCrouch@APawn@@QAEXM@Z @5223
    ?eventStopAnimForRG@APawn@@QAEXXZ @5224
    ?eventStopPlayFiring@APawn@@QAEXXZ @5225
    ?eventSuggestMovePreparation@ANavigationPoint@@QAEKPAVAPawn@@@Z @5226
    ?eventTeamMessage@APlayerController@@QAEXPAVAPlayerReplicationInfo@@ABVFString@@VFName@@@Z @5227
    ?eventTick@AActor@@QAEXM@Z @5228
    ?eventTimer@AActor@@QAEXXZ @5229
    ?eventToggleRadar@APlayerController@@QAEXK@Z @5230
    ?eventTornOff@AActor@@QAEXXZ @5231
    ?eventTouch@AActor@@QAEXPAV1@@Z @5232
    ?eventTravelPostAccept@AActor@@QAEXXZ @5233
    ?eventTravelPreAccept@AActor@@QAEXXZ @5234
    ?eventTrigger@AActor@@QAEXPAV1@PAVAPawn@@@Z @5235
    ?eventTriggerEvent@AActor@@QAEXVFName@@PAV1@PAVAPawn@@@Z @5236
    ?eventUnTouch@AActor@@QAEXPAV1@@Z @5237
    ?eventUnTrigger@AActor@@QAEXPAV1@PAVAPawn@@@Z @5238
    ?eventUpdateServer@AGameInfo@@QAEXXZ @5239
    ?eventUpdateShadow@AProjector@@QAEXXZ @5240
    ?eventUpdateWeaponAttachment@AR6EngineWeapon@@QAEXXZ @5241
    ?eventUsedBy@AActor@@QAEXPAVAPawn@@@Z @5242
    ?eventUserDisconnected@UInteraction@@QAEXXZ @5243
    ?eventWorldSpaceOverlays@AHUD@@QAEXXZ @5244
    ?eventZoneChange@AActor@@QAEXPAVAZoneInfo@@@Z @5245
    ?eviLTestATS@AR6eviLTesting@@QAEXXZ @5246
    ?evilTestUpdateSystem@AR6eviLTesting@@QAEXXZ @5247
    ?execAbandonProjector@AProjector@@QAEXAAUFFrame@@QAX@Z @5248
    ?execAbortScoreSubmission@AGameInfo@@QAEXAAUFFrame@@QAX@Z @5249
    ?execActivateGroup@AR6DecalGroup@@QAEXAAUFFrame@@QAX@Z @5250
    ?execAddAndFindBankInSound@AActor@@QAEXAAUFFrame@@QAX@Z @5251
    ?execAddController@AController@@QAEXAAUFFrame@@QAX@Z @5252
    ?execAddDecal@AR6DecalGroup@@QAEXAAUFFrame@@QAX@Z @5253
    ?execAddDecal@AR6DecalManager@@QAEXAAUFFrame@@QAX@Z @5254
    ?execAddEncodedWritableMapStrip@ALevelInfo@@QAEXAAUFFrame@@QAX@Z @5255
    ?execAddMessageToConsole@AActor@@QAEXAAUFFrame@@QAX@Z @5256
    ?execAddNewModExtraPath@UR6ModMgr@@QAEXAAUFFrame@@QAX@Z @5257
    ?execAddSoundBank@AActor@@QAEXAAUFFrame@@QAX@Z @5258
    ?execAddWritableMapIcon@ALevelInfo@@QAEXAAUFFrame@@QAX@Z @5259
    ?execAddWritableMapPoint@ALevelInfo@@QAEXAAUFFrame@@QAX@Z @5260
    ?execAdd_ColorColor@AActor@@QAEXAAUFFrame@@QAX@Z @5261
    ?execAllActors@AActor@@QAEXAAUFFrame@@QAX@Z @5262
    ?execAnimBlendParams@AActor@@QAEXAAUFFrame@@QAX@Z @5263
    ?execAnimBlendToAlpha@AActor@@QAEXAAUFFrame@@QAX@Z @5264
    ?execAnimIsInGroup@AActor@@QAEXAAUFFrame@@QAX@Z @5265
    ?execAttachActor@AProjector@@QAEXAAUFFrame@@QAX@Z @5266
    ?execAttachProjector@AProjector@@QAEXAAUFFrame@@QAX@Z @5267
    ?execAttachToBone@AActor@@QAEXAAUFFrame@@QAX@Z @5268
    ?execAutonomousPhysics@AActor@@QAEXAAUFFrame@@QAX@Z @5269
    ?execBasedActors@AActor@@QAEXAAUFFrame@@QAX@Z @5270
    ?execBatchLocal@AStatLog@@QAEXAAUFFrame@@QAX@Z @5271
    ?execBrowseRelativeLocalURL@AStatLog@@QAEXAAUFFrame@@QAX@Z @5272
    ?execCallLogThisActor@ALevelInfo@@QAEXAAUFFrame@@QAX@Z @5273
    ?execCallSndEngineInit@UR6ModMgr@@QAEXAAUFFrame@@QAX@Z @5274
    ?execCanSee@AController@@QAEXAAUFFrame@@QAX@Z @5275
    ?execChangeInputSet@APlayerController@@QAEXAAUFFrame@@QAX@Z @5276
    ?execChangeVolumeType@AActor@@QAEXAAUFFrame@@QAX@Z @5277
    ?execChangeVolumeTypeLinear@APlayerController@@QAEXAAUFFrame@@QAX@Z @5278
    ?execChildActors@AActor@@QAEXAAUFFrame@@QAX@Z @5279
    ?execClearChannel@AActor@@QAEXAAUFFrame@@QAX@Z @5280
    ?execClearPaths@AController@@QAEXAAUFFrame@@QAX@Z @5281
    ?execClientHearSound@APlayerController@@QAEXAAUFFrame@@QAX@Z @5282
    ?execClientLeaveServer@UR6AbstractGameManager@@QAEXAAUFFrame@@QAX@Z @5283
    ?execClientTravel@APlayerController@@QAEXAAUFFrame@@QAX@Z @5284
    ?execClipTextNative@UCanvas@@QAEXAAUFFrame@@QAX@Z @5285
    ?execCloseLog@AStatLogFile@@QAEXAAUFFrame@@QAX@Z @5286
    ?execCollidingActors@AActor@@QAEXAAUFFrame@@QAX@Z @5287
    ?execConnectionInterrupted@UR6AbstractGameManager@@QAEXAAUFFrame@@QAX@Z @5288
    ?execConsoleCommand@AActor@@QAEXAAUFFrame@@QAX@Z @5289
    ?execConsoleCommand@APlayerController@@QAEXAAUFFrame@@QAX@Z @5290
    ?execConsoleCommand@UInteraction@@QAEXAAUFFrame@@QAX@Z @5291
    ?execConvertGameTypeIntToString@AActor@@QAEXAAUFFrame@@QAX@Z @5292
    ?execConvertGameTypeToInt@AActor@@QAEXAAUFFrame@@QAX@Z @5293
    ?execConvertIntTimeToString@AActor@@QAEXAAUFFrame@@QAX@Z @5294
    ?execCopyToClipboard@APlayerController@@QAEXAAUFFrame@@QAX@Z @5295
    ?execDbgAddLine@AActor@@QAEXAAUFFrame@@QAX@Z @5296
    ?execDbgVectorAdd@AActor@@QAEXAAUFFrame@@QAX@Z @5297
    ?execDbgVectorReset@AActor@@QAEXAAUFFrame@@QAX@Z @5298
    ?execDeActivateGroup@AR6DecalGroup@@QAEXAAUFFrame@@QAX@Z @5299
    ?execDeleteFile@UR6FileManager@@QAEXAAUFFrame@@QAX@Z @5300
    ?execDemoPlaySound@AActor@@QAEXAAUFFrame@@QAX@Z @5301
    ?execDestroy@AActor@@QAEXAAUFFrame@@QAX@Z @5302
    ?execDetachActor@AProjector@@QAEXAAUFFrame@@QAX@Z @5303
    ?execDetachFromBone@AActor@@QAEXAAUFFrame@@QAX@Z @5304
    ?execDetachProjector@AProjector@@QAEXAAUFFrame@@QAX@Z @5305
    ?execDraw3DLine@AHUD@@QAEXAAUFFrame@@QAX@Z @5306
    ?execDraw3DLine@UCanvas@@QAEXAAUFFrame@@QAX@Z @5307
    ?execDrawActor@UCanvas@@QAEXAAUFFrame@@QAX@Z @5308
    ?execDrawDashedLine@AActor@@QAEXAAUFFrame@@QAX@Z @5309
    ?execDrawPortal@UCanvas@@QAEXAAUFFrame@@QAX@Z @5310
    ?execDrawStretchedTextureSegmentNative@UCanvas@@QAEXAAUFFrame@@QAX@Z @5311
    ?execDrawText3D@AActor@@QAEXAAUFFrame@@QAX@Z @5312
    ?execDrawText@UCanvas@@QAEXAAUFFrame@@QAX@Z @5313
    ?execDrawTextClipped@UCanvas@@QAEXAAUFFrame@@QAX@Z @5314
    ?execDrawTile@UCanvas@@QAEXAAUFFrame@@QAX@Z @5315
    ?execDrawTileClipped@UCanvas@@QAEXAAUFFrame@@QAX@Z @5316
    ?execDrawWritableMap@UCanvas@@QAEXAAUFFrame@@QAX@Z @5317
    ?execDynamicActors@AActor@@QAEXAAUFFrame@@QAX@Z @5318
    ?execEAdjustJump@AController@@QAEXAAUFFrame@@QAX@Z @5319
    ?execEnableChannelNotify@AActor@@QAEXAAUFFrame@@QAX@Z @5320
    ?execEnableCollision@AR6ColBox@@QAEXAAUFFrame@@QAX@Z @5321
    ?execEnableLoadingScreen@AActor@@QAEXAAUFFrame@@QAX@Z @5322
    ?execEncompasses@AVolume@@QAEXAAUFFrame@@QAX@Z @5323
    ?execEndClimbLadder@AController@@QAEXAAUFFrame@@QAX@Z @5324
    ?execError@AActor@@QAEXAAUFFrame@@QAX@Z @5325
    ?execExecuteLocalLogBatcher@AStatLog@@QAEXAAUFFrame@@QAX@Z @5326
    ?execExecuteSilentLogBatcher@AStatLog@@QAEXAAUFFrame@@QAX@Z @5327
    ?execExecuteWorldLogBatcher@AStatLog@@QAEXAAUFFrame@@QAX@Z @5328
    ?execFadeSound@AActor@@QAEXAAUFFrame@@QAX@Z @5329
    ?execFastTrace@AActor@@QAEXAAUFFrame@@QAX@Z @5330
    ?execFileFlush@AStatLogFile@@QAEXAAUFFrame@@QAX@Z @5331
    ?execFileLog@AStatLogFile@@QAEXAAUFFrame@@QAX@Z @5332
    ?execFinalizeLoading@ALevelInfo@@QAEXAAUFFrame@@QAX@Z @5333
    ?execFindBestInventoryPath@AController@@QAEXAAUFFrame@@QAX@Z @5334
    ?execFindFile@UR6FileManager@@QAEXAAUFFrame@@QAX@Z @5335
    ?execFindPathTo@AController@@QAEXAAUFFrame@@QAX@Z @5336
    ?execFindPathToward@AController@@QAEXAAUFFrame@@QAX@Z @5337
    ?execFindPathTowardNearest@AController@@QAEXAAUFFrame@@QAX@Z @5338
    ?execFindRandomDest@AController@@QAEXAAUFFrame@@QAX@Z @5339
    ?execFindSpot@AActor@@QAEXAAUFFrame@@QAX@Z @5340
    ?execFindStairRotation@APlayerController@@QAEXAAUFFrame@@QAX@Z @5341
    ?execFinishAnim@AActor@@QAEXAAUFFrame@@QAX@Z @5342
    ?execFinishInterpolation@AActor@@QAEXAAUFFrame@@QAX@Z @5343
    ?execFinishRotation@AController@@QAEXAAUFFrame@@QAX@Z @5344
    ?execFreezeAnimAt@AActor@@QAEXAAUFFrame@@QAX@Z @5345
    ?execGarbageCollect@AActor@@QAEXAAUFFrame@@QAX@Z @5346
    ?execGetASBuildVersion@UR6ModMgr@@QAEXAAUFFrame@@QAX@Z @5347
    ?execGetActionKey@APlayerController@@QAEXAAUFFrame@@QAX@Z @5348
    ?execGetAddressURL@ALevelInfo@@QAEXAAUFFrame@@QAX@Z @5349
    ?execGetAnimBlendAlpha@AActor@@QAEXAAUFFrame@@QAX@Z @5350
    ?execGetAnimGroup@AActor@@QAEXAAUFFrame@@QAX@Z @5351
    ?execGetAnimParams@AActor@@QAEXAAUFFrame@@QAX@Z @5352
    ?execGetAvailableResolution@AActor@@QAEXAAUFFrame@@QAX@Z @5353
    ?execGetBoneCoords@AActor@@QAEXAAUFFrame@@QAX@Z @5354
    ?execGetBoneRotation@AActor@@QAEXAAUFFrame@@QAX@Z @5355
    ?execGetCacheEntry@AActor@@QAEXAAUFFrame@@QAX@Z @5356
    ?execGetCanvas@AActor@@QAEXAAUFFrame@@QAX@Z @5357
    ?execGetChecksum@AStatLogFile@@QAEXAAUFFrame@@QAX@Z @5358
    ?execGetCurrentMapNum@AGameInfo@@QAEXAAUFFrame@@QAX@Z @5359
    ?execGetDefaultURL@APlayerController@@QAEXAAUFFrame@@QAX@Z @5360
    ?execGetEntryLevel@APlayerController@@QAEXAAUFFrame@@QAX@Z @5361
    ?execGetEnumName@APlayerController@@QAEXAAUFFrame@@QAX@Z @5362
    ?execGetFPlayerMenuInfo@AActor@@QAEXAAUFFrame@@QAX@Z @5363
    ?execGetFileName@UR6FileManager@@QAEXAAUFFrame@@QAX@Z @5364
    ?execGetGMTRef@AStatLog@@QAEXAAUFFrame@@QAX@Z @5365
    ?execGetGameManager@AActor@@QAEXAAUFFrame@@QAX@Z @5366
    ?execGetGameOptions@AActor@@QAEXAAUFFrame@@QAX@Z @5367
    ?execGetGameVersion@AActor@@QAEXAAUFFrame@@QAX@Z @5368
    ?execGetIWBuildVersion@UR6ModMgr@@QAEXAAUFFrame@@QAX@Z @5369
    ?execGetKey@APlayerController@@QAEXAAUFFrame@@QAX@Z @5370
    ?execGetLocalURL@ALevelInfo@@QAEXAAUFFrame@@QAX@Z @5371
    ?execGetMapFileName@AStatLog@@QAEXAAUFFrame@@QAX@Z @5372
    ?execGetMapName@AActor@@QAEXAAUFFrame@@QAX@Z @5373
    ?execGetMapNameExt@AActor@@QAEXAAUFFrame@@QAX@Z @5374
    ?execGetMapNameLocalisation@ALevelInfo@@QAEXAAUFFrame@@QAX@Z @5375
    ?execGetMissionDescription@AActor@@QAEXAAUFFrame@@QAX@Z @5376
    ?execGetModMgr@AActor@@QAEXAAUFFrame@@QAX@Z @5377
    ?execGetNbAvailableResolutions@AActor@@QAEXAAUFFrame@@QAX@Z @5378
    ?execGetNbFile@UR6FileManager@@QAEXAAUFFrame@@QAX@Z @5379
    ?execGetNetworkNumber@AGameInfo@@QAEXAAUFFrame@@QAX@Z @5380
    ?execGetNextInt@AActor@@QAEXAAUFFrame@@QAX@Z @5381
    ?execGetNextIntDesc@AActor@@QAEXAAUFFrame@@QAX@Z @5382
    ?execGetNextSkin@AActor@@QAEXAAUFFrame@@QAX@Z @5383
    ?execGetNotifyChannel@AActor@@QAEXAAUFFrame@@QAX@Z @5384
    ?execGetPBConnectStatus@APlayerController@@QAEXAAUFFrame@@QAX@Z @5385
    ?execGetPlayerChecksum@AStatLog@@QAEXAAUFFrame@@QAX@Z @5386
    ?execGetPlayerNetworkAddress@APlayerController@@QAEXAAUFFrame@@QAX@Z @5387
    ?execGetPlayerSetupInfo@AActor@@QAEXAAUFFrame@@QAX@Z @5388
    ?execGetRenderBoundingSphere@AActor@@QAEXAAUFFrame@@QAX@Z @5389
    ?execGetRootLocation@AActor@@QAEXAAUFFrame@@QAX@Z @5390
    ?execGetRootLocationDelta@AActor@@QAEXAAUFFrame@@QAX@Z @5391
    ?execGetRootRotation@AActor@@QAEXAAUFFrame@@QAX@Z @5392
    ?execGetRootRotationDelta@AActor@@QAEXAAUFFrame@@QAX@Z @5393
    ?execGetScreenCoordinate@UCanvas@@QAEXAAUFFrame@@QAX@Z @5394
    ?execGetServerBeacon@AActor@@QAEXAAUFFrame@@QAX@Z @5395
    ?execGetServerOptions@AActor@@QAEXAAUFFrame@@QAX@Z @5396
    ?execGetServerOptionsRefreshed@AActor@@QAEXAAUFFrame@@QAX@Z @5397
    ?execGetSoundDuration@AActor@@QAEXAAUFFrame@@QAX@Z @5398
    ?execGetTagInformations@AActor@@QAEXAAUFFrame@@QAX@Z @5399
    ?execGetTime@AActor@@QAEXAAUFFrame@@QAX@Z @5400
    ?execGetTotalSceneTime@ASceneManager@@QAEXAAUFFrame@@QAX@Z @5401
    ?execGetURLMap@AActor@@QAEXAAUFFrame@@QAX@Z @5402
    ?execGlobalIDToBytes@AActor@@QAEXAAUFFrame@@QAX@Z @5403
    ?execGlobalIDToString@AActor@@QAEXAAUFFrame@@QAX@Z @5404
    ?execHasAnim@AActor@@QAEXAAUFFrame@@QAX@Z @5405
    ?execInLatentExecution@AController@@QAEXAAUFFrame@@QAX@Z @5406
    ?execInPlanningMode@AActor@@QAEXAAUFFrame@@QAX@Z @5407
    ?execInitialCheck@AStatLog@@QAEXAAUFFrame@@QAX@Z @5408
    ?execInitialize@UInteraction@@QAEXAAUFFrame@@QAX@Z @5409
    ?execIsAlive@APawn@@QAEXAAUFFrame@@QAX@Z @5410
    ?execIsAnimating@AActor@@QAEXAAUFFrame@@QAX@Z @5411
    ?execIsAvailableInGameType@AActor@@QAEXAAUFFrame@@QAX@Z @5412
    ?execIsEnemy@APawn@@QAEXAAUFFrame@@QAX@Z @5413
    ?execIsFriend@APawn@@QAEXAAUFFrame@@QAX@Z @5414
    ?execIsGSCreateUbiServer@UR6AbstractGameManager@@QAEXAAUFFrame@@QAX@Z @5415
    ?execIsNeutral@APawn@@QAEXAAUFFrame@@QAX@Z @5416
    ?execIsOfficialMod@UR6ModMgr@@QAEXAAUFFrame@@QAX@Z @5417
    ?execIsPBClientEnabled@AActor@@QAEXAAUFFrame@@QAX@Z @5418
    ?execIsPBEnabled@APlayerController@@QAEXAAUFFrame@@QAX@Z @5419
    ?execIsPBServerEnabled@AActor@@QAEXAAUFFrame@@QAX@Z @5420
    ?execIsPlayingSound@AActor@@QAEXAAUFFrame@@QAX@Z @5421
    ?execIsTweening@AActor@@QAEXAAUFFrame@@QAX@Z @5422
    ?execIsVideoHardwareAtLeast64M@AActor@@QAEXAAUFFrame@@QAX@Z @5423
    ?execKAddBoneLifter@AActor@@QAEXAAUFFrame@@QAX@Z @5424
    ?execKAddImpulse@AActor@@QAEXAAUFFrame@@QAX@Z @5425
    ?execKDisableCollision@AActor@@QAEXAAUFFrame@@QAX@Z @5426
    ?execKEnableCollision@AActor@@QAEXAAUFFrame@@QAX@Z @5427
    ?execKFreezeRagdoll@AActor@@QAEXAAUFFrame@@QAX@Z @5428
    ?execKGetActorGravScale@AActor@@QAEXAAUFFrame@@QAX@Z @5429
    ?execKGetCOMOffset@AActor@@QAEXAAUFFrame@@QAX@Z @5430
    ?execKGetCOMPosition@AActor@@QAEXAAUFFrame@@QAX@Z @5431
    ?execKGetConstraintForce@AKConstraint@@QAEXAAUFFrame@@QAX@Z @5432
    ?execKGetConstraintTorque@AKConstraint@@QAEXAAUFFrame@@QAX@Z @5433
    ?execKGetDampingProps@AActor@@QAEXAAUFFrame@@QAX@Z @5434
    ?execKGetFriction@AActor@@QAEXAAUFFrame@@QAX@Z @5435
    ?execKGetImpactThreshold@AActor@@QAEXAAUFFrame@@QAX@Z @5436
    ?execKGetInertiaTensor@AActor@@QAEXAAUFFrame@@QAX@Z @5437
    ?execKGetMass@AActor@@QAEXAAUFFrame@@QAX@Z @5438
    ?execKGetRestitution@AActor@@QAEXAAUFFrame@@QAX@Z @5439
    ?execKGetSkelMass@AActor@@QAEXAAUFFrame@@QAX@Z @5440
    ?execKIsAwake@AActor@@QAEXAAUFFrame@@QAX@Z @5441
    ?execKIsRagdollAvailable@AActor@@QAEXAAUFFrame@@QAX@Z @5442
    ?execKMP2IOKarmaAllNativeFct@AActor@@QAEXAAUFFrame@@QAX@Z @5443
    ?execKMakeRagdollAvailable@AActor@@QAEXAAUFFrame@@QAX@Z @5444
    ?execKRemoveAllBoneLifters@AActor@@QAEXAAUFFrame@@QAX@Z @5445
    ?execKRemoveLifterFromBone@AActor@@QAEXAAUFFrame@@QAX@Z @5446
    ?execKSetActorGravScale@AActor@@QAEXAAUFFrame@@QAX@Z @5447
    ?execKSetBlockKarma@AActor@@QAEXAAUFFrame@@QAX@Z @5448
    ?execKSetCOMOffset@AActor@@QAEXAAUFFrame@@QAX@Z @5449
    ?execKSetDampingProps@AActor@@QAEXAAUFFrame@@QAX@Z @5450
    ?execKSetFriction@AActor@@QAEXAAUFFrame@@QAX@Z @5451
    ?execKSetImpactThreshold@AActor@@QAEXAAUFFrame@@QAX@Z @5452
    ?execKSetInertiaTensor@AActor@@QAEXAAUFFrame@@QAX@Z @5453
    ?execKSetMass@AActor@@QAEXAAUFFrame@@QAX@Z @5454
    ?execKSetRestitution@AActor@@QAEXAAUFFrame@@QAX@Z @5455
    ?execKSetSkelVel@AActor@@QAEXAAUFFrame@@QAX@Z @5456
    ?execKSetStayUpright@AActor@@QAEXAAUFFrame@@QAX@Z @5457
    ?execKUpdateConstraintParams@AKConstraint@@QAEXAAUFFrame@@QAX@Z @5458
    ?execKWake@AActor@@QAEXAAUFFrame@@QAX@Z @5459
    ?execKill@AEmitter@@QAEXAAUFFrame@@QAX@Z @5460
    ?execKillDecal@AR6DecalGroup@@QAEXAAUFFrame@@QAX@Z @5461
    ?execKillDecal@AR6DecalManager@@QAEXAAUFFrame@@QAX@Z @5462
    ?execLaunchListenSrv@UR6AbstractGameManager@@QAEXAAUFFrame@@QAX@Z @5463
    ?execLineOfSightTo@AController@@QAEXAAUFFrame@@QAX@Z @5464
    ?execLinkMesh@AActor@@QAEXAAUFFrame@@QAX@Z @5465
    ?execLinkSkelAnim@AActor@@QAEXAAUFFrame@@QAX@Z @5466
    ?execLoadLoadingScreen@AActor@@QAEXAAUFFrame@@QAX@Z @5467
    ?execLoadRandomBackgroundImage@AActor@@QAEXAAUFFrame@@QAX@Z @5468
    ?execLockRootMotion@AActor@@QAEXAAUFFrame@@QAX@Z @5469
    ?execLoopAnim@AActor@@QAEXAAUFFrame@@QAX@Z @5470
    ?execMakeNoise@AActor@@QAEXAAUFFrame@@QAX@Z @5471
    ?execMove@AActor@@QAEXAAUFFrame@@QAX@Z @5472
    ?execMoveCacheEntry@AActor@@QAEXAAUFFrame@@QAX@Z @5473
    ?execMoveSmooth@AActor@@QAEXAAUFFrame@@QAX@Z @5474
    ?execMoveTo@AController@@QAEXAAUFFrame@@QAX@Z @5475
    ?execMoveToward@AController@@QAEXAAUFFrame@@QAX@Z @5476
    ?execMultiply_ColorFloat@AActor@@QAEXAAUFFrame@@QAX@Z @5477
    ?execMultiply_FloatColor@AActor@@QAEXAAUFFrame@@QAX@Z @5478
    ?execNativeNonUbiMatchMaking@AActor@@QAEXAAUFFrame@@QAX@Z @5479
    ?execNativeNonUbiMatchMakingAddress@AActor@@QAEXAAUFFrame@@QAX@Z @5480
    ?execNativeNonUbiMatchMakingHost@AActor@@QAEXAAUFFrame@@QAX@Z @5481
    ?execNativeNonUbiMatchMakingPassword@AActor@@QAEXAAUFFrame@@QAX@Z @5482
    ?execNativeRunAllTests@AR6eviLTesting@@QAEXAAUFFrame@@QAX@Z @5483
    ?execNativeStartedByGSClient@AActor@@QAEXAAUFFrame@@QAX@Z @5484
    ?execNotifyMatchStart@ALevelInfo@@QAEXAAUFFrame@@QAX@Z @5485
    ?execOnlyAffectPawns@AActor@@QAEXAAUFFrame@@QAX@Z @5486
    ?execOpenLog@AStatLogFile@@QAEXAAUFFrame@@QAX@Z @5487
    ?execPBNotifyServerTravel@ALevelInfo@@QAEXAAUFFrame@@QAX@Z @5488
    ?execPB_CanPlayerSpawn@APlayerController@@QAEXAAUFFrame@@QAX@Z @5489
    ?execParseKillMessage@AGameInfo@@QAEXAAUFFrame@@QAX@Z @5490
    ?execPasteFromClipboard@APlayerController@@QAEXAAUFFrame@@QAX@Z @5491
    ?execPickAnyTarget@AController@@QAEXAAUFFrame@@QAX@Z @5492
    ?execPickTarget@AController@@QAEXAAUFFrame@@QAX@Z @5493
    ?execPickWallAdjust@AController@@QAEXAAUFFrame@@QAX@Z @5494
    ?execPlayAnim@AActor@@QAEXAAUFFrame@@QAX@Z @5495
    ?execPlayMusic@AActor@@QAEXAAUFFrame@@QAX@Z @5496
    ?execPlayOwnedSound@AActor@@QAEXAAUFFrame@@QAX@Z @5497
    ?execPlaySound@AActor@@QAEXAAUFFrame@@QAX@Z @5498
    ?execPlayerCanSeeMe@AActor@@QAEXAAUFFrame@@QAX@Z @5499
    ?execPling@AFluidSurfaceInfo@@QAEXAAUFFrame@@QAX@Z @5500
    ?execPollFinishAnim@AActor@@QAEXAAUFFrame@@QAX@Z @5501
    ?execPollFinishInterpolation@AActor@@QAEXAAUFFrame@@QAX@Z @5502
    ?execPollFinishRotation@AController@@QAEXAAUFFrame@@QAX@Z @5503
    ?execPollMoveTo@AController@@QAEXAAUFFrame@@QAX@Z @5504
    ?execPollMoveToward@AController@@QAEXAAUFFrame@@QAX@Z @5505
    ?execPollSleep@AActor@@QAEXAAUFFrame@@QAX@Z @5506
    ?execPollWaitForLanding@AController@@QAEXAAUFFrame@@QAX@Z @5507
    ?execPollWaitToSeeEnemy@AAIController@@QAEXAAUFFrame@@QAX@Z @5508
    ?execProcessR6Availabilty@AGameInfo@@QAEXAAUFFrame@@QAX@Z @5509
    ?execR6Trace@AActor@@QAEXAAUFFrame@@QAX@Z @5510
    ?execRadiusActors@AActor@@QAEXAAUFFrame@@QAX@Z @5511
    ?execReachedDestination@APawn@@QAEXAAUFFrame@@QAX@Z @5512
    ?execRemoveController@AController@@QAEXAAUFFrame@@QAX@Z @5513
    ?execRenderLevelFromMe@AActor@@QAEXAAUFFrame@@QAX@Z @5514
    ?execReplaceTexture@AActor@@QAEXAAUFFrame@@QAX@Z @5515
    ?execResetKeyboard@APlayerController@@QAEXAAUFFrame@@QAX@Z @5516
    ?execResetLevelInNative@ALevelInfo@@QAEXAAUFFrame@@QAX@Z @5517
    ?execResetVolume_AllTypeSound@AActor@@QAEXAAUFFrame@@QAX@Z @5518
    ?execResetVolume_TypeSound@AActor@@QAEXAAUFFrame@@QAX@Z @5519
    ?execReturnSavedFadeValue@AActor@@QAEXAAUFFrame@@QAX@Z @5520
    ?execSaveCurrentFadeValue@AActor@@QAEXAAUFFrame@@QAX@Z @5521
    ?execSaveServerOptions@AActor@@QAEXAAUFFrame@@QAX@Z @5522
    ?execSceneDestroyed@ASceneManager@@QAEXAAUFFrame@@QAX@Z @5523
    ?execScreenToWorld@UInteraction@@QAEXAAUFFrame@@QAX@Z @5524
    ?execSetBankSound@ALevelInfo@@QAEXAAUFFrame@@QAX@Z @5525
    ?execSetBase@AActor@@QAEXAAUFFrame@@QAX@Z @5526
    ?execSetBoneDirection@AActor@@QAEXAAUFFrame@@QAX@Z @5527
    ?execSetBoneLocation@AActor@@QAEXAAUFFrame@@QAX@Z @5528
    ?execSetBoneRotation@AActor@@QAEXAAUFFrame@@QAX@Z @5529
    ?execSetBoneScale@AActor@@QAEXAAUFFrame@@QAX@Z @5530
    ?execSetClip@UCanvas@@QAEXAAUFFrame@@QAX@Z @5531
    ?execSetCollision@AActor@@QAEXAAUFFrame@@QAX@Z @5532
    ?execSetCollisionSize@AActor@@QAEXAAUFFrame@@QAX@Z @5533
    ?execSetCurrentMapNum@AGameInfo@@QAEXAAUFFrame@@QAX@Z @5534
    ?execSetDrawColor@UCanvas@@QAEXAAUFFrame@@QAX@Z @5535
    ?execSetDrawScale3D@AActor@@QAEXAAUFFrame@@QAX@Z @5536
    ?execSetDrawScale@AActor@@QAEXAAUFFrame@@QAX@Z @5537
    ?execSetDrawType@AActor@@QAEXAAUFFrame@@QAX@Z @5538
    ?execSetFPlayerMenuInfo@AActor@@QAEXAAUFFrame@@QAX@Z @5539
    ?execSetFloorToDraw@AActor@@QAEXAAUFFrame@@QAX@Z @5540
    ?execSetGSCreateUbiServer@UR6AbstractGameManager@@QAEXAAUFFrame@@QAX@Z @5541
    ?execSetGeneralModSettings@UR6ModMgr@@QAEXAAUFFrame@@QAX@Z @5542
    ?execSetKey@APlayerController@@QAEXAAUFFrame@@QAX@Z @5543
    ?execSetLocation@AActor@@QAEXAAUFFrame@@QAX@Z @5544
    ?execSetMotionBlurIntensity@UCanvas@@QAEXAAUFFrame@@QAX@Z @5545
    ?execSetOrigin@UCanvas@@QAEXAAUFFrame@@QAX@Z @5546
    ?execSetOwner@AActor@@QAEXAAUFFrame@@QAX@Z @5547
    ?execSetPBStatus@AActor@@QAEXAAUFFrame@@QAX@Z @5548
    ?execSetPhysics@AActor@@QAEXAAUFFrame@@QAX@Z @5549
    ?execSetPlanningMode@AActor@@QAEXAAUFFrame@@QAX@Z @5550
    ?execSetPlayerSetupInfo@AActor@@QAEXAAUFFrame@@QAX@Z @5551
    ?execSetPos@UCanvas@@QAEXAAUFFrame@@QAX@Z @5552
    ?execSetRelativeLocation@AActor@@QAEXAAUFFrame@@QAX@Z @5553
    ?execSetRelativeRotation@AActor@@QAEXAAUFFrame@@QAX@Z @5554
    ?execSetRotation@AActor@@QAEXAAUFFrame@@QAX@Z @5555
    ?execSetServerBeacon@AActor@@QAEXAAUFFrame@@QAX@Z @5556
    ?execSetSoundOptions@APlayerController@@QAEXAAUFFrame@@QAX@Z @5557
    ?execSetStaticMesh@AActor@@QAEXAAUFFrame@@QAX@Z @5558
    ?execSetSystemMod@UR6ModMgr@@QAEXAAUFFrame@@QAX@Z @5559
    ?execSetTimer@AActor@@QAEXAAUFFrame@@QAX@Z @5560
    ?execSetViewTarget@APlayerController@@QAEXAAUFFrame@@QAX@Z @5561
    ?execSetVirtualSize@UCanvas@@QAEXAAUFFrame@@QAX@Z @5562
    ?execSleep@AActor@@QAEXAAUFFrame@@QAX@Z @5563
    ?execSortFPlayerMenuInfo@AActor@@QAEXAAUFFrame@@QAX@Z @5564
    ?execSpawn@AActor@@QAEXAAUFFrame@@QAX@Z @5565
    ?execSpawnParticle@UParticleEmitter@@QAEXAAUFFrame@@QAX@Z @5566
    ?execSpecialDestroy@APlayerController@@QAEXAAUFFrame@@QAX@Z @5567
    ?execStartJoinServer@UR6AbstractGameManager@@QAEXAAUFFrame@@QAX@Z @5568
    ?execStartLogInProcedure@UR6AbstractGameManager@@QAEXAAUFFrame@@QAX@Z @5569
    ?execStartPreJoinProcedure@UR6AbstractGameManager@@QAEXAAUFFrame@@QAX@Z @5570
    ?execStopAllMusic@AActor@@QAEXAAUFFrame@@QAX@Z @5571
    ?execStopAllSounds@AActor@@QAEXAAUFFrame@@QAX@Z @5572
    ?execStopAllSoundsActor@AActor@@QAEXAAUFFrame@@QAX@Z @5573
    ?execStopAnimating@AActor@@QAEXAAUFFrame@@QAX@Z @5574
    ?execStopGSClientProcedure@UR6AbstractGameManager@@QAEXAAUFFrame@@QAX@Z @5575
    ?execStopMusic@AActor@@QAEXAAUFFrame@@QAX@Z @5576
    ?execStopSound@AActor@@QAEXAAUFFrame@@QAX@Z @5577
    ?execStopWaiting@AController@@QAEXAAUFFrame@@QAX@Z @5578
    ?execStrLen@UCanvas@@QAEXAAUFFrame@@QAX@Z @5579
    ?execSubtract_ColorColor@AActor@@QAEXAAUFFrame@@QAX@Z @5580
    ?execTerminateAIAction@ASceneManager@@QAEXAAUFFrame@@QAX@Z @5581
    ?execTextSize@UCanvas@@QAEXAAUFFrame@@QAX@Z @5582
    ?execTouchingActors@AActor@@QAEXAAUFFrame@@QAX@Z @5583
    ?execTrace@AActor@@QAEXAAUFFrame@@QAX@Z @5584
    ?execTraceActors@AActor@@QAEXAAUFFrame@@QAX@Z @5585
    ?execTravel@UInteractionMaster@@QAEXAAUFFrame@@QAX@Z @5586
    ?execTweenAnim@AActor@@QAEXAAUFFrame@@QAX@Z @5587
    ?execUnLinkSkelAnim@AActor@@QAEXAAUFFrame@@QAX@Z @5588
    ?execUnWarp@AWarpZoneInfo@@QAEXAAUFFrame@@QAX@Z @5589
    ?execUpdateGraphicOptions@AActor@@QAEXAAUFFrame@@QAX@Z @5590
    ?execUpdateURL@APlayerController@@QAEXAAUFFrame@@QAX@Z @5591
    ?execUseVirtualSize@UCanvas@@QAEXAAUFFrame@@QAX@Z @5592
    ?execVideoClose@UCanvas@@QAEXAAUFFrame@@QAX@Z @5593
    ?execVideoOpen@UCanvas@@QAEXAAUFFrame@@QAX@Z @5594
    ?execVideoPlay@UCanvas@@QAEXAAUFFrame@@QAX@Z @5595
    ?execVideoStop@UCanvas@@QAEXAAUFFrame@@QAX@Z @5596
    ?execVisibleActors@AActor@@QAEXAAUFFrame@@QAX@Z @5597
    ?execVisibleCollidingActors@AActor@@QAEXAAUFFrame@@QAX@Z @5598
    ?execWaitForLanding@AController@@QAEXAAUFFrame@@QAX@Z @5599
    ?execWaitToSeeEnemy@AAIController@@QAEXAAUFFrame@@QAX@Z @5600
    ?execWarp@AWarpZoneInfo@@QAEXAAUFFrame@@QAX@Z @5601
    ?execWasSkeletonUpdated@AActor@@QAEXAAUFFrame@@QAX@Z @5602
    ?execWatermark@AStatLogFile@@QAEXAAUFFrame@@QAX@Z @5603
    ?execWorldToScreen@UInteraction@@QAEXAAUFFrame@@QAX@Z @5604
    ?execZoneActors@AZoneInfo@@QAEXAAUFFrame@@QAX@Z @5605
    ?execactorReachable@AController@@QAEXAAUFFrame@@QAX@Z @5606
    ?execpointReachable@AController@@QAEXAAUFFrame@@QAX@Z @5607
    ?findBestReachable@UReachSpec@@QAEHPAVAScout@@@Z @5608
    ?findEndAnchor@FSortedPathList@@QAEPAVANavigationPoint@@PAVAPawn@@PAVAActor@@VFVector@@H@Z @5609
    ?findNewFloor@APawn@@AAEHVFVector@@MMH@Z @5610
    ?findPathToward@APawn@@QAEMPAVAActor@@VFVector@@P6AMPAVANavigationPoint@@PAV1@M@ZHM@Z @5611
    ?findStart@AScout@@QAEHVFVector@@@Z @5612
    ?findStartAnchor@FSortedPathList@@QAEPAVANavigationPoint@@PAVAPawn@@@Z @5613
    ?findWaterLine@APawn@@AAE?AVFVector@@V2@0@Z @5614
    ?fixedTurn@AActor@@QAEHHHH@Z @5615
    ?flyMove@APawn@@QAE?AW4ETestMoveResult@@VFVector@@PAVAActor@@M@Z @5616
    ?flyReachable@APawn@@QAEHVFVector@@HPAVAActor@@@Z @5617
    ?fn_bInitFromLbpFile@CBoneDescData@@QAEHPBG@Z @5618
    ?fn_bInitFromMemory@CCompressedLipDescData@@QAEHPAE@Z @5619
    ?g_pEngine@@3PAVUEngine@@A @5620
    ?getGameShutDown@@YAHXZ @5621
    ?getKConstraint@AKConstraint@@UBEPAUMdtBaseConstraint@@XZ @5622
    ?getKModel@AActor@@UBEPAU_McdModel@@XZ @5623
    ?getKModel@AKConstraint@@UBEPAU_McdModel@@XZ @5624
    ?getScout@FPathBuilder@@AAEXXZ @5625
    ?jumpLanding@APawn@@QAE?AW4ETestMoveResult@@VFVector@@H@Z @5626
    ?jumpReachable@APawn@@QAEHVFVector@@HPAVAActor@@@Z @5627
    ?ladderReachable@APawn@@QAEHVFVector@@HPAVAActor@@@Z @5628
    ?m_bLoadLbpFile@USkeletalMesh@@QAEXVFString@@@Z @5629
    ?m_bReadCompressedFileFromMemory@CCompressedLipDescData@@QAEHPAE@Z @5630
    ?m_fCylindersRadius@USkeletalMeshInstance@@2PAMA @5631
    ?m_vProcessLbpLine@CBoneDescData@@QAEXHHAAVFString@@@Z @5632
    ?m_vStartLipsynch@ECLipSynchData@@QAEXXZ @5633
    ?m_vStopLipsynch@ECLipSynchData@@QAEXXZ @5634
    ?m_vUpdateBonesCompressed@ECLipSynchData@@QAEXH@Z @5635
    ?m_vUpdateBonesCompressed_BoneView@ECLipSynchData@@QAEXH@Z @5636
    ?m_vUpdateBonesCompressed_PhonemsSeq@ECLipSynchData@@QAEXH@Z @5637
    ?m_vUpdateLipSynch@ECLipSynchData@@QAEXM@Z @5638
    ?moveSmooth@AActor@@QAEHVFVector@@@Z @5639
    ?moveToward@APawn@@UAEHABVFVector@@PAVAActor@@@Z @5640
    ?newPath@FPathBuilder@@AAEPAVANavigationPoint@@VFVector@@@Z @5641
    ?performPhysics@AActor@@UAEXM@Z @5642
    ?performPhysics@AMover@@UAEXM@Z @5643
    ?performPhysics@APawn@@UAEXM@Z @5644
    ?physFalling@AActor@@UAEXMH@Z @5645
    ?physFalling@APawn@@UAEXMH@Z @5646
    ?physFlying@APawn@@QAEXMH@Z @5647
    ?physKarma@AActor@@UAEXM@Z @5648
    ?physKarma@AKConstraint@@UAEXM@Z @5649
    ?physKarmaRagDoll@AActor@@QAEXM@Z @5650
    ?physKarmaRagDoll_internal@AActor@@QAEXM@Z @5651
    ?physKarma_internal@AActor@@QAEXM@Z @5652
    ?physLadder@APawn@@UAEXMH@Z @5653
    ?physMovingBrush@AMover@@QAEXM@Z @5654
    ?physProjectile@AActor@@QAEXMH@Z @5655
    ?physRootMotion@AActor@@QAEXM@Z @5656
    ?physSpider@APawn@@QAEXMH@Z @5657
    ?physSwimming@APawn@@QAEXMH@Z @5658
    ?physTrailer@AActor@@QAEXM@Z @5659
    ?physWalking@APawn@@QAEXMH@Z @5660
    ?physicsRotation@AActor@@QAEXM@Z @5661
    ?physicsRotation@APawn@@UAEXMVFVector@@@Z @5662
    ?pointReachable@APawn@@QAEHVFVector@@H@Z @5663
    ?postKarmaStep@AActor@@UAEXXZ @5664
    ?postKarmaStep@AKConstraint@@UAEXXZ @5665
    ?postKarmaStep_skeletal@AActor@@QAEXXZ @5666
    ?preKarmaStep@AActor@@UAEXM@Z @5667
    ?preKarmaStep@AKConstraint@@UAEXM@Z @5668
    ?preKarmaStep@AKHinge@@UAEXM@Z @5669
    ?preKarmaStep_skeletal@AActor@@QAEXM@Z @5670
    ?processHitWall@AActor@@UAEXVFVector@@PAV1@@Z @5671
    ?processHitWall@APawn@@UAEXVFVector@@PAVAActor@@@Z @5672
    ?processLanded@AActor@@UAEXVFVector@@PAV1@MH@Z @5673
    ?processLanded@APawn@@UAEXVFVector@@PAVAActor@@MH@Z @5674
    ?removePaths@FPathBuilder@@QAEHPAVULevel@@@Z @5675
    ?rotateToward@APawn@@QAEXPAVAActor@@VFVector@@@Z @5676
    ?setMoveTimer@APawn@@QAEXM@Z @5677
    ?setPhysics@AActor@@UAEXEPAV1@VFVector@@@Z @5678
    ?startNewPhysics@APawn@@QAEXMH@Z @5679
    ?startSwimming@APawn@@QAEXVFVector@@0MMH@Z @5680
    ?stepUp@AActor@@UAEXVFVector@@00AAUFCheckResult@@@Z @5681
    ?stepUp@APawn@@UAEXVFVector@@00AAUFCheckResult@@@Z @5682
    ?supports@UReachSpec@@QAEHHHHH@Z @5683
    ?swimMove@APawn@@QAE?AW4ETestMoveResult@@VFVector@@PAVAActor@@M@Z @5684
    ?swimReachable@APawn@@QAEHVFVector@@HPAVAActor@@@Z @5685
    ?testPathsFrom@FPathBuilder@@AAEXVFVector@@@Z @5686
    ?testPathwithRadius@FPathBuilder@@AAEXVFVector@@M@Z @5687
    ?undefinePaths@FPathBuilder@@QAEXPAVULevel@@@Z @5688
    ?walkMove@APawn@@QAE?AW4ETestMoveResult@@VFVector@@AAUFCheckResult@@PAVAActor@@M@Z @5689
    ?walkReachable@APawn@@QAEHVFVector@@HPAVAActor@@@Z @5690
    _DllMain@12 @5691
    GPackage @5692
    autoclassAAIController @5693
    autoclassAAIMarker @5694
    autoclassAAIScript @5695
    autoclassAActor @5696
    autoclassAActorManager @5697
    autoclassAAntiPortalActor @5698
    autoclassABlockingVolume @5699
    autoclassABrush @5700
    autoclassACamera @5701
    autoclassAClipMarker @5702
    autoclassAController @5703
    autoclassADecoVolumeObject @5704
    autoclassADecorationList @5705
    autoclassADefaultPhysicsVolume @5706
    autoclassADoor @5707
    autoclassAEmitter @5708
    autoclassAFluidSurfaceInfo @5709
    autoclassAFluidSurfaceOscillator @5710
    autoclassAGameInfo @5711
    autoclassAGameReplicationInfo @5712
    autoclassAHUD @5713
    autoclassAInfo @5714
    autoclassAInternetInfo @5715
    autoclassAInterpolationPoint @5716
    autoclassAJumpDest @5717
    autoclassAJumpPad @5718
    autoclassAKActor @5719
    autoclassAKBSJoint @5720
    autoclassAKConeLimit @5721
    autoclassAKConstraint @5722
    autoclassAKHinge @5723
    autoclassAKeypoint @5724
    autoclassALadder @5725
    autoclassALadderVolume @5726
    autoclassALevelInfo @5727
    autoclassALiftCenter @5728
    autoclassALiftExit @5729
    autoclassALight @5730
    autoclassALineOfSightTrigger @5731
    autoclassALookTarget @5732
    autoclassAMapList @5733
    autoclassAMover @5734
    autoclassANavigationPoint @5735
    autoclassANote @5736
    autoclassAPathNode @5737
    autoclassAPawn @5738
    autoclassAPhysicsVolume @5739
    autoclassAPlayerController @5740
    autoclassAPlayerReplicationInfo @5741
    autoclassAPlayerStart @5742
    autoclassAPolyMarker @5743
    autoclassAPotentialClimbWatcher @5744
    autoclassAProjector @5745
    autoclassAR6AbstractCircumstantialActionQuery @5746
    autoclassAR6AbstractClimbableObj @5747
    autoclassAR6ActionPointAbstract @5748
    autoclassAR6ActionSpot @5749
    autoclassAR6ColBox @5750
    autoclassAR6Decal @5751
    autoclassAR6DecalGroup @5752
    autoclassAR6DecalManager @5753
    autoclassAR6DecalsBase @5754
    autoclassAR6EngineFirstPersonWeapon @5755
    autoclassAR6EngineWeapon @5756
    autoclassAR6FootStep @5757
    autoclassAR6GlowLight @5758
    autoclassAR6MapList @5759
    autoclassAR6MorphMeshActor @5760
    autoclassAR6PawnReplicationInfo @5761
    autoclassAR6RainbowStartInfo @5762
    autoclassAR6StartGameInfo @5763
    autoclassAR6TeamStartInfo @5764
    autoclassAR6WallHit @5765
    autoclassAR6eviLTesting @5766
    autoclassAReplicationInfo @5767
    autoclassASavedMove @5768
    autoclassASceneManager @5769
    autoclassAScout @5770
    autoclassASkyZoneInfo @5771
    autoclassASmallNavigationPoint @5772
    autoclassAStatLog @5773
    autoclassAStatLogFile @5774
    autoclassAStaticMeshActor @5775
    autoclassATeleporter @5776
    autoclassATerrainInfo @5777
    autoclassATrigger @5778
    autoclassATriggers @5779
    autoclassAVolume @5780
    autoclassAWarpZoneInfo @5781
    autoclassAWarpZoneMarker @5782
    autoclassAZoneInfo @5783
    autoclassUActionMoveActor @5784
    autoclassUActionMoveCamera @5785
    autoclassUActionPause @5786
    autoclassUActorChannel @5787
    autoclassUAnimNotify @5788
    autoclassUAnimNotify_DestroyEffect @5789
    autoclassUAnimNotify_Effect @5790
    autoclassUAnimNotify_MatSubAction @5791
    autoclassUAnimNotify_Script @5792
    autoclassUAnimNotify_Scripted @5793
    autoclassUAnimNotify_Sound @5794
    autoclassUAnimation @5795
    autoclassUAudioSubsystem @5796
    autoclassUBeamEmitter @5797
    autoclassUBinaryFileDownload @5798
    autoclassUBitmapMaterial @5799
    autoclassUCameraEffect @5800
    autoclassUCameraOverlay @5801
    autoclassUCanvas @5802
    autoclassUChannel @5803
    autoclassUChannelDownload @5804
    autoclassUCheatManager @5805
    autoclassUClient @5806
    autoclassUColorModifier @5807
    autoclassUCombiner @5808
    autoclassUConsole @5809
    autoclassUConstantColor @5810
    autoclassUConstantMaterial @5811
    autoclassUControlChannel @5812
    autoclassUConvexVolume @5813
    autoclassUCubemap @5814
    autoclassUDemoPlayPendingLevel @5815
    autoclassUDemoRecConnection @5816
    autoclassUDemoRecDriver @5817
    autoclassUDiffuseAttenuationMaterial @5818
    autoclassUDownload @5819
    autoclassUEngine @5820
    autoclassUFadeColor @5821
    autoclassUFileChannel @5822
    autoclassUFinalBlend @5823
    autoclassUFluidSurfacePrimitive @5824
    autoclassUFont @5825
    autoclassUGameEngine @5826
    autoclassUGlobalTempObjects @5827
    autoclassUI3DL2Listener @5828
    autoclassUIndexBuffer @5829
    autoclassUInput @5830
    autoclassUInputPlanning @5831
    autoclassUInteraction @5832
    autoclassUInteractionMaster @5833
    autoclassUInteractions @5834
    autoclassUKMeshProps @5835
    autoclassUKarmaParams @5836
    autoclassUKarmaParamsCollision @5837
    autoclassUKarmaParamsRBFull @5838
    autoclassUKarmaParamsSkel @5839
    autoclassULevel @5840
    autoclassULevelBase @5841
    autoclassULevelSummary @5842
    autoclassULodMesh @5843
    autoclassULodMeshInstance @5844
    autoclassUMatAction @5845
    autoclassUMatObject @5846
    autoclassUMatSubAction @5847
    autoclassUMaterial @5848
    autoclassUMaterialSwitch @5849
    autoclassUMesh @5850
    autoclassUMeshAnimation @5851
    autoclassUMeshEmitter @5852
    autoclassUMeshInstance @5853
    autoclassUModel @5854
    autoclassUModifier @5855
    autoclassUMotionBlur @5856
    autoclassUNetConnection @5857
    autoclassUNetDriver @5858
    autoclassUNetPendingLevel @5859
    autoclassUNullRenderDevice @5860
    autoclassUOpacityModifier @5861
    autoclassUPackageMapLevel @5862
    autoclassUPalette @5863
    autoclassUParticleEmitter @5864
    autoclassUParticleMaterial @5865
    autoclassUPendingLevel @5866
    autoclassUPlayer @5867
    autoclassUPlayerInput @5868
    autoclassUPolys @5869
    autoclassUPrimitive @5870
    autoclassUProjectorPrimitive @5871
    autoclassUProxyBitmapMaterial @5872
    autoclassUR6AbstractGameManager @5873
    autoclassUR6AbstractPlanningInfo @5874
    autoclassUR6AbstractTerroristMgr @5875
    autoclassUR6FileManager @5876
    autoclassUR6GameColors @5877
    autoclassUR6GameMenuCom @5878
    autoclassUR6GameOptions @5879
    autoclassUR6MissionDescription @5880
    autoclassUR6Mod @5881
    autoclassUR6ModMgr @5882
    autoclassUR6ServerInfo @5883
    autoclassUReachSpec @5884
    autoclassURenderDevice @5885
    autoclassURenderResource @5886
    autoclassURenderedMaterial @5887
    autoclassUServerCommandlet @5888
    autoclassUShader @5889
    autoclassUShadowBitmapMaterial @5890
    autoclassUSkeletalMesh @5891
    autoclassUSkeletalMeshInstance @5892
    autoclassUSkinVertexBuffer @5893
    autoclassUSound @5894
    autoclassUSoundGen @5895
    autoclassUSparkEmitter @5896
    autoclassUSpriteEmitter @5897
    autoclassUStaticMesh @5898
    autoclassUStaticMeshInstance @5899
    autoclassUSubActionCameraEffect @5900
    autoclassUSubActionCameraShake @5901
    autoclassUSubActionFOV @5902
    autoclassUSubActionFade @5903
    autoclassUSubActionGameSpeed @5904
    autoclassUSubActionOrientation @5905
    autoclassUSubActionSceneSpeed @5906
    autoclassUSubActionTrigger @5907
    autoclassUTerrainMaterial @5908
    autoclassUTerrainPrimitive @5909
    autoclassUTerrainSector @5910
    autoclassUTexCoordMaterial @5911
    autoclassUTexCoordSource @5912
    autoclassUTexEnvMap @5913
    autoclassUTexMatrix @5914
    autoclassUTexModifier @5915
    autoclassUTexOscillator @5916
    autoclassUTexPanner @5917
    autoclassUTexRotator @5918
    autoclassUTexScaler @5919
    autoclassUTexture @5920
    autoclassUVertMesh @5921
    autoclassUVertMeshInstance @5922
    autoclassUVertexBuffer @5923
    autoclassUVertexColor @5924
    autoclassUVertexStreamBase @5925
    autoclassUVertexStreamCOLOR @5926
    autoclassUVertexStreamPosNormTex @5927
    autoclassUVertexStreamUV @5928
    autoclassUVertexStreamVECTOR @5929
    autoclassUViewport @5930
    intAAIControllerexecPollWaitToSeeEnemy @5931
    intAAIControllerexecWaitToSeeEnemy @5932
    intAActorexecAddAndFindBankInSound @5933
    intAActorexecAddMessageToConsole @5934
    intAActorexecAddSoundBank @5935
    intAActorexecAdd_ColorColor @5936
    intAActorexecAllActors @5937
    intAActorexecAnimBlendParams @5938
    intAActorexecAnimBlendToAlpha @5939
    intAActorexecAnimIsInGroup @5940
    intAActorexecAttachToBone @5941
    intAActorexecAutonomousPhysics @5942
    intAActorexecBasedActors @5943
    intAActorexecChangeVolumeType @5944
    intAActorexecChildActors @5945
    intAActorexecClearChannel @5946
    intAActorexecCollidingActors @5947
    intAActorexecConsoleCommand @5948
    intAActorexecConvertGameTypeIntToString @5949
    intAActorexecConvertGameTypeToInt @5950
    intAActorexecConvertIntTimeToString @5951
    intAActorexecDbgAddLine @5952
    intAActorexecDbgVectorAdd @5953
    intAActorexecDbgVectorReset @5954
    intAActorexecDemoPlaySound @5955
    intAActorexecDestroy @5956
    intAActorexecDetachFromBone @5957
    intAActorexecDrawDashedLine @5958
    intAActorexecDrawText3D @5959
    intAActorexecDynamicActors @5960
    intAActorexecEnableChannelNotify @5961
    intAActorexecEnableLoadingScreen @5962
    intAActorexecError @5963
    intAActorexecFadeSound @5964
    intAActorexecFastTrace @5965
    intAActorexecFindSpot @5966
    intAActorexecFinishAnim @5967
    intAActorexecFinishInterpolation @5968
    intAActorexecFreezeAnimAt @5969
    intAActorexecGarbageCollect @5970
    intAActorexecGetAnimBlendAlpha @5971
    intAActorexecGetAnimGroup @5972
    intAActorexecGetAnimParams @5973
    intAActorexecGetAvailableResolution @5974
    intAActorexecGetBoneCoords @5975
    intAActorexecGetBoneRotation @5976
    intAActorexecGetCacheEntry @5977
    intAActorexecGetCanvas @5978
    intAActorexecGetFPlayerMenuInfo @5979
    intAActorexecGetGameManager @5980
    intAActorexecGetGameOptions @5981
    intAActorexecGetGameVersion @5982
    intAActorexecGetMapName @5983
    intAActorexecGetMapNameExt @5984
    intAActorexecGetMissionDescription @5985
    intAActorexecGetModMgr @5986
    intAActorexecGetNbAvailableResolutions @5987
    intAActorexecGetNextInt @5988
    intAActorexecGetNextIntDesc @5989
    intAActorexecGetNextSkin @5990
    intAActorexecGetNotifyChannel @5991
    intAActorexecGetPlayerSetupInfo @5992
    intAActorexecGetRenderBoundingSphere @5993
    intAActorexecGetRootLocation @5994
    intAActorexecGetRootLocationDelta @5995
    intAActorexecGetRootRotation @5996
    intAActorexecGetRootRotationDelta @5997
    intAActorexecGetServerBeacon @5998
    intAActorexecGetServerOptions @5999
    intAActorexecGetServerOptionsRefreshed @6000
    intAActorexecGetSoundDuration @6001
    intAActorexecGetTagInformations @6002
    intAActorexecGetTime @6003
    intAActorexecGetURLMap @6004
    intAActorexecGlobalIDToBytes @6005
    intAActorexecGlobalIDToString @6006
    intAActorexecHasAnim @6007
    intAActorexecInPlanningMode @6008
    intAActorexecIsAnimating @6009
    intAActorexecIsAvailableInGameType @6010
    intAActorexecIsPBClientEnabled @6011
    intAActorexecIsPBServerEnabled @6012
    intAActorexecIsPlayingSound @6013
    intAActorexecIsTweening @6014
    intAActorexecIsVideoHardwareAtLeast64M @6015
    intAActorexecKAddBoneLifter @6016
    intAActorexecKAddImpulse @6017
    intAActorexecKDisableCollision @6018
    intAActorexecKEnableCollision @6019
    intAActorexecKFreezeRagdoll @6020
    intAActorexecKGetActorGravScale @6021
    intAActorexecKGetCOMOffset @6022
    intAActorexecKGetCOMPosition @6023
    intAActorexecKGetDampingProps @6024
    intAActorexecKGetFriction @6025
    intAActorexecKGetImpactThreshold @6026
    intAActorexecKGetInertiaTensor @6027
    intAActorexecKGetMass @6028
    intAActorexecKGetRestitution @6029
    intAActorexecKGetSkelMass @6030
    intAActorexecKIsAwake @6031
    intAActorexecKIsRagdollAvailable @6032
    intAActorexecKMP2IOKarmaAllNativeFct @6033
    intAActorexecKMakeRagdollAvailable @6034
    intAActorexecKRemoveAllBoneLifters @6035
    intAActorexecKRemoveLifterFromBone @6036
    intAActorexecKSetActorGravScale @6037
    intAActorexecKSetBlockKarma @6038
    intAActorexecKSetCOMOffset @6039
    intAActorexecKSetDampingProps @6040
    intAActorexecKSetFriction @6041
    intAActorexecKSetImpactThreshold @6042
    intAActorexecKSetInertiaTensor @6043
    intAActorexecKSetMass @6044
    intAActorexecKSetRestitution @6045
    intAActorexecKSetSkelVel @6046
    intAActorexecKSetStayUpright @6047
    intAActorexecKWake @6048
    intAActorexecLinkMesh @6049
    intAActorexecLinkSkelAnim @6050
    intAActorexecLoadLoadingScreen @6051
    intAActorexecLoadRandomBackgroundImage @6052
    intAActorexecLockRootMotion @6053
    intAActorexecLoopAnim @6054
    intAActorexecMakeNoise @6055
    intAActorexecMove @6056
    intAActorexecMoveCacheEntry @6057
    intAActorexecMoveSmooth @6058
    intAActorexecMultiply_ColorFloat @6059
    intAActorexecMultiply_FloatColor @6060
    intAActorexecNativeNonUbiMatchMaking @6061
    intAActorexecNativeNonUbiMatchMakingAddress @6062
    intAActorexecNativeNonUbiMatchMakingHost @6063
    intAActorexecNativeNonUbiMatchMakingPassword @6064
    intAActorexecNativeStartedByGSClient @6065
    intAActorexecOnlyAffectPawns @6066
    intAActorexecPlayAnim @6067
    intAActorexecPlayMusic @6068
    intAActorexecPlayOwnedSound @6069
    intAActorexecPlaySound @6070
    intAActorexecPlayerCanSeeMe @6071
    intAActorexecPollFinishAnim @6072
    intAActorexecPollFinishInterpolation @6073
    intAActorexecPollSleep @6074
    intAActorexecR6Trace @6075
    intAActorexecRadiusActors @6076
    intAActorexecRenderLevelFromMe @6077
    intAActorexecReplaceTexture @6078
    intAActorexecResetVolume_AllTypeSound @6079
    intAActorexecResetVolume_TypeSound @6080
    intAActorexecReturnSavedFadeValue @6081
    intAActorexecSaveCurrentFadeValue @6082
    intAActorexecSaveServerOptions @6083
    intAActorexecSetBase @6084
    intAActorexecSetBoneDirection @6085
    intAActorexecSetBoneLocation @6086
    intAActorexecSetBoneRotation @6087
    intAActorexecSetBoneScale @6088
    intAActorexecSetCollision @6089
    intAActorexecSetCollisionSize @6090
    intAActorexecSetDrawScale @6091
    intAActorexecSetDrawScale3D @6092
    intAActorexecSetDrawType @6093
    intAActorexecSetFPlayerMenuInfo @6094
    intAActorexecSetFloorToDraw @6095
    intAActorexecSetLocation @6096
    intAActorexecSetOwner @6097
    intAActorexecSetPBStatus @6098
    intAActorexecSetPhysics @6099
    intAActorexecSetPlanningMode @6100
    intAActorexecSetPlayerSetupInfo @6101
    intAActorexecSetRelativeLocation @6102
    intAActorexecSetRelativeRotation @6103
    intAActorexecSetRotation @6104
    intAActorexecSetServerBeacon @6105
    intAActorexecSetStaticMesh @6106
    intAActorexecSetTimer @6107
    intAActorexecSleep @6108
    intAActorexecSortFPlayerMenuInfo @6109
    intAActorexecSpawn @6110
    intAActorexecStopAllMusic @6111
    intAActorexecStopAllSounds @6112
    intAActorexecStopAllSoundsActor @6113
    intAActorexecStopAnimating @6114
    intAActorexecStopMusic @6115
    intAActorexecStopSound @6116
    intAActorexecSubtract_ColorColor @6117
    intAActorexecTouchingActors @6118
    intAActorexecTrace @6119
    intAActorexecTraceActors @6120
    intAActorexecTweenAnim @6121
    intAActorexecUnLinkSkelAnim @6122
    intAActorexecUpdateGraphicOptions @6123
    intAActorexecVisibleActors @6124
    intAActorexecVisibleCollidingActors @6125
    intAActorexecWasSkeletonUpdated @6126
    intAControllerexecAddController @6127
    intAControllerexecCanSee @6128
    intAControllerexecClearPaths @6129
    intAControllerexecEAdjustJump @6130
    intAControllerexecEndClimbLadder @6131
    intAControllerexecFindBestInventoryPath @6132
    intAControllerexecFindPathTo @6133
    intAControllerexecFindPathToward @6134
    intAControllerexecFindPathTowardNearest @6135
    intAControllerexecFindRandomDest @6136
    intAControllerexecFinishRotation @6137
    intAControllerexecInLatentExecution @6138
    intAControllerexecLineOfSightTo @6139
    intAControllerexecMoveTo @6140
    intAControllerexecMoveToward @6141
    intAControllerexecPickAnyTarget @6142
    intAControllerexecPickTarget @6143
    intAControllerexecPickWallAdjust @6144
    intAControllerexecPollFinishRotation @6145
    intAControllerexecPollMoveTo @6146
    intAControllerexecPollMoveToward @6147
    intAControllerexecPollWaitForLanding @6148
    intAControllerexecRemoveController @6149
    intAControllerexecStopWaiting @6150
    intAControllerexecWaitForLanding @6151
    intAControllerexecactorReachable @6152
    intAControllerexecpointReachable @6153
    intAEmitterexecKill @6154
    intAFluidSurfaceInfoexecPling @6155
    intAGameInfoexecAbortScoreSubmission @6156
    intAGameInfoexecGetCurrentMapNum @6157
    intAGameInfoexecGetNetworkNumber @6158
    intAGameInfoexecParseKillMessage @6159
    intAGameInfoexecProcessR6Availabilty @6160
    intAGameInfoexecSetCurrentMapNum @6161
    intAHUDexecDraw3DLine @6162
    intAKConstraintexecKGetConstraintForce @6163
    intAKConstraintexecKGetConstraintTorque @6164
    intAKConstraintexecKUpdateConstraintParams @6165
    intALevelInfoexecAddEncodedWritableMapStrip @6166
    intALevelInfoexecAddWritableMapIcon @6167
    intALevelInfoexecAddWritableMapPoint @6168
    intALevelInfoexecCallLogThisActor @6169
    intALevelInfoexecFinalizeLoading @6170
    intALevelInfoexecGetAddressURL @6171
    intALevelInfoexecGetLocalURL @6172
    intALevelInfoexecGetMapNameLocalisation @6173
    intALevelInfoexecNotifyMatchStart @6174
    intALevelInfoexecPBNotifyServerTravel @6175
    intALevelInfoexecResetLevelInNative @6176
    intALevelInfoexecSetBankSound @6177
    intAPawnexecIsAlive @6178
    intAPawnexecIsEnemy @6179
    intAPawnexecIsFriend @6180
    intAPawnexecIsNeutral @6181
    intAPawnexecReachedDestination @6182
    intAPlayerControllerexecChangeInputSet @6183
    intAPlayerControllerexecChangeVolumeTypeLinear @6184
    intAPlayerControllerexecClientHearSound @6185
    intAPlayerControllerexecClientTravel @6186
    intAPlayerControllerexecConsoleCommand @6187
    intAPlayerControllerexecCopyToClipboard @6188
    intAPlayerControllerexecFindStairRotation @6189
    intAPlayerControllerexecGetActionKey @6190
    intAPlayerControllerexecGetDefaultURL @6191
    intAPlayerControllerexecGetEntryLevel @6192
    intAPlayerControllerexecGetEnumName @6193
    intAPlayerControllerexecGetKey @6194
    intAPlayerControllerexecGetPBConnectStatus @6195
    intAPlayerControllerexecGetPlayerNetworkAddress @6196
    intAPlayerControllerexecIsPBEnabled @6197
    intAPlayerControllerexecPB_CanPlayerSpawn @6198
    intAPlayerControllerexecPasteFromClipboard @6199
    intAPlayerControllerexecResetKeyboard @6200
    intAPlayerControllerexecSetKey @6201
    intAPlayerControllerexecSetSoundOptions @6202
    intAPlayerControllerexecSetViewTarget @6203
    intAPlayerControllerexecSpecialDestroy @6204
    intAPlayerControllerexecUpdateURL @6205
    intAProjectorexecAbandonProjector @6206
    intAProjectorexecAttachActor @6207
    intAProjectorexecAttachProjector @6208
    intAProjectorexecDetachActor @6209
    intAProjectorexecDetachProjector @6210
    intAR6ColBoxexecEnableCollision @6211
    intAR6DecalGroupexecActivateGroup @6212
    intAR6DecalGroupexecAddDecal @6213
    intAR6DecalGroupexecDeActivateGroup @6214
    intAR6DecalGroupexecKillDecal @6215
    intAR6DecalManagerexecAddDecal @6216
    intAR6DecalManagerexecKillDecal @6217
    intAR6eviLTestingexecNativeRunAllTests @6218
    intASceneManagerexecGetTotalSceneTime @6219
    intASceneManagerexecSceneDestroyed @6220
    intASceneManagerexecTerminateAIAction @6221
    intAStatLogFileexecCloseLog @6222
    intAStatLogFileexecFileFlush @6223
    intAStatLogFileexecFileLog @6224
    intAStatLogFileexecGetChecksum @6225
    intAStatLogFileexecOpenLog @6226
    intAStatLogFileexecWatermark @6227
    intAStatLogexecBatchLocal @6228
    intAStatLogexecBrowseRelativeLocalURL @6229
    intAStatLogexecExecuteLocalLogBatcher @6230
    intAStatLogexecExecuteSilentLogBatcher @6231
    intAStatLogexecExecuteWorldLogBatcher @6232
    intAStatLogexecGetGMTRef @6233
    intAStatLogexecGetMapFileName @6234
    intAStatLogexecGetPlayerChecksum @6235
    intAStatLogexecInitialCheck @6236
    intAVolumeexecEncompasses @6237
    intAWarpZoneInfoexecUnWarp @6238
    intAWarpZoneInfoexecWarp @6239
    intAZoneInfoexecZoneActors @6240
    intUCanvasexecClipTextNative @6241
    intUCanvasexecDraw3DLine @6242
    intUCanvasexecDrawActor @6243
    intUCanvasexecDrawPortal @6244
    intUCanvasexecDrawStretchedTextureSegmentNative @6245
    intUCanvasexecDrawText @6246
    intUCanvasexecDrawTextClipped @6247
    intUCanvasexecDrawTile @6248
    intUCanvasexecDrawTileClipped @6249
    intUCanvasexecDrawWritableMap @6250
    intUCanvasexecGetScreenCoordinate @6251
    intUCanvasexecSetClip @6252
    intUCanvasexecSetDrawColor @6253
    intUCanvasexecSetMotionBlurIntensity @6254
    intUCanvasexecSetOrigin @6255
    intUCanvasexecSetPos @6256
    intUCanvasexecStrLen @6257
    intUCanvasexecTextSize @6258
    intUCanvasexecUseVirtualSize @6259
    intUCanvasexecVideoClose @6260
    intUCanvasexecVideoOpen @6261
    intUCanvasexecVideoPlay @6262
    intUCanvasexecVideoStop @6263
    intUInteractionMasterexecTravel @6264
    intUInteractionexecConsoleCommand @6265
    intUInteractionexecInitialize @6266
    intUInteractionexecScreenToWorld @6267
    intUInteractionexecWorldToScreen @6268
    intUParticleEmitterexecSpawnParticle @6269
    intUR6AbstractGameManagerexecClientLeaveServer @6270
    intUR6AbstractGameManagerexecConnectionInterrupted @6271
    intUR6AbstractGameManagerexecIsGSCreateUbiServer @6272
    intUR6AbstractGameManagerexecLaunchListenSrv @6273
    intUR6AbstractGameManagerexecSetGSCreateUbiServer @6274
    intUR6AbstractGameManagerexecStartJoinServer @6275
    intUR6AbstractGameManagerexecStartLogInProcedure @6276
    intUR6AbstractGameManagerexecStartPreJoinProcedure @6277
    intUR6AbstractGameManagerexecStopGSClientProcedure @6278
    intUR6FileManagerexecDeleteFile @6279
    intUR6FileManagerexecFindFile @6280
    intUR6FileManagerexecGetFileName @6281
    intUR6FileManagerexecGetNbFile @6282
    intUR6ModMgrexecAddNewModExtraPath @6283
    intUR6ModMgrexecCallSndEngineInit @6284
    intUR6ModMgrexecGetASBuildVersion @6285
    intUR6ModMgrexecGetIWBuildVersion @6286
    intUR6ModMgrexecIsOfficialMod @6287
    intUR6ModMgrexecSetGeneralModSettings @6288
    intUR6ModMgrexecSetSystemMod @6289
    pb_Export @6290
