LIBRARY R6Abstract
EXPORTS
    ??0AR6AbstractBullet@@IAE@XZ @1
    ??0AR6AbstractBullet@@QAE@ABV0@@Z @2
    ??0AR6AbstractCorpse@@QAE@ABV0@@Z @3
    ??0AR6AbstractCorpse@@QAE@XZ @4
    ??0AR6AbstractExtractionZone@@QAE@ABV0@@Z @5
    ??0AR6AbstractExtractionZone@@QAE@XZ @6
    ??0AR6AbstractFirstPersonWeapon@@IAE@XZ @7
    ??0AR6AbstractFirstPersonWeapon@@QAE@ABV0@@Z @8
    ??0AR6AbstractGadget@@QAE@ABV0@@Z @9
    ??0AR6AbstractGadget@@QAE@XZ @10
    ??0AR6AbstractGameInfo@@IAE@XZ @11
    ??0AR6AbstractGameInfo@@QAE@ABV0@@Z @12
    ??0AR6AbstractHUD@@IAE@XZ @13
    ??0AR6AbstractHUD@@QAE@ABV0@@Z @14
    ??0AR6AbstractInsertionZone@@QAE@ABV0@@Z @15
    ??0AR6AbstractInsertionZone@@QAE@XZ @16
    ??0AR6AbstractPawn@@IAE@XZ @17
    ??0AR6AbstractPawn@@QAE@ABV0@@Z @18
    ??0AR6AbstractWeapon@@QAE@ABV0@@Z @19
    ??0AR6AbstractWeapon@@QAE@XZ @20
    ??0UR6AbstractEviLPatchService@@QAE@ABV0@@Z @21
    ??0UR6AbstractEviLPatchService@@QAE@XZ @22
    ??0UR6AbstractGameService@@QAE@ABV0@@Z @23
    ??0UR6AbstractGameService@@QAE@XZ @24
    ??0UR6AbstractNoiseMgr@@IAE@XZ @25
    ??0UR6AbstractNoiseMgr@@QAE@ABV0@@Z @26
    ??1AR6AbstractBullet@@UAE@XZ @27
    ??1AR6AbstractCorpse@@UAE@XZ @28
    ??1AR6AbstractExtractionZone@@UAE@XZ @29
    ??1AR6AbstractFirstPersonWeapon@@UAE@XZ @30
    ??1AR6AbstractGadget@@UAE@XZ @31
    ??1AR6AbstractGameInfo@@UAE@XZ @32
    ??1AR6AbstractHUD@@UAE@XZ @33
    ??1AR6AbstractInsertionZone@@UAE@XZ @34
    ??1AR6AbstractPawn@@UAE@XZ @35
    ??1AR6AbstractWeapon@@UAE@XZ @36
    ??1UR6AbstractEviLPatchService@@UAE@XZ @37
    ??1UR6AbstractGameService@@UAE@XZ @38
    ??1UR6AbstractNoiseMgr@@UAE@XZ @39
    ??2AR6AbstractBullet@@SAPAXIPAVUObject@@VFName@@K@Z @40
    ??2AR6AbstractBullet@@SAPAXIPAW4EInternal@@@Z @41
    ??2AR6AbstractCorpse@@SAPAXIPAVUObject@@VFName@@K@Z @42
    ??2AR6AbstractCorpse@@SAPAXIPAW4EInternal@@@Z @43
    ??2AR6AbstractExtractionZone@@SAPAXIPAVUObject@@VFName@@K@Z @44
    ??2AR6AbstractExtractionZone@@SAPAXIPAW4EInternal@@@Z @45
    ??2AR6AbstractFirstPersonWeapon@@SAPAXIPAVUObject@@VFName@@K@Z @46
    ??2AR6AbstractFirstPersonWeapon@@SAPAXIPAW4EInternal@@@Z @47
    ??2AR6AbstractGadget@@SAPAXIPAVUObject@@VFName@@K@Z @48
    ??2AR6AbstractGadget@@SAPAXIPAW4EInternal@@@Z @49
    ??2AR6AbstractGameInfo@@SAPAXIPAVUObject@@VFName@@K@Z @50
    ??2AR6AbstractGameInfo@@SAPAXIPAW4EInternal@@@Z @51
    ??2AR6AbstractHUD@@SAPAXIPAVUObject@@VFName@@K@Z @52
    ??2AR6AbstractHUD@@SAPAXIPAW4EInternal@@@Z @53
    ??2AR6AbstractInsertionZone@@SAPAXIPAVUObject@@VFName@@K@Z @54
    ??2AR6AbstractInsertionZone@@SAPAXIPAW4EInternal@@@Z @55
    ??2AR6AbstractPawn@@SAPAXIPAVUObject@@VFName@@K@Z @56
    ??2AR6AbstractPawn@@SAPAXIPAW4EInternal@@@Z @57
    ??2AR6AbstractWeapon@@SAPAXIPAVUObject@@VFName@@K@Z @58
    ??2AR6AbstractWeapon@@SAPAXIPAW4EInternal@@@Z @59
    ??2UR6AbstractEviLPatchService@@SAPAXIPAVUObject@@VFName@@K@Z @60
    ??2UR6AbstractEviLPatchService@@SAPAXIPAW4EInternal@@@Z @61
    ??2UR6AbstractGameService@@SAPAXIPAVUObject@@VFName@@K@Z @62
    ??2UR6AbstractGameService@@SAPAXIPAW4EInternal@@@Z @63
    ??2UR6AbstractNoiseMgr@@SAPAXIPAVUObject@@VFName@@K@Z @64
    ??2UR6AbstractNoiseMgr@@SAPAXIPAW4EInternal@@@Z @65
    ??4AR6AbstractBullet@@QAEAAV0@ABV0@@Z @66
    ??4AR6AbstractCorpse@@QAEAAV0@ABV0@@Z @67
    ??4AR6AbstractExtractionZone@@QAEAAV0@ABV0@@Z @68
    ??4AR6AbstractFirstPersonWeapon@@QAEAAV0@ABV0@@Z @69
    ??4AR6AbstractGadget@@QAEAAV0@ABV0@@Z @70
    ??4AR6AbstractGameInfo@@QAEAAV0@ABV0@@Z @71
    ??4AR6AbstractHUD@@QAEAAV0@ABV0@@Z @72
    ??4AR6AbstractInsertionZone@@QAEAAV0@ABV0@@Z @73
    ??4AR6AbstractPawn@@QAEAAV0@ABV0@@Z @74
    ??4AR6AbstractWeapon@@QAEAAV0@ABV0@@Z @75
    ??4UR6AbstractEviLPatchService@@QAEAAV0@ABV0@@Z @76
    ??4UR6AbstractGameService@@QAEAAV0@ABV0@@Z @77
    ??4UR6AbstractNoiseMgr@@QAEAAV0@ABV0@@Z @78
    ??_7AR6AbstractBullet@@6B@ @79
    ??_7AR6AbstractCorpse@@6B@ @80
    ??_7AR6AbstractExtractionZone@@6B@ @81
    ??_7AR6AbstractFirstPersonWeapon@@6B@ @82
    ??_7AR6AbstractGadget@@6B@ @83
    ??_7AR6AbstractGameInfo@@6B@ @84
    ??_7AR6AbstractHUD@@6B@ @85
    ??_7AR6AbstractInsertionZone@@6B@ @86
    ??_7AR6AbstractPawn@@6B@ @87
    ??_7AR6AbstractWeapon@@6B@ @88
    ??_7UR6AbstractEviLPatchService@@6B@ @89
    ??_7UR6AbstractGameService@@6B@ @90
    ??_7UR6AbstractNoiseMgr@@6B@ @91
    ?AddImpulseToBone@AR6AbstractCorpse@@UAEXHVFVector@@@Z @92
    ?CDKeyDisconnecUser@UR6AbstractGameService@@UAEXVFString@@@Z @93
    ?CheckForErrors@AR6AbstractExtractionZone@@UAEXXZ @94
    ?CheckForErrors@AR6AbstractInsertionZone@@UAEXXZ @95
    ?Created@UR6AbstractGameService@@UAEXXZ @96
    ?DisconnectAllCDKeyPlayers@UR6AbstractGameService@@UAEXXZ @97
    ?FirstInit@AR6AbstractCorpse@@UAEXPAVAR6AbstractPawn@@@Z @98
    ?GSClientPostMessage@UR6AbstractGameService@@UAEXE@Z @99
    ?GameServiceManager@UR6AbstractGameService@@UAEXHHHH@Z @100
    ?GetAuthID@UR6AbstractGameService@@UAE?AVFString@@H@Z @101
    ?GetGSGameState@UR6AbstractGameService@@UAEEXZ @102
    ?GetGroupID@UR6AbstractGameService@@UAEHXZ @103
    ?GetLobbyID@UR6AbstractGameService@@UAEHXZ @104
    ?GetLoggedInUbiDotCom@UR6AbstractGameService@@UAEHXZ @105
    ?GetLoginRegServer@UR6AbstractGameService@@UAEEXZ @106
    ?GetOptimizedRepList@AR6AbstractGadget@@UAEPAHPAEPAUFPropertyRetirement@@PAHPAVUPackageMap@@PAVUActorChannel@@@Z @107
    ?GetRegServerInitialized@UR6AbstractGameService@@UAEHXZ @108
    ?GetServerRegistered@UR6AbstractGameService@@UAEHXZ @109
    ?InitGSCDKey@UR6AbstractGameService@@UAEHXZ @110
    ?InitGSClient@UR6AbstractGameService@@UAEHXZ @111
    ?InternalConstructor@AR6AbstractBullet@@SAXPAX@Z @112
    ?InternalConstructor@AR6AbstractCorpse@@SAXPAX@Z @113
    ?InternalConstructor@AR6AbstractExtractionZone@@SAXPAX@Z @114
    ?InternalConstructor@AR6AbstractFirstPersonWeapon@@SAXPAX@Z @115
    ?InternalConstructor@AR6AbstractGadget@@SAXPAX@Z @116
    ?InternalConstructor@AR6AbstractGameInfo@@SAXPAX@Z @117
    ?InternalConstructor@AR6AbstractHUD@@SAXPAX@Z @118
    ?InternalConstructor@AR6AbstractInsertionZone@@SAXPAX@Z @119
    ?InternalConstructor@AR6AbstractPawn@@SAXPAX@Z @120
    ?InternalConstructor@AR6AbstractWeapon@@SAXPAX@Z @121
    ?InternalConstructor@UR6AbstractEviLPatchService@@SAXPAX@Z @122
    ?InternalConstructor@UR6AbstractGameService@@SAXPAX@Z @123
    ?InternalConstructor@UR6AbstractNoiseMgr@@SAXPAX@Z @124
    ?IsMSClientIsInRequest@UR6AbstractGameService@@UAEHXZ @125
    ?IsServerJoined@UR6AbstractGameService@@UAEHXZ @126
    ?MSCLientLeaveServer@UR6AbstractGameService@@UAEHXZ @127
    ?MasterServerManager@UR6AbstractGameService@@UAEXPAVAR6AbstractGameInfo@@PAVALevelInfo@@@Z @128
    ?PostNetReceive@AR6AbstractWeapon@@UAEXXZ @129
    ?PreNetReceive@AR6AbstractWeapon@@UAEXXZ @130
    ?PrivateStaticClass@AR6AbstractBullet@@0VUClass@@A @131
    ?PrivateStaticClass@AR6AbstractCorpse@@0VUClass@@A @132
    ?PrivateStaticClass@AR6AbstractExtractionZone@@0VUClass@@A @133
    ?PrivateStaticClass@AR6AbstractFirstPersonWeapon@@0VUClass@@A @134
    ?PrivateStaticClass@AR6AbstractGadget@@0VUClass@@A @135
    ?PrivateStaticClass@AR6AbstractGameInfo@@0VUClass@@A @136
    ?PrivateStaticClass@AR6AbstractHUD@@0VUClass@@A @137
    ?PrivateStaticClass@AR6AbstractInsertionZone@@0VUClass@@A @138
    ?PrivateStaticClass@AR6AbstractPawn@@0VUClass@@A @139
    ?PrivateStaticClass@AR6AbstractWeapon@@0VUClass@@A @140
    ?PrivateStaticClass@UR6AbstractEviLPatchService@@0VUClass@@A @141
    ?PrivateStaticClass@UR6AbstractGameService@@0VUClass@@A @142
    ?PrivateStaticClass@UR6AbstractNoiseMgr@@0VUClass@@A @143
    ?ProcessIsLobbyDisconnect@UR6AbstractGameService@@UAEXPAM@Z @144
    ?ProcessIsRouterDisconnect@UR6AbstractGameService@@UAEXPAM@Z @145
    ?ProcessJoinServer@UR6AbstractGameService@@UAEXPAM@Z @146
    ?ProcessLoginMasterSrv@UR6AbstractGameService@@UAEXHPAM@Z @147
    ?ProcessUbiComJoinServer@UR6AbstractGameService@@UAEXHHVFString@@PAM@Z @148
    ?R6ABSTRACT_GetSkill@@3VFName@@A @149
    ?R6ABSTRACT_R6MakeNoise@@3VFName@@A @150
    ?R6ABSTRACT_SpawnSelectedGadget@@3VFName@@A @151
    ?RenderBones@AR6AbstractCorpse@@UAEXPAVUCanvas@@@Z @152
    ?RequestGSCDKeyAuthID@UR6AbstractGameService@@UAEXXZ @153
    ?RequestModCDKeyProcess@UR6AbstractGameService@@UAEXH@Z @154
    ?ResetAuthId@UR6AbstractGameService@@UAEXXZ @155
    ?ServerRoundFinish@UR6AbstractGameService@@UAEXXZ @156
    ?ServerRoundStart@UR6AbstractGameService@@UAEXH@Z @157
    ?SetFunctionPtr@UR6AbstractEviLPatchService@@QAEXP6AKXZ@Z @158
    ?SetGSClientComInterface@UR6AbstractGameService@@UAEHXZ @159
    ?SetGSGameState@UR6AbstractGameService@@UAEXE@Z @160
    ?SetGameServiceRequestState@UR6AbstractGameService@@UAEXE@Z @161
    ?SetLoginRegServer@UR6AbstractGameService@@UAEXE@Z @162
    ?SetOwnSvrPort@UR6AbstractGameService@@UAEXH@Z @163
    ?SetRegServerLoginRequest@UR6AbstractGameService@@UAEXE@Z @164
    ?StaticClass@AR6AbstractBullet@@SAPAVUClass@@XZ @165
    ?StaticClass@AR6AbstractCorpse@@SAPAVUClass@@XZ @166
    ?StaticClass@AR6AbstractExtractionZone@@SAPAVUClass@@XZ @167
    ?StaticClass@AR6AbstractFirstPersonWeapon@@SAPAVUClass@@XZ @168
    ?StaticClass@AR6AbstractGadget@@SAPAVUClass@@XZ @169
    ?StaticClass@AR6AbstractGameInfo@@SAPAVUClass@@XZ @170
    ?StaticClass@AR6AbstractHUD@@SAPAVUClass@@XZ @171
    ?StaticClass@AR6AbstractInsertionZone@@SAPAVUClass@@XZ @172
    ?StaticClass@AR6AbstractPawn@@SAPAVUClass@@XZ @173
    ?StaticClass@AR6AbstractWeapon@@SAPAVUClass@@XZ @174
    ?StaticClass@UR6AbstractEviLPatchService@@SAPAVUClass@@XZ @175
    ?StaticClass@UR6AbstractGameService@@SAPAVUClass@@XZ @176
    ?StaticClass@UR6AbstractNoiseMgr@@SAPAVUClass@@XZ @177
    ?SubmitMatchResult@UR6AbstractGameService@@UAEXXZ @178
    ?UnInitializeGSClientSPW@UR6AbstractGameService@@QAEXXZ @179
    ?eventGetSkill@AR6AbstractPawn@@QAEME@Z @180
    ?eventR6MakeNoise@UR6AbstractNoiseMgr@@QAEXEPAVAActor@@@Z @181
    ?eventSpawnSelectedGadget@AR6AbstractWeapon@@QAEXXZ @182
    ?execAddImpulseToBone@AR6AbstractCorpse@@QAEXAAUFFrame@@QAX@Z @183
    ?execFirstInit@AR6AbstractCorpse@@QAEXAAUFFrame@@QAX@Z @184
    ?execGetState@UR6AbstractEviLPatchService@@QAEXAAUFFrame@@QAX@Z @185
    ?execNativeSubmitMatchResult@UR6AbstractGameService@@QAEXAAUFFrame@@QAX@Z @186
    ?execRenderBones@AR6AbstractCorpse@@QAEXAAUFFrame@@QAX@Z @187
    GPackage @189
    _DllMain@12 @188
    autoclassAR6AbstractBullet @190
    autoclassAR6AbstractCorpse @191
    autoclassAR6AbstractExtractionZone @192
    autoclassAR6AbstractFirstPersonWeapon @193
    autoclassAR6AbstractGadget @194
    autoclassAR6AbstractGameInfo @195
    autoclassAR6AbstractHUD @196
    autoclassAR6AbstractInsertionZone @197
    autoclassAR6AbstractPawn @198
    autoclassAR6AbstractWeapon @199
    autoclassUR6AbstractEviLPatchService @200
    autoclassUR6AbstractGameService @201
    autoclassUR6AbstractNoiseMgr @202
    intAR6AbstractCorpseexecAddImpulseToBone @203
    intAR6AbstractCorpseexecFirstInit @204
    intAR6AbstractCorpseexecRenderBones @205
    intUR6AbstractEviLPatchServiceexecGetState @206
    intUR6AbstractGameServiceexecNativeSubmitMatchResult @207
