; D3DDrv.def — Module definition file for D3DDrv.dll
; 44 exports, ordinal base 1.
; Ordinals verified against retail D3DDrv.dll (timestamp 41657A1A, Oct 8 2004).

LIBRARY D3DDrv
EXPORTS
    ??0UD3DRenderDevice@@QAE@ABV0@@Z                                                @1
    ??0UD3DRenderDevice@@QAE@XZ                                                     @2
    ??1UD3DRenderDevice@@UAE@XZ                                                     @3
    ??2UD3DRenderDevice@@SAPAXIPAVUObject@@VFName@@K@Z                              @4
    ??2UD3DRenderDevice@@SAPAXIPAW4EInternal@@@Z                                    @5
    ??4UD3DRenderDevice@@QAEAAV0@ABV0@@Z                                            @6
    ; @7  ??_7UD3DRenderDevice@@6BFExec@@@   — vtable (linker-generated)
    ; @8  ??_7UD3DRenderDevice@@6BUObject@@@ — vtable (linker-generated)
    ?ChangeDrawingSurface@UD3DRenderDevice@@UAEXW4ER6SwitchSurface@@H@Z             @9
    ?CloseVideo@UD3DRenderDevice@@UAEXPAVUCanvas@@@Z                                @10
    ?DisplayVideo@UD3DRenderDevice@@UAEXPAVUCanvas@@PAXH@Z                         @11
    ?Draw3DLine@UD3DRenderDevice@@UAEXVFVector@@0VFColor@@PAVUTexture@@MMMM@Z      @12
    ?Exec@UD3DRenderDevice@@UAEHPBGAAVFOutputDevice@@@Z                             @13
    ?Exit@UD3DRenderDevice@@UAEXPAVUViewport@@@Z                                    @14
    ?Flush@UD3DRenderDevice@@UAEXPAVUViewport@@@Z                                  @15
    ?FlushResource@UD3DRenderDevice@@UAEX_K@Z                                      @16
    ?GetAvailableResolutions@UD3DRenderDevice@@UAEXAAV?$TArray@UFResolutionInfo@@@@@Z @17
    ?GetAvailableVideoMemory@UD3DRenderDevice@@UAEKXZ                               @18
    ?GetCachedResource@UD3DRenderDevice@@QAEPAVFD3DResource@@_K@Z                  @19
    ?GetPixelShader@UD3DRenderDevice@@QAEPAVFD3DPixelShader@@W4EPixelShader@@@Z    @20
    ?GetRenderCaps@UD3DRenderDevice@@UAEPAUFRenderCaps@@XZ                         @21
    ?GetVertexShader@UD3DRenderDevice@@QAEPAVFD3DVertexShader@@W4EVertexShader@@AAUFShaderDeclaration@@@Z @22
    ?HandleFullScreenEffects@UD3DRenderDevice@@UAEXHH@Z                             @23
    ?Init@UD3DRenderDevice@@UAEHXZ                                                  @24
    ?InternalConstructor@UD3DRenderDevice@@SAXPAX@Z                                 @25
    ?Lock@UD3DRenderDevice@@UAEPAVFRenderInterface@@PAVUViewport@@PAEPAH@Z          @26
    ?OpenVideo@UD3DRenderDevice@@UAEHPAVUCanvas@@PAD1H@Z                            @27
    ?Present@UD3DRenderDevice@@UAEXPAVUViewport@@@Z                                 @28
    ?PrivateStaticClass@UD3DRenderDevice@@0VUClass@@A                               @29
    ?ReadPixels@UD3DRenderDevice@@UAEXPAVUViewport@@PAVFColor@@@Z                   @30
    ?RestoreGamma@UD3DRenderDevice@@UAEXXZ                                          @31
    ?SetEmulationMode@UD3DRenderDevice@@UAEXW4EHardwareEmulationMode@@@Z            @32
    ?SetRes@UD3DRenderDevice@@UAEHPAVUViewport@@HHH@Z                               @33
    ?StartVideo@UD3DRenderDevice@@UAEXPAVUCanvas@@HHH@Z                             @34
    ?StaticClass@UD3DRenderDevice@@SAPAVUClass@@XZ                                  @35
    ?StaticConstructor@UD3DRenderDevice@@QAEXXZ                                     @36
    ?StopVideo@UD3DRenderDevice@@UAEXPAVUCanvas@@@Z                                 @37
    ?SupportsTextureFormat@UD3DRenderDevice@@UAEHW4ETextureFormat@@@Z              @38
    ?UnSetRes@UD3DRenderDevice@@QAEHPBGJ@Z                                          @39
    ?Unlock@UD3DRenderDevice@@UAEXPAVFRenderInterface@@@Z                           @40
    ?UpdateGamma@UD3DRenderDevice@@UAEXPAVUViewport@@@Z                             @41
    GPackage                                                                        @42 NONAME
    _DllMain@12                                                                     @43
    autoclassUD3DRenderDevice                                                       @44
