LIBRARY R6GameService
EXPORTS
    ??0UR6GSServers@@QAE@ABV0@@Z @1
    ??0UR6GSServers@@QAE@XZ @2
    ??0UR6LanServers@@IAE@XZ @3
    ??0UR6LanServers@@QAE@ABV0@@Z @4
    ??0UR6ModGSInfo@@QAE@ABV0@@Z @5
    ??0UR6ModGSInfo@@QAE@XZ @6
    ??0UR6ServerList@@QAE@ABV0@@Z @7
    ??0UR6ServerList@@QAE@XZ @8
    ??0UeviLPatchService@@QAE@ABV0@@Z @9
    ??0UeviLPatchService@@QAE@XZ @10
    ??1UR6GSServers@@UAE@XZ @11
    ??1UR6LanServers@@UAE@XZ @12
    ??1UR6ModGSInfo@@UAE@XZ @13
    ??1UR6ServerList@@UAE@XZ @14
    ??1UeviLPatchService@@UAE@XZ @15
    ??2UR6GSServers@@SAPAXIPAVUObject@@VFName@@K@Z @16
    ??2UR6GSServers@@SAPAXIPAW4EInternal@@@Z @17
    ??2UR6LanServers@@SAPAXIPAVUObject@@VFName@@K@Z @18
    ??2UR6LanServers@@SAPAXIPAW4EInternal@@@Z @19
    ??2UR6ModGSInfo@@SAPAXIPAVUObject@@VFName@@K@Z @20
    ??2UR6ModGSInfo@@SAPAXIPAW4EInternal@@@Z @21
    ??2UR6ServerList@@SAPAXIPAVUObject@@VFName@@K@Z @22
    ??2UR6ServerList@@SAPAXIPAW4EInternal@@@Z @23
    ??2UeviLPatchService@@SAPAXIPAVUObject@@VFName@@K@Z @24
    ??2UeviLPatchService@@SAPAXIPAW4EInternal@@@Z @25
    ??4UR6GSServers@@QAEAAV0@ABV0@@Z @26
    ??4UR6LanServers@@QAEAAV0@ABV0@@Z @27
    ??4UR6ModGSInfo@@QAEAAV0@ABV0@@Z @28
    ??4UR6ServerList@@QAEAAV0@ABV0@@Z @29
    ??4UeviLPatchService@@QAEAAV0@ABV0@@Z @30
    ??_7UR6GSServers@@6B@ @31
    ??_7UR6LanServers@@6B@ @32
    ??_7UR6ModGSInfo@@6B@ @33
    ??_7UR6ServerList@@6B@ @34
    ??_7UeviLPatchService@@6B@ @35
    ?AddPlayerToIDList@UR6GSServers@@QAEXVFString@@00H@Z @36
    ?CDKeyDisconnecUser@UR6GSServers@@UAEXVFString@@@Z @37
    ?CDKeyValidateUser@UR6GSServers@@QAEHVFString@@HH@Z @38
    ?CancelGSCDKeyActID@UR6GSServers@@QAEXXZ @39
    ?CancelGSCDKeyAuthID@UR6GSServers@@QAEXXZ @40
    ?CopyActivationIDInByteArray@UR6GSServers@@QAEXPAE0@Z @41
    ?CreatedCDKey@UR6GSServers@@QAEXXZ @42
    ?Destroy@UR6GSServers@@UAEXXZ @43
    ?DisconnectAllCDKeyPlayers@UR6GSServers@@UAEXXZ @44
    ?EnterCDKey@UR6GSServers@@QAEXVFString@@@Z @45
    ?FillSvrContainer@UR6ServerList@@QAEXXZ @46
    ?FinalDestroy@UeviLPatchService@@SAXXZ @47
    ?GSClientPostMessage@UR6GSServers@@UAEXE@Z @48
    ?GSClientUpdateServerInfo@UR6GSServers@@QAEXXZ @49
    ?GameServiceManager@UR6GSServers@@UAEXHHHH@Z @50
    ?GetAuthID@UR6GSServers@@UAE?AVFString@@H@Z @51
    ?GetGSGameState@UR6GSServers@@UAEEXZ @52
    ?GetGlobalIdFromPlayerIDList@UR6GSServers@@QAE?AVFString@@V2@@Z @53
    ?GetGroupID@UR6ServerList@@UAEHXZ @54
    ?GetLobbyID@UR6ServerList@@UAEHXZ @55
    ?GetLoggedInUbiDotCom@UR6GSServers@@UAEHXZ @56
    ?GetLoginRegServer@UR6GSServers@@UAEEXZ @57
    ?GetPatchServiceState@UeviLPatchService@@SAKXZ @58
    ?GetRegServerInitialized@UR6GSServers@@UAEHXZ @59
    ?GetServerRegistered@UR6GSServers@@UAEHXZ @60
    ?Init@UR6GSServers@@QAEXVFString@@@Z @61
    ?InitCDKey@UR6GSServers@@QAEXHH@Z @62
    ?InitFavorites@UR6ServerList@@QAEXXZ @63
    ?InitGSCDKey@UR6GSServers@@UAEHXZ @64
    ?InitGSClient@UR6GSServers@@UAEHXZ @65
    ?InitMODCDKey@UR6ModGSInfo@@QAEXXZ @66
    ?InitMSClient@UR6GSServers@@QAEXXZ @67
    ?InitProcessUpdateUbiServer@UR6GSServers@@QAEXPAVAGameInfo@@PAVALevelInfo@@@Z @68
    ?InitializeMSClient@UR6GSServers@@QAEHXZ @69
    ?InitializeRegServer@UR6GSServers@@QAEHXZ @70
    ?InternalConstructor@UR6GSServers@@SAXPAX@Z @71
    ?InternalConstructor@UR6LanServers@@SAXPAX@Z @72
    ?InternalConstructor@UR6ModGSInfo@@SAXPAX@Z @73
    ?InternalConstructor@UR6ServerList@@SAXPAX@Z @74
    ?InternalConstructor@UeviLPatchService@@SAXPAX@Z @75
    ?IsAuthIDSuccess@UR6GSServers@@QAEHXZ @76
    ?IsMSClientIsInRequest@UR6GSServers@@UAEHXZ @77
    ?IsServerJoined@UR6GSServers@@UAEHXZ @78
    ?LogGSVersion@UR6GSServers@@QAEXXZ @79
    ?LogOutServer@UR6GSServers@@QAEXXZ @80
    ?MSCLientJoinServer@UR6GSServers@@QAEXHHVFString@@@Z @81
    ?MSCLientLeaveServer@UR6GSServers@@UAEHXZ @82
    ?MSClientServerConnected@UR6GSServers@@QAEXHH@Z @83
    ?MasterServerManager@UR6GSServers@@UAEXPAVAR6AbstractGameInfo@@PAVALevelInfo@@@Z @84
    ?NativeCDKeyPlayerStatusReply@UR6GSServers@@QAEXVFString@@EH@Z @85
    ?OnSameSubNet@UR6GSServers@@QAEHVFString@@@Z @86
    ?PingRequest@UR6GSServers@@QAEXVFString@@0@Z @87
    ?PlayerIsInIDList@UR6GSServers@@QAEHVFString@@0H@Z @88
    ?PollCallbacks@UR6GSServers@@QAEXHHHH@Z @89
    ?PollClientCDKeyCallbacks@UR6GSServers@@QAEXHHH@Z @90
    ?PollGSClientCallbacks@UR6GSServers@@QAEXH@Z @91
    ?PollMSClientCallbacks@UR6GSServers@@QAEXH@Z @92
    ?PollPingManager@UR6GSServers@@QAEXH@Z @93
    ?PollRegServerCallbacks@UR6GSServers@@QAEXH@Z @94
    ?PrivateStaticClass@UR6GSServers@@0VUClass@@A @95
    ?PrivateStaticClass@UR6LanServers@@0VUClass@@A @96
    ?PrivateStaticClass@UR6ModGSInfo@@0VUClass@@A @97
    ?PrivateStaticClass@UR6ServerList@@0VUClass@@A @98
    ?PrivateStaticClass@UeviLPatchService@@0VUClass@@A @99
    ?ProcessAuthIdRequest@UR6GSServers@@QAEXPAVAController@@@Z @100
    ?ProcessInternetSrv@UR6GSServers@@QAEXPAVAR6AbstractGameInfo@@PAVALevelInfo@@@Z @101
    ?ProcessIsLobbyDisconnect@UR6GSServers@@UAEXPAM@Z @102
    ?ProcessIsRouterDisconnect@UR6GSServers@@UAEXPAM@Z @103
    ?ProcessJoinServer@UR6GSServers@@UAEXPAM@Z @104
    ?ProcessJoinServerRequest@UR6GSServers@@QAEXXZ @105
    ?ProcessLoginMasterSrv@UR6GSServers@@UAEXHPAM@Z @106
    ?ProcessMSClientInitRequest@UR6GSServers@@QAEXXZ @107
    ?ProcessPC_CDKeyRequest@UR6GSServers@@QAEXPAVAR6AbstractGameInfo@@PAVALevelInfo@@PAVAPlayerController@@H@Z @108
    ?ProcessRegServerGetLobbiesRequest@UR6GSServers@@QAEXXZ @109
    ?ProcessRegServerLoginRequest@UR6GSServers@@QAEXXZ @110
    ?ProcessRegServerLoginRouterRequest@UR6GSServers@@QAEXXZ @111
    ?ProcessRegServerRegOnLobbyRequest@UR6GSServers@@QAEXXZ @112
    ?ProcessRegServerUpdateRequest@UR6GSServers@@QAEXXZ @113
    ?ProcessSubmitMatchResultReply@UR6GSServers@@QAEXXZ @114
    ?ProcessUbiComJoinServer@UR6GSServers@@UAEXHHVFString@@PAM@Z @115
    ?R6GAMESERVICE_EndOfRoundDataSent@@3VFName@@A @116
    ?R6GAMESERVICE_FillCreateGameInfo@@3VFName@@A @117
    ?R6GAMESERVICE_GetConsoleStoreIP@@3VFName@@A @118
    ?R6GAMESERVICE_GetLobbyAndGroupID@@3VFName@@A @119
    ?R6GAMESERVICE_GetLocallyBoundIpAddr@@3VFName@@A @120
    ?R6GAMESERVICE_GetMaxAvailPorts@@3VFName@@A @121
    ?R6GAMESERVICE_HandleNewLobbyConnection@@3VFName@@A @122
    ?R6GAMESERVICE_InitializeMod@@3VFName@@A @123
    ?R6GAMESERVICE_IsGlobalIDBanned@@3VFName@@A @124
    ?R6GAMESERVICE_ProcessServerMsg@@3VFName@@A @125
    ?R6GAMESERVICE_TempGetPBConnectStatus@@3VFName@@A @126
    ?ReceiveAltInfo@UR6GSServers@@QAEHXZ @127
    ?ReceiveServer@UR6GSServers@@QAEHXZ @128
    ?ReceiveValidation@UR6GSServers@@QAEXXZ @129
    ?RefreshOneServer@UR6GSServers@@QAEXH@Z @130
    ?RefreshServers@UR6GSServers@@QAEXXZ @131
    ?RegServerGetLobbies@UR6GSServers@@QAEXXZ @132
    ?RegServerRouterLogin@UR6GSServers@@QAEXXZ @133
    ?RegisterServer@UR6GSServers@@QAEXXZ @134
    ?RequestActivation@UR6GSServers@@QAEXVFString@@H@Z @135
    ?RequestAuthorization@UR6GSServers@@QAEXH@Z @136
    ?RequestGSCDKeyActID@UR6GSServers@@QAEXXZ @137
    ?RequestGSCDKeyAuthID@UR6GSServers@@UAEXXZ @138
    ?RequestModCDKeyProcess@UR6GSServers@@UAEXH@Z @139
    ?ResetAuthId@UR6GSServers@@UAEXXZ @140
    ?ResetSvrContainer@UR6ServerList@@QAEXXZ @141
    ?RouterDisconnect@UR6GSServers@@QAEXXZ @142
    ?ServerLogin@UR6GSServers@@QAEXXZ @143
    ?ServerRoundFinish@UR6GSServers@@UAEXXZ @144
    ?ServerRoundStart@UR6GSServers@@UAEXH@Z @145
    ?SetGSClientComInterface@UR6GSServers@@UAEHXZ @146
    ?SetGSGameState@UR6GSServers@@UAEXE@Z @147
    ?SetGameServiceRequestState@UR6GSServers@@UAEXE@Z @148
    ?SetLoginRegServer@UR6GSServers@@UAEXE@Z @149
    ?SetOwnSvrPort@UR6ServerList@@UAEXH@Z @150
    ?SetRegServerLoginRequest@UR6GSServers@@UAEXE@Z @151
    ?StartPatch@UeviLPatchService@@QAEXXZ @152
    ?StaticClass@UR6GSServers@@SAPAVUClass@@XZ @153
    ?StaticClass@UR6LanServers@@SAPAVUClass@@XZ @154
    ?StaticClass@UR6ModGSInfo@@SAPAVUClass@@XZ @155
    ?StaticClass@UR6ServerList@@SAPAVUClass@@XZ @156
    ?StaticClass@UeviLPatchService@@SAPAVUClass@@XZ @157
    ?SubmitMatchResult@UR6GSServers@@UAEXXZ @158
    ?UnInitCDKey@UR6GSServers@@QAEXXZ @159
    ?UnInitMSClient@UR6GSServers@@QAEHXZ @160
    ?UnInitRegServer@UR6GSServers@@QAEXXZ @161
    ?UpdateServer@UR6GSServers@@QAEXXZ @162
    ?eventEndOfRoundDataSent@UR6GSServers@@QAEXXZ @163
    ?eventFillCreateGameInfo@UR6GSServers@@QAEXPAVAGameInfo@@PAVALevelInfo@@@Z @164
    ?eventGetConsoleStoreIP@UR6GSServers@@QAE?AVFString@@PAVAPlayerController@@@Z @165
    ?eventGetLobbyAndGroupID@UR6ServerList@@QAEXAAH0@Z @166
    ?eventGetLocallyBoundIpAddr@UR6GSServers@@QAE?AVFString@@XZ @167
    ?eventGetMaxAvailPorts@UR6GSServers@@QAEHXZ @168
    ?eventHandleNewLobbyConnection@UR6GSServers@@QAEXPAVALevelInfo@@@Z @169
    ?eventInitializeMod@UR6GSServers@@QAEXXZ @170
    ?eventIsGlobalIDBanned@UR6GSServers@@QAEKPAVAR6AbstractGameInfo@@ABVFString@@@Z @171
    ?eventProcessServerMsg@UR6GSServers@@QAEXPAVAPlayerController@@ABVFString@@@Z @172
    ?eventTempGetPBConnectStatus@UR6GSServers@@QAE?AVFString@@PAVAPlayerController@@@Z @173
    ?execAbortPatchService@UeviLPatchService@@QAEXAAUFFrame@@QAX@Z @174
    ?execCanRunUpdateService@UeviLPatchService@@QAEXAAUFFrame@@QAX@Z @175
    ?execEnterCDKey@UR6GSServers@@QAEXAAUFFrame@@QAX@Z @176
    ?execGetDisplayListSize@UR6ServerList@@QAEXAAUFFrame@@QAX@Z @177
    ?execGetDownloadProgress@UeviLPatchService@@QAEXAAUFFrame@@QAX@Z @178
    ?execGetExitCause@UeviLPatchService@@QAEXAAUFFrame@@QAX@Z @179
    ?execGetMaxUbiServerNameSize@UR6GSServers@@QAEXAAUFFrame@@QAX@Z @180
    ?execGetState@UeviLPatchService@@QAEXAAUFFrame@@QAX@Z @181
    ?execHandleAnyLobbyConnectionFail@UR6GSServers@@QAEXAAUFFrame@@QAX@Z @182
    ?execInitGSCDKey@UR6GSServers@@QAEXAAUFFrame@@QAX@Z @183
    ?execInitialize@UR6GSServers@@QAEXAAUFFrame@@QAX@Z @184
    ?execInitializeMSClient@UR6GSServers@@QAEXAAUFFrame@@QAX@Z @185
    ?execIsRefreshServersInProgress@UR6GSServers@@QAEXAAUFFrame@@QAX@Z @186
    ?execNativeGetMSClientInitialized@UR6GSServers@@QAEXAAUFFrame@@QAX@Z @187
    ?execNativeGetMaxPlayers@UR6ServerList@@QAEXAAUFFrame@@QAX@Z @188
    ?execNativeGetMilliSeconds@UR6ServerList@@QAEXAAUFFrame@@QAX@Z @189
    ?execNativeGetOwnSvrPort@UR6ServerList@@QAEXAAUFFrame@@QAX@Z @190
    ?execNativeGetPingTime@UR6ServerList@@QAEXAAUFFrame@@QAX@Z @191
    ?execNativeGetPingTimeOut@UR6ServerList@@QAEXAAUFFrame@@QAX@Z @192
    ?execNativeGetSeconds@UR6GSServers@@QAEXAAUFFrame@@QAX@Z @193
    ?execNativeInitFavorites@UR6ServerList@@QAEXAAUFFrame@@QAX@Z @194
    ?execNativeInitModInfo@UR6ModGSInfo@@QAEXAAUFFrame@@QAX@Z @195
    ?execNativeIsGSReadyToChangeMod@UR6GSServers@@QAEXAAUFFrame@@QAX@Z @196
    ?execNativeIsRouterDisconnect@UR6GSServers@@QAEXAAUFFrame@@QAX@Z @197
    ?execNativeIsWaitingForGSInit@UR6GSServers@@QAEXAAUFFrame@@QAX@Z @198
    ?execNativeLogOutServer@UR6GSServers@@QAEXAAUFFrame@@QAX@Z @199
    ?execNativeMSCLientJoinServer@UR6GSServers@@QAEXAAUFFrame@@QAX@Z @200
    ?execNativeMSClientReqAltInfo@UR6GSServers@@QAEXAAUFFrame@@QAX@Z @201
    ?execNativeProcessIcmpPing@UR6GSServers@@QAEXAAUFFrame@@QAX@Z @202
    ?execNativeSetMatchResult@UR6GSServers@@QAEXAAUFFrame@@QAX@Z @203
    ?execNativeUpdateFavorites@UR6ServerList@@QAEXAAUFFrame@@QAX@Z @204
    ?execNativeUpdateServer@UR6GSServers@@QAEXAAUFFrame@@QAX@Z @205
    ?execRefreshOneServer@UR6GSServers@@QAEXAAUFFrame@@QAX@Z @206
    ?execRefreshServers@UR6GSServers@@QAEXAAUFFrame@@QAX@Z @207
    ?execSetLastServerQueried@UR6GSServers@@QAEXAAUFFrame@@QAX@Z @208
    ?execSortServers@UR6ServerList@@QAEXAAUFFrame@@QAX@Z @209
    ?execStartPatch@UeviLPatchService@@QAEXAAUFFrame@@QAX@Z @210
    ?execStopRefreshServers@UR6GSServers@@QAEXAAUFFrame@@QAX@Z @211
    ?execUnInitializeMSClient@UR6GSServers@@QAEXAAUFFrame@@QAX@Z @212
    ?registerCDKeySDKCallbacks@UR6GSServers@@QAEXPAV1@PAX1@Z @213
    GPackage @215
    _DllMain@12 @214
    autoclassUR6GSServers @216
    autoclassUR6LanServers @217
    autoclassUR6ModGSInfo @218
    autoclassUR6ServerList @219
    autoclassUeviLPatchService @220
    intUR6GSServersexecEnterCDKey @221
    intUR6GSServersexecGetMaxUbiServerNameSize @222
    intUR6GSServersexecHandleAnyLobbyConnectionFail @223
    intUR6GSServersexecInitGSCDKey @224
    intUR6GSServersexecInitialize @225
    intUR6GSServersexecInitializeMSClient @226
    intUR6GSServersexecIsRefreshServersInProgress @227
    intUR6GSServersexecNativeGetMSClientInitialized @228
    intUR6GSServersexecNativeGetSeconds @229
    intUR6GSServersexecNativeIsGSReadyToChangeMod @230
    intUR6GSServersexecNativeIsRouterDisconnect @231
    intUR6GSServersexecNativeIsWaitingForGSInit @232
    intUR6GSServersexecNativeLogOutServer @233
    intUR6GSServersexecNativeMSCLientJoinServer @234
    intUR6GSServersexecNativeMSClientReqAltInfo @235
    intUR6GSServersexecNativeProcessIcmpPing @236
    intUR6GSServersexecNativeSetMatchResult @237
    intUR6GSServersexecNativeUpdateServer @238
    intUR6GSServersexecRefreshOneServer @239
    intUR6GSServersexecRefreshServers @240
    intUR6GSServersexecSetLastServerQueried @241
    intUR6GSServersexecStopRefreshServers @242
    intUR6GSServersexecUnInitializeMSClient @243
    intUR6ModGSInfoexecNativeInitModInfo @244
    intUR6ServerListexecGetDisplayListSize @245
    intUR6ServerListexecNativeGetMaxPlayers @246
    intUR6ServerListexecNativeGetMilliSeconds @247
    intUR6ServerListexecNativeGetOwnSvrPort @248
    intUR6ServerListexecNativeGetPingTime @249
    intUR6ServerListexecNativeGetPingTimeOut @250
    intUR6ServerListexecNativeInitFavorites @251
    intUR6ServerListexecNativeUpdateFavorites @252
    intUR6ServerListexecSortServers @253
    intUeviLPatchServiceexecAbortPatchService @254
    intUeviLPatchServiceexecCanRunUpdateService @255
    intUeviLPatchServiceexecGetDownloadProgress @256
    intUeviLPatchServiceexecGetExitCause @257
    intUeviLPatchServiceexecGetState @258
    intUeviLPatchServiceexecStartPatch @259
