LIBRARY R6Weapons
EXPORTS
    ??0AR6Bullet@@QAE@ABV0@@Z @1
    ??0AR6Bullet@@QAE@XZ @2
    ??0AR6DemolitionsGadget@@QAE@ABV0@@Z @3
    ??0AR6DemolitionsGadget@@QAE@XZ @4
    ??0AR6Gadget@@IAE@XZ @5
    ??0AR6Gadget@@QAE@ABV0@@Z @6
    ??0AR6Grenade@@QAE@ABV0@@Z @7
    ??0AR6Grenade@@QAE@XZ @8
    ??0AR6GrenadeWeapon@@IAE@XZ @9
    ??0AR6GrenadeWeapon@@QAE@ABV0@@Z @10
    ??0AR6HBSGadget@@QAE@ABV0@@Z @11
    ??0AR6HBSGadget@@QAE@XZ @12
    ??0AR6Reticule@@QAE@ABV0@@Z @13
    ??0AR6Reticule@@QAE@XZ @14
    ??0AR6SmokeCloud@@QAE@ABV0@@Z @15
    ??0AR6SmokeCloud@@QAE@XZ @16
    ??0AR6Weapons@@QAE@ABV0@@Z @17
    ??0AR6Weapons@@QAE@XZ @18
    ??1AR6Bullet@@UAE@XZ @19
    ??1AR6DemolitionsGadget@@UAE@XZ @20
    ??1AR6Gadget@@UAE@XZ @21
    ??1AR6Grenade@@UAE@XZ @22
    ??1AR6GrenadeWeapon@@UAE@XZ @23
    ??1AR6HBSGadget@@UAE@XZ @24
    ??1AR6Reticule@@UAE@XZ @25
    ??1AR6SmokeCloud@@UAE@XZ @26
    ??1AR6Weapons@@UAE@XZ @27
    ??2AR6Bullet@@SAPAXIPAVUObject@@VFName@@K@Z @28
    ??2AR6Bullet@@SAPAXIPAW4EInternal@@@Z @29
    ??2AR6DemolitionsGadget@@SAPAXIPAVUObject@@VFName@@K@Z @30
    ??2AR6DemolitionsGadget@@SAPAXIPAW4EInternal@@@Z @31
    ??2AR6Gadget@@SAPAXIPAVUObject@@VFName@@K@Z @32
    ??2AR6Gadget@@SAPAXIPAW4EInternal@@@Z @33
    ??2AR6Grenade@@SAPAXIPAVUObject@@VFName@@K@Z @34
    ??2AR6Grenade@@SAPAXIPAW4EInternal@@@Z @35
    ??2AR6GrenadeWeapon@@SAPAXIPAVUObject@@VFName@@K@Z @36
    ??2AR6GrenadeWeapon@@SAPAXIPAW4EInternal@@@Z @37
    ??2AR6HBSGadget@@SAPAXIPAVUObject@@VFName@@K@Z @38
    ??2AR6HBSGadget@@SAPAXIPAW4EInternal@@@Z @39
    ??2AR6Reticule@@SAPAXIPAVUObject@@VFName@@K@Z @40
    ??2AR6Reticule@@SAPAXIPAW4EInternal@@@Z @41
    ??2AR6SmokeCloud@@SAPAXIPAVUObject@@VFName@@K@Z @42
    ??2AR6SmokeCloud@@SAPAXIPAW4EInternal@@@Z @43
    ??2AR6Weapons@@SAPAXIPAVUObject@@VFName@@K@Z @44
    ??2AR6Weapons@@SAPAXIPAW4EInternal@@@Z @45
    ??4AR6Bullet@@QAEAAV0@ABV0@@Z @46
    ??4AR6DemolitionsGadget@@QAEAAV0@ABV0@@Z @47
    ??4AR6Gadget@@QAEAAV0@ABV0@@Z @48
    ??4AR6Grenade@@QAEAAV0@ABV0@@Z @49
    ??4AR6GrenadeWeapon@@QAEAAV0@ABV0@@Z @50
    ??4AR6HBSGadget@@QAEAAV0@ABV0@@Z @51
    ??4AR6Reticule@@QAEAAV0@ABV0@@Z @52
    ??4AR6SmokeCloud@@QAEAAV0@ABV0@@Z @53
    ??4AR6Weapons@@QAEAAV0@ABV0@@Z @54
    ??_7AR6Bullet@@6B@ @55
    ??_7AR6DemolitionsGadget@@6B@ @56
    ??_7AR6Gadget@@6B@ @57
    ??_7AR6Grenade@@6B@ @58
    ??_7AR6GrenadeWeapon@@6B@ @59
    ??_7AR6HBSGadget@@6B@ @60
    ??_7AR6Reticule@@6B@ @61
    ??_7AR6SmokeCloud@@6B@ @62
    ??_7AR6Weapons@@6B@ @63
    ?ComputeEffectiveAccuracy@AR6Weapons@@UAEMMM@Z @64
    ?GetHeartBeatStatus@AR6HBSGadget@@UAEHXZ @65
    ?GetHeartBeatStatus@AR6Weapons@@UAEHXZ @66
    ?GetMovingModifier@AR6Weapons@@UAEMMM@Z @67
    ?InternalConstructor@AR6Bullet@@SAXPAX@Z @68
    ?InternalConstructor@AR6DemolitionsGadget@@SAXPAX@Z @69
    ?InternalConstructor@AR6Gadget@@SAXPAX@Z @70
    ?InternalConstructor@AR6Grenade@@SAXPAX@Z @71
    ?InternalConstructor@AR6GrenadeWeapon@@SAXPAX@Z @72
    ?InternalConstructor@AR6HBSGadget@@SAXPAX@Z @73
    ?InternalConstructor@AR6Reticule@@SAXPAX@Z @74
    ?InternalConstructor@AR6SmokeCloud@@SAXPAX@Z @75
    ?InternalConstructor@AR6Weapons@@SAXPAX@Z @76
    ?IsBlockedBy@AR6Bullet@@UBEHPBVAActor@@@Z @77
    ?IsBlockedBy@AR6SmokeCloud@@UBEHPBVAActor@@@Z @78
    ?IsBlockedBy@AR6Weapons@@UBEHPBVAActor@@@Z @79
    ?PostNetReceive@AR6DemolitionsGadget@@UAEXXZ @80
    ?PostNetReceive@AR6Grenade@@UAEXXZ @81
    ?PostNetReceive@AR6Weapons@@UAEXXZ @82
    ?PreNetReceive@AR6DemolitionsGadget@@UAEXXZ @83
    ?PreNetReceive@AR6Weapons@@UAEXXZ @84
    ?PrivateStaticClass@AR6Bullet@@0VUClass@@A @85
    ?PrivateStaticClass@AR6DemolitionsGadget@@0VUClass@@A @86
    ?PrivateStaticClass@AR6Gadget@@0VUClass@@A @87
    ?PrivateStaticClass@AR6Grenade@@0VUClass@@A @88
    ?PrivateStaticClass@AR6GrenadeWeapon@@0VUClass@@A @89
    ?PrivateStaticClass@AR6HBSGadget@@0VUClass@@A @90
    ?PrivateStaticClass@AR6Reticule@@0VUClass@@A @91
    ?PrivateStaticClass@AR6SmokeCloud@@0VUClass@@A @92
    ?PrivateStaticClass@AR6Weapons@@0VUClass@@A @93
    ?ProcessState@AR6Weapons@@UAEXM@Z @94
    ?R6WEAPONS_HideAttachment@@3VFName@@A @95
    ?R6WEAPONS_NbBulletChange@@3VFName@@A @96
    ?R6WEAPONS_SetGadgetStaticMesh@@3VFName@@A @97
    ?RangeConversion@AR6Bullet@@QAEMM@Z @98
    ?ShouldTrace@AR6Bullet@@UAEHPAVAActor@@K@Z @99
    ?ShouldTrace@AR6SmokeCloud@@UAEHPAVAActor@@K@Z @100
    ?ShowWeaponParticles@AR6Weapons@@UAEXPAVAR6Pawn@@PAVAR6PlayerController@@@Z @101
    ?StaticClass@AR6Bullet@@SAPAVUClass@@XZ @102
    ?StaticClass@AR6DemolitionsGadget@@SAPAVUClass@@XZ @103
    ?StaticClass@AR6Gadget@@SAPAVUClass@@XZ @104
    ?StaticClass@AR6Grenade@@SAPAVUClass@@XZ @105
    ?StaticClass@AR6GrenadeWeapon@@SAPAVUClass@@XZ @106
    ?StaticClass@AR6HBSGadget@@SAPAVUClass@@XZ @107
    ?StaticClass@AR6Reticule@@SAPAVUClass@@XZ @108
    ?StaticClass@AR6SmokeCloud@@SAPAVUClass@@XZ @109
    ?StaticClass@AR6Weapons@@SAPAVUClass@@XZ @110
    ?StunLoss@AR6Bullet@@QAEMM@Z @111
    ?TickAuthoritative@AR6Weapons@@UAEXM@Z @112
    ?UpdateReticule@AR6Reticule@@QAEXPAVAR6PlayerController@@M@Z @113
    ?WeaponIsNotFiring@AR6Weapons@@UAE_NXZ @114
    ?eventHideAttachment@AR6Weapons@@QAEXXZ @115
    ?eventNbBulletChange@AR6DemolitionsGadget@@QAEXXZ @116
    ?eventSetGadgetStaticMesh@AR6DemolitionsGadget@@QAEXXZ @117
    ?execBulletGoesThroughSurface@AR6Bullet@@QAEXAAUFFrame@@QAX@Z @118
    ?execToggleHeartBeatProperties@AR6HBSGadget@@QAEXAAUFFrame@@QAX@Z @119
    GPackage @121
    _DllMain@12 @120
    autoclassAR6Bullet @122
    autoclassAR6DemolitionsGadget @123
    autoclassAR6Gadget @124
    autoclassAR6Grenade @125
    autoclassAR6GrenadeWeapon @126
    autoclassAR6HBSGadget @127
    autoclassAR6Reticule @128
    autoclassAR6SmokeCloud @129
    autoclassAR6Weapons @130
    intAR6BulletexecBulletGoesThroughSurface @131
    intAR6HBSGadgetexecToggleHeartBeatProperties @132
