LIBRARY IpDrv
EXPORTS
    ??0AInternetLink@@QAE@ABV0@@Z    @1
    ??0AInternetLink@@QAE@XZ    @2
    ??0ATcpLink@@QAE@ABV0@@Z    @3
    ??0ATcpLink@@QAE@XZ    @4
    ??0AUdpLink@@QAE@ABV0@@Z    @5
    ??0AUdpLink@@QAE@XZ    @6
    ??0UTcpNetDriver@@QAE@ABV0@@Z    @7
    ??0UTcpNetDriver@@QAE@XZ    @8
    ??0UTcpipConnection@@IAE@XZ    @9
    ??0UTcpipConnection@@QAE@ABV0@@Z    @10
    ??0UTcpipConnection@@QAE@IPAVUNetDriver@@Usockaddr_in@@W4EConnectionState@@HABVFURL@@@Z    @11
    ??1AInternetLink@@UAE@XZ    @12
    ??1ATcpLink@@UAE@XZ    @13
    ??1AUdpLink@@UAE@XZ    @14
    ??1UTcpNetDriver@@UAE@XZ    @15
    ??1UTcpipConnection@@UAE@XZ    @16
    ??2AInternetLink@@SAPAXIPAVUObject@@VFName@@K@Z    @17
    ??2AInternetLink@@SAPAXIPAW4EInternal@@@Z    @18
    ??2ATcpLink@@SAPAXIPAVUObject@@VFName@@K@Z    @19
    ??2ATcpLink@@SAPAXIPAW4EInternal@@@Z    @20
    ??2AUdpLink@@SAPAXIPAVUObject@@VFName@@K@Z    @21
    ??2AUdpLink@@SAPAXIPAW4EInternal@@@Z    @22
    ??2UTcpNetDriver@@SAPAXIPAVUObject@@VFName@@K@Z    @23
    ??2UTcpNetDriver@@SAPAXIPAW4EInternal@@@Z    @24
    ??2UTcpipConnection@@SAPAXIPAVUObject@@VFName@@K@Z    @25
    ??2UTcpipConnection@@SAPAXIPAW4EInternal@@@Z    @26
    ??4AInternetLink@@QAEAAV0@ABV0@@Z    @27
    ??4ATcpLink@@QAEAAV0@ABV0@@Z    @28
    ??4AUdpLink@@QAEAAV0@ABV0@@Z    @29
    ??4UTcpNetDriver@@QAEAAV0@ABV0@@Z    @30
    ??4UTcpipConnection@@QAEAAV0@ABV0@@Z    @31
    ??_7AInternetLink@@6B@    @32
    ??_7ATcpLink@@6B@    @33
    ??_7AUdpLink@@6B@    @34
    ??_7UTcpNetDriver@@6BFExec@@@    @35
    ??_7UTcpNetDriver@@6BUObject@@@    @36
;   ??_7UTcpipConnection@@6BFExec@@@    @37           ; DIVERGENCE: UObject MI not reconstructed
;   ??_7UTcpipConnection@@6BFOutputDevice@@@    @38   ; DIVERGENCE: UObject MI not reconstructed
;   ??_7UTcpipConnection@@6BUObject@@@    @39         ; DIVERGENCE: UObject MI not reconstructed
    ?CheckConnectionAttempt@ATcpLink@@QAEXXZ    @40
    ?CheckConnectionQueue@ATcpLink@@QAEXXZ    @41
    ?Destroy@AInternetLink@@UAEXXZ    @42
    ?FlushSendBuffer@ATcpLink@@QAEHXZ    @43
    ?GetResolveInfo@AInternetLink@@QAEAAPAVFResolveInfo@@XZ    @44
    ?GetServerConnection@UTcpNetDriver@@QAEPAVUTcpipConnection@@XZ    @45
    ?GetSocket@AInternetLink@@QAEAAIXZ    @46
    ?IPDRV_Accepted@@3VFName@@A    @47
    ?IPDRV_Closed@@3VFName@@A    @48
    ?IPDRV_Opened@@3VFName@@A    @49
    ?IPDRV_ReceivedBinary@@3VFName@@A    @50
    ?IPDRV_ReceivedLine@@3VFName@@A    @51
    ?IPDRV_ReceivedText@@3VFName@@A    @52
    ?IPDRV_ResolveFailed@@3VFName@@A    @53
    ?IPDRV_Resolved@@3VFName@@A    @54
    ?InitBase@UTcpNetDriver@@QAEHHPAVFNetworkNotify@@AAVFURL@@AAVFString@@@Z    @55
    ?InitConnect@UTcpNetDriver@@UAEHPAVFNetworkNotify@@AAVFURL@@AAVFString@@@Z    @56
    ?InitListen@UTcpNetDriver@@UAEHPAVFNetworkNotify@@AAVFURL@@AAVFString@@@Z    @57
    ?InternalConstructor@AInternetLink@@SAXPAX@Z    @58
    ?InternalConstructor@ATcpLink@@SAXPAX@Z    @59
    ?InternalConstructor@AUdpLink@@SAXPAX@Z    @60
    ?InternalConstructor@UTcpNetDriver@@SAXPAX@Z    @61
    ?InternalConstructor@UTcpipConnection@@SAXPAX@Z    @62
    ?LowLevelDescribe@UTcpipConnection@@UAE?AVFString@@XZ    @63
    ?LowLevelDestroy@UTcpNetDriver@@UAEXXZ    @64
    ?LowLevelGetNetworkNumber@UTcpNetDriver@@UAE?AVFString@@XZ    @65
    ?LowLevelGetRemoteAddress@UTcpipConnection@@UAE?AVFString@@XZ    @66
    ?LowLevelSend@UTcpipConnection@@UAEXPAXH@Z    @67
    ?PollConnections@ATcpLink@@QAEXXZ    @68
    ?PostScriptDestroyed@ATcpLink@@UAEXXZ    @69
    ?PostScriptDestroyed@AUdpLink@@UAEXXZ    @70
    ?PrivateStaticClass@AInternetLink@@0VUClass@@A    @71
    ?PrivateStaticClass@ATcpLink@@0VUClass@@A    @72
    ?PrivateStaticClass@AUdpLink@@0VUClass@@A    @73
    ?PrivateStaticClass@UTcpNetDriver@@0VUClass@@A    @74
    ?PrivateStaticClass@UTcpipConnection@@0VUClass@@A    @75
    ?ShutdownConnection@ATcpLink@@QAEXXZ    @76
    ?StaticClass@AInternetLink@@SAPAVUClass@@XZ    @77
    ?StaticClass@ATcpLink@@SAPAVUClass@@XZ    @78
    ?StaticClass@AUdpLink@@SAPAVUClass@@XZ    @79
    ?StaticClass@UTcpNetDriver@@SAPAVUClass@@XZ    @80
    ?StaticClass@UTcpipConnection@@SAPAVUClass@@XZ    @81
    ?StaticConstructor@UTcpNetDriver@@QAEXXZ    @82
    ?Tick@AInternetLink@@UAEHMW4ELevelTick@@@Z    @83
    ?Tick@ATcpLink@@UAEHMW4ELevelTick@@@Z    @84
    ?Tick@AUdpLink@@UAEHMW4ELevelTick@@@Z    @85
    ?TickDispatch@UTcpNetDriver@@UAEXM@Z    @86
    ?eventAccepted@ATcpLink@@QAEXXZ    @87
    ?eventClosed@ATcpLink@@QAEXXZ    @88
    ?eventOpened@ATcpLink@@QAEXXZ    @89
    ?eventReceivedBinary@ATcpLink@@QAEXHPAE@Z    @90
    ?eventReceivedBinary@AUdpLink@@QAEXUFIpAddr@@HPAE@Z    @91
    ?eventReceivedLine@ATcpLink@@QAEXABVFString@@@Z    @92
    ?eventReceivedLine@AUdpLink@@QAEXUFIpAddr@@ABVFString@@@Z    @93
    ?eventReceivedText@ATcpLink@@QAEXABVFString@@@Z    @94
    ?eventReceivedText@AUdpLink@@QAEXUFIpAddr@@ABVFString@@@Z    @95
    ?eventResolveFailed@AInternetLink@@QAEXXZ    @96
    ?eventResolved@AInternetLink@@QAEXUFIpAddr@@@Z    @97
    ?execBindPort@ATcpLink@@QAEXAAUFFrame@@QAX@Z    @98
    ?execBindPort@AUdpLink@@QAEXAAUFFrame@@QAX@Z    @99
    ?execCheckForPlayerTimeouts@AUdpLink@@QAEXAAUFFrame@@QAX@Z    @100
    ?execClose@ATcpLink@@QAEXAAUFFrame@@QAX@Z    @101
    ?execGetLastError@AInternetLink@@QAEXAAUFFrame@@QAX@Z    @102
    ?execGetLocalIP@AInternetLink@@QAEXAAUFFrame@@QAX@Z    @103
    ?execGetMaxAvailPorts@AUdpLink@@QAEXAAUFFrame@@QAX@Z    @104
    ?execGetPlayingTime@AUdpLink@@QAEXAAUFFrame@@QAX@Z    @105
    ?execIpAddrToString@AInternetLink@@QAEXAAUFFrame@@QAX@Z    @106
    ?execIsConnected@ATcpLink@@QAEXAAUFFrame@@QAX@Z    @107
    ?execIsDataPending@AInternetLink@@QAEXAAUFFrame@@QAX@Z    @108
    ?execListen@ATcpLink@@QAEXAAUFFrame@@QAX@Z    @109
    ?execOpen@ATcpLink@@QAEXAAUFFrame@@QAX@Z    @110
    ?execParseURL@AInternetLink@@QAEXAAUFFrame@@QAX@Z    @111
    ?execReadBinary@ATcpLink@@QAEXAAUFFrame@@QAX@Z    @112
    ?execReadBinary@AUdpLink@@QAEXAAUFFrame@@QAX@Z    @113
    ?execReadText@ATcpLink@@QAEXAAUFFrame@@QAX@Z    @114
    ?execReadText@AUdpLink@@QAEXAAUFFrame@@QAX@Z    @115
    ?execResolve@AInternetLink@@QAEXAAUFFrame@@QAX@Z    @116
    ?execSendBinary@ATcpLink@@QAEXAAUFFrame@@QAX@Z    @117
    ?execSendBinary@AUdpLink@@QAEXAAUFFrame@@QAX@Z    @118
    ?execSendText@ATcpLink@@QAEXAAUFFrame@@QAX@Z    @119
    ?execSendText@AUdpLink@@QAEXAAUFFrame@@QAX@Z    @120
    ?execSetPlayingTime@AUdpLink@@QAEXAAUFFrame@@QAX@Z    @121
    ?execStringToIpAddr@AInternetLink@@QAEXAAUFFrame@@QAX@Z    @122
    ?execValidate@AInternetLink@@QAEXAAUFFrame@@QAX@Z    @123
    _DllMain@12    @124
    GPackage    @125
    autoclassAInternetLink    @126
    autoclassATcpLink    @127
    autoclassAUdpLink    @128
    autoclassUCompressCommandlet    @129
    autoclassUDecompressCommandlet    @130
    autoclassUHTTPDownload    @131
    autoclassUMasterServerCommandlet    @132
    autoclassUTcpNetDriver    @133
    autoclassUTcpipConnection    @134
    autoclassUUpdateServerCommandlet    @135
    intAInternetLinkexecGetLastError    @136
    intAInternetLinkexecGetLocalIP    @137
    intAInternetLinkexecIpAddrToString    @138
    intAInternetLinkexecIsDataPending    @139
    intAInternetLinkexecParseURL    @140
    intAInternetLinkexecResolve    @141
    intAInternetLinkexecStringToIpAddr    @142
    intAInternetLinkexecValidate    @143
    intATcpLinkexecBindPort    @144
    intATcpLinkexecClose    @145
    intATcpLinkexecIsConnected    @146
    intATcpLinkexecListen    @147
    intATcpLinkexecOpen    @148
    intATcpLinkexecReadBinary    @149
    intATcpLinkexecReadText    @150
    intATcpLinkexecSendBinary    @151
    intATcpLinkexecSendText    @152
    intAUdpLinkexecBindPort    @153
    intAUdpLinkexecCheckForPlayerTimeouts    @154
    intAUdpLinkexecGetMaxAvailPorts    @155
    intAUdpLinkexecGetPlayingTime    @156
    intAUdpLinkexecReadBinary    @157
    intAUdpLinkexecReadText    @158
    intAUdpLinkexecSendBinary    @159
    intAUdpLinkexecSendText    @160
    intAUdpLinkexecSetPlayingTime    @161
