LIBRARY Fire
EXPORTS
    ??0UFireTexture@@QAE@ABV0@@Z @1
    ??0UFireTexture@@QAE@XZ @2
    ??0UFluidTexture@@QAE@ABV0@@Z @3
    ??0UFluidTexture@@QAE@XZ @4
    ??0UFractalTexture@@QAE@ABV0@@Z @5
    ??0UFractalTexture@@QAE@XZ @6
    ??0UIceTexture@@QAE@ABV0@@Z @7
    ??0UIceTexture@@QAE@XZ @8
    ??0UWaterTexture@@QAE@ABV0@@Z @9
    ??0UWaterTexture@@QAE@XZ @10
    ??0UWaveTexture@@QAE@ABV0@@Z @11
    ??0UWaveTexture@@QAE@XZ @12
    ??0UWetTexture@@QAE@ABV0@@Z @13
    ??0UWetTexture@@QAE@XZ @14
    ??1UFireTexture@@UAE@XZ @15
    ??1UFluidTexture@@UAE@XZ @16
    ??1UFractalTexture@@UAE@XZ @17
    ??1UIceTexture@@UAE@XZ @18
    ??1UWaterTexture@@UAE@XZ @19
    ??1UWaveTexture@@UAE@XZ @20
    ??1UWetTexture@@UAE@XZ @21
    ??2UFireTexture@@SAPAXIPAVUObject@@VFName@@K@Z @22
    ??2UFireTexture@@SAPAXIPAW4EInternal@@@Z @23
    ??2UFluidTexture@@SAPAXIPAVUObject@@VFName@@K@Z @24
    ??2UFluidTexture@@SAPAXIPAW4EInternal@@@Z @25
    ??2UFractalTexture@@SAPAXIPAVUObject@@VFName@@K@Z @26
    ??2UFractalTexture@@SAPAXIPAW4EInternal@@@Z @27
    ??2UIceTexture@@SAPAXIPAVUObject@@VFName@@K@Z @28
    ??2UIceTexture@@SAPAXIPAW4EInternal@@@Z @29
    ??2UWaterTexture@@SAPAXIPAVUObject@@VFName@@K@Z @30
    ??2UWaterTexture@@SAPAXIPAW4EInternal@@@Z @31
    ??2UWaveTexture@@SAPAXIPAVUObject@@VFName@@K@Z @32
    ??2UWaveTexture@@SAPAXIPAW4EInternal@@@Z @33
    ??2UWetTexture@@SAPAXIPAVUObject@@VFName@@K@Z @34
    ??2UWetTexture@@SAPAXIPAW4EInternal@@@Z @35
    ??4FDrop@@QAEAAU0@ABU0@@Z @36
    ??4FSpark@@QAEAAV0@ABV0@@Z @37
    ??4KeyPoint@@QAEAAU0@ABU0@@Z @38
    ??4UFireTexture@@QAEAAV0@ABV0@@Z @39
    ??4UFluidTexture@@QAEAAV0@ABV0@@Z @40
    ??4UFractalTexture@@QAEAAV0@ABV0@@Z @41
    ??4UIceTexture@@QAEAAV0@ABV0@@Z @42
    ??4UWaterTexture@@QAEAAV0@ABV0@@Z @43
    ??4UWaveTexture@@QAEAAV0@ABV0@@Z @44
    ??4UWetTexture@@QAEAAV0@ABV0@@Z @45
    ??_7UFireTexture@@6B@ @46
    ??_7UFluidTexture@@6B@ @47
    ??_7UFractalTexture@@6B@ @48
    ??_7UIceTexture@@6B@ @49
    ??_7UWaterTexture@@6B@ @50
    ??_7UWaveTexture@@6B@ @51
    ??_7UWetTexture@@6B@ @52
    ?AddDrop@UWaterTexture@@AAEXHH@Z @53
    ?AddSpark@UFireTexture@@AAEXHH@Z @54
    ?ApplyWetTexture@UWetTexture@@AAEXXZ @55
    ?BlitIceTex@UIceTexture@@AAEXXZ @56
    ?BlitTexIce@UIceTexture@@AAEXXZ @57
    ?CalculateFluid@UFluidTexture@@QAEXXZ @58
    ?CalculateWater@UWaterTexture@@QAEXXZ @59
    ?Clear@UFireTexture@@UAEXK@Z @60
    ?Clear@UFluidTexture@@UAEXK@Z @61
    ?Clear@UIceTexture@@UAEXK@Z @62
    ?Clear@UWaterTexture@@UAEXK@Z @63
    ?Clear@UWaveTexture@@UAEXK@Z @64
    ?Clear@UWetTexture@@UAEXK@Z @65
    ?Click@UFireTexture@@UAEXKMM@Z @66
    ?Click@UIceTexture@@UAEXKMM@Z @67
    ?Click@UWaterTexture@@UAEXKMM@Z @68
    ?CloseSpark@UFireTexture@@AAEXHH@Z @69
    ?ConstantTimeTick@UFireTexture@@UAEXXZ @70
    ?ConstantTimeTick@UFluidTexture@@UAEXXZ @71
    ?ConstantTimeTick@UIceTexture@@UAEXXZ @72
    ?ConstantTimeTick@UWaveTexture@@UAEXXZ @73
    ?ConstantTimeTick@UWetTexture@@UAEXXZ @74
    ?DeleteDrops@UWaterTexture@@AAEXHHH@Z @75
    ?DeleteSparks@UFireTexture@@AAEXHHH@Z @76
    ?Destroy@UIceTexture@@UAEXXZ @77
    ?Destroy@UWaterTexture@@UAEXXZ @78
    ?Destroy@UWetTexture@@UAEXXZ @79
    ?DrawFlashRamp@UFireTexture@@AAEXULineSeg@@EE@Z @80
    ?DrawSparkLine@UFireTexture@@AAEXHHHHH@Z @81
    ?FirePaint@UFireTexture@@AAEXHHK@Z @82
    ?Init@UFireTexture@@UAEXHH@Z @83
    ?Init@UFluidTexture@@UAEXHH@Z @84
    ?Init@UFractalTexture@@UAEXHH@Z @85
    ?Init@UIceTexture@@UAEXHH@Z @86
    ?Init@UWaterTexture@@UAEXHH@Z @87
    ?Init@UWaveTexture@@UAEXHH@Z @88
    ?Init@UWetTexture@@UAEXHH@Z @89
    ?InternalConstructor@UFireTexture@@SAXPAX@Z @90
    ?InternalConstructor@UFluidTexture@@SAXPAX@Z @91
    ?InternalConstructor@UIceTexture@@SAXPAX@Z @92
    ?InternalConstructor@UWaveTexture@@SAXPAX@Z @93
    ?InternalConstructor@UWetTexture@@SAXPAX@Z @94
    ?MousePosition@UFireTexture@@UAEXKMM@Z @95
    ?MousePosition@UIceTexture@@UAEXKMM@Z @96
    ?MousePosition@UWaterTexture@@UAEXKMM@Z @97
    ?MoveIcePosition@UIceTexture@@AAEXM@Z @98
    ?MoveSpark@UFireTexture@@AAEXPAVFSpark@@@Z @99
    ?MoveSparkAngle@UFireTexture@@AAEXPAVFSpark@@E@Z @100
    ?MoveSparkTwo@UFireTexture@@AAEXPAVFSpark@@@Z @101
    ?MoveSparkXY@UFireTexture@@AAEXPAVFSpark@@CC@Z @102
    ?PostDrawSparks@UFireTexture@@AAEXXZ @103
    ?PostEditChange@UFractalTexture@@UAEXXZ @104
    ?PostLoad@UFireTexture@@UAEXXZ @105
    ?PostLoad@UFluidTexture@@UAEXXZ @106
    ?PostLoad@UFractalTexture@@UAEXXZ @107
    ?PostLoad@UIceTexture@@UAEXXZ @108
    ?PostLoad@UWaterTexture@@UAEXXZ @109
    ?PostLoad@UWaveTexture@@UAEXXZ @110
    ?PostLoad@UWetTexture@@UAEXXZ @111
    ?Prime@UFractalTexture@@UAEXXZ @112
    ?PrivateStaticClass@UFireTexture@@0VUClass@@A @113
    ?PrivateStaticClass@UFluidTexture@@0VUClass@@A @114
    ?PrivateStaticClass@UFractalTexture@@0VUClass@@A @115
    ?PrivateStaticClass@UIceTexture@@0VUClass@@A @116
    ?PrivateStaticClass@UWaterTexture@@0VUClass@@A @117
    ?PrivateStaticClass@UWaveTexture@@0VUClass@@A @118
    ?PrivateStaticClass@UWetTexture@@0VUClass@@A @119
    ?RedrawSparks@UFireTexture@@AAEXXZ @120
    ?RenderIce@UIceTexture@@AAEXM@Z @121
    ?Serialize@UFireTexture@@UAEXAAVFArchive@@@Z @122
    ?SetRefractionTable@UWetTexture@@AAEXXZ @123
    ?SetWaveLight@UWaveTexture@@QAEXXZ @124
    ?StaticClass@UFireTexture@@SAPAVUClass@@XZ @125
    ?StaticClass@UFluidTexture@@SAPAVUClass@@XZ @126
    ?StaticClass@UFractalTexture@@SAPAVUClass@@XZ @127
    ?StaticClass@UIceTexture@@SAPAVUClass@@XZ @128
    ?StaticClass@UWaterTexture@@SAPAVUClass@@XZ @129
    ?StaticClass@UWaveTexture@@SAPAVUClass@@XZ @130
    ?StaticClass@UWetTexture@@SAPAVUClass@@XZ @131
    ?TempDrawSpark@UFireTexture@@AAEXHHH@Z @132
    ?Tick@UIceTexture@@UAEXM@Z @133
    ?TouchTexture@UFireTexture@@UAEXHHM@Z @134
    ?TouchTexture@UFractalTexture@@UAEXHHM@Z @135
    ?TouchTexture@UWaterTexture@@UAEXHHM@Z @136
    ?WaterPaint@UWaterTexture@@AAEXHHK@Z @137
    ?WaterRedrawDrops@UWaterTexture@@QAEXXZ @138
    GPackage @140
    _DllMain@12 @139
    autoclassUFireTexture @141
    autoclassUFluidTexture @142
    autoclassUFractalTexture @143
    autoclassUIceTexture @144
    autoclassUWaterTexture @145
    autoclassUWaveTexture @146
    autoclassUWetTexture @147
