LIBRARY R6Engine
EXPORTS
    ??0AMP2IOKarma@@QAE@ABV0@@Z @1
    ??0AMP2IOKarma@@QAE@XZ @2
    ??0AR6AIController@@QAE@ABV0@@Z @3
    ??0AR6AIController@@QAE@XZ @4
    ??0AR6ClimbableObject@@QAE@ABV0@@Z @5
    ??0AR6ClimbableObject@@QAE@XZ @6
    ??0AR6ClimbablePoint@@QAE@ABV0@@Z @7
    ??0AR6ClimbablePoint@@QAE@XZ @8
    ??0AR6CoverSpot@@QAE@ABV0@@Z @9
    ??0AR6CoverSpot@@QAE@XZ @10
    ??0AR6DZoneCircle@@IAE@XZ @11
    ??0AR6DZoneCircle@@QAE@ABV0@@Z @12
    ??0AR6DZonePath@@QAE@ABV0@@Z @13
    ??0AR6DZonePath@@QAE@XZ @14
    ??0AR6DZonePathNode@@QAE@ABV0@@Z @15
    ??0AR6DZonePathNode@@QAE@XZ @16
    ??0AR6DZonePoint@@QAE@ABV0@@Z @17
    ??0AR6DZonePoint@@QAE@XZ @18
    ??0AR6DZoneRandomPointNode@@QAE@ABV0@@Z @19
    ??0AR6DZoneRandomPointNode@@QAE@XZ @20
    ??0AR6DZoneRandomPoints@@QAE@ABV0@@Z @21
    ??0AR6DZoneRandomPoints@@QAE@XZ @22
    ??0AR6DZoneRectangle@@IAE@XZ @23
    ??0AR6DZoneRectangle@@QAE@ABV0@@Z @24
    ??0AR6DeploymentZone@@QAE@ABV0@@Z @25
    ??0AR6DeploymentZone@@QAE@XZ @26
    ??0AR6Door@@QAE@ABV0@@Z @27
    ??0AR6Door@@QAE@XZ @28
    ??0AR6EnvironmentNode@@IAE@XZ @29
    ??0AR6EnvironmentNode@@QAE@ABV0@@Z @30
    ??0AR6FalseHeartBeat@@QAE@ABV0@@Z @31
    ??0AR6FalseHeartBeat@@QAE@XZ @32
    ??0AR6GameReplicationInfo@@IAE@XZ @33
    ??0AR6GameReplicationInfo@@QAE@ABV0@@Z @34
    ??0AR6GenericHB@@IAE@XZ @35
    ??0AR6GenericHB@@QAE@ABV0@@Z @36
    ??0AR6Hostage@@IAE@XZ @37
    ??0AR6Hostage@@QAE@ABV0@@Z @38
    ??0AR6HostageAI@@IAE@XZ @39
    ??0AR6HostageAI@@QAE@ABV0@@Z @40
    ??0AR6IActionObject@@IAE@XZ @41
    ??0AR6IActionObject@@QAE@ABV0@@Z @42
    ??0AR6IOBomb@@IAE@XZ @43
    ??0AR6IOBomb@@QAE@ABV0@@Z @44
    ??0AR6IOObject@@IAE@XZ @45
    ??0AR6IOObject@@QAE@ABV0@@Z @46
    ??0AR6IORotatingDoor@@QAE@ABV0@@Z @47
    ??0AR6IORotatingDoor@@QAE@XZ @48
    ??0AR6IOSound@@IAE@XZ @49
    ??0AR6IOSound@@QAE@ABV0@@Z @50
    ??0AR6InteractiveObject@@QAE@ABV0@@Z @51
    ??0AR6InteractiveObject@@QAE@XZ @52
    ??0AR6Ladder@@IAE@XZ @53
    ??0AR6Ladder@@QAE@ABV0@@Z @54
    ??0AR6LadderVolume@@QAE@ABV0@@Z @55
    ??0AR6LadderVolume@@QAE@XZ @56
    ??0AR6MatineeHostage@@IAE@XZ @57
    ??0AR6MatineeHostage@@QAE@ABV0@@Z @58
    ??0AR6MatineeRainbow@@IAE@XZ @59
    ??0AR6MatineeRainbow@@QAE@ABV0@@Z @60
    ??0AR6MatineeTerrorist@@IAE@XZ @61
    ??0AR6MatineeTerrorist@@QAE@ABV0@@Z @62
    ??0AR6Pawn@@QAE@ABV0@@Z @63
    ??0AR6Pawn@@QAE@XZ @64
    ??0AR6PlayerController@@QAE@ABV0@@Z @65
    ??0AR6PlayerController@@QAE@XZ @66
    ??0AR6RagDoll@@QAE@ABV0@@Z @67
    ??0AR6RagDoll@@QAE@XZ @68
    ??0AR6Rainbow@@QAE@ABV0@@Z @69
    ??0AR6Rainbow@@QAE@XZ @70
    ??0AR6RainbowAI@@QAE@ABV0@@Z @71
    ??0AR6RainbowAI@@QAE@XZ @72
    ??0AR6RainbowTeam@@IAE@XZ @73
    ??0AR6RainbowTeam@@QAE@ABV0@@Z @74
    ??0AR6SAHeartBeatJammer@@IAE@XZ @75
    ??0AR6SAHeartBeatJammer@@QAE@ABV0@@Z @76
    ??0AR6SoundReplicationInfo@@QAE@ABV0@@Z @77
    ??0AR6SoundReplicationInfo@@QAE@XZ @78
    ??0AR6StairOrientation@@QAE@ABV0@@Z @79
    ??0AR6StairOrientation@@QAE@XZ @80
    ??0AR6StairVolume@@QAE@ABV0@@Z @81
    ??0AR6StairVolume@@QAE@XZ @82
    ??0AR6Stairs@@IAE@XZ @83
    ??0AR6Stairs@@QAE@ABV0@@Z @84
    ??0AR6TeamMemberReplicationInfo@@QAE@ABV0@@Z @85
    ??0AR6TeamMemberReplicationInfo@@QAE@XZ @86
    ??0AR6Terrorist@@QAE@ABV0@@Z @87
    ??0AR6Terrorist@@QAE@XZ @88
    ??0AR6TerroristAI@@QAE@ABV0@@Z @89
    ??0AR6TerroristAI@@QAE@XZ @90
    ??0R6Charts@@QAE@XZ @91
    ??0UR6MatineeAttach@@IAE@XZ @92
    ??0UR6MatineeAttach@@QAE@ABV0@@Z @93
    ??0UR6PlayAnim@@QAE@ABV0@@Z @94
    ??0UR6PlayAnim@@QAE@XZ @95
    ??0UR6SubActionAnimSequence@@QAE@ABV0@@Z @96
    ??0UR6SubActionAnimSequence@@QAE@XZ @97
    ??0UR6SubActionLookAt@@QAE@ABV0@@Z @98
    ??0UR6SubActionLookAt@@QAE@XZ @99
    ??0UR6TerroristMgr@@IAE@XZ @100
    ??0UR6TerroristMgr@@QAE@ABV0@@Z @101
    ??1AMP2IOKarma@@UAE@XZ @102
    ??1AR6AIController@@UAE@XZ @103
    ??1AR6ClimbableObject@@UAE@XZ @104
    ??1AR6ClimbablePoint@@UAE@XZ @105
    ??1AR6CoverSpot@@UAE@XZ @106
    ??1AR6DZoneCircle@@UAE@XZ @107
    ??1AR6DZonePath@@UAE@XZ @108
    ??1AR6DZonePathNode@@UAE@XZ @109
    ??1AR6DZonePoint@@UAE@XZ @110
    ??1AR6DZoneRandomPointNode@@UAE@XZ @111
    ??1AR6DZoneRandomPoints@@UAE@XZ @112
    ??1AR6DZoneRectangle@@UAE@XZ @113
    ??1AR6DeploymentZone@@UAE@XZ @114
    ??1AR6Door@@UAE@XZ @115
    ??1AR6EnvironmentNode@@UAE@XZ @116
    ??1AR6FalseHeartBeat@@UAE@XZ @117
    ??1AR6GameReplicationInfo@@UAE@XZ @118
    ??1AR6GenericHB@@UAE@XZ @119
    ??1AR6Hostage@@UAE@XZ @120
    ??1AR6HostageAI@@UAE@XZ @121
    ??1AR6IActionObject@@UAE@XZ @122
    ??1AR6IOBomb@@UAE@XZ @123
    ??1AR6IOObject@@UAE@XZ @124
    ??1AR6IORotatingDoor@@UAE@XZ @125
    ??1AR6IOSound@@UAE@XZ @126
    ??1AR6InteractiveObject@@UAE@XZ @127
    ??1AR6Ladder@@UAE@XZ @128
    ??1AR6LadderVolume@@UAE@XZ @129
    ??1AR6MatineeHostage@@UAE@XZ @130
    ??1AR6MatineeRainbow@@UAE@XZ @131
    ??1AR6MatineeTerrorist@@UAE@XZ @132
    ??1AR6Pawn@@UAE@XZ @133
    ??1AR6PlayerController@@UAE@XZ @134
    ??1AR6RagDoll@@UAE@XZ @135
    ??1AR6Rainbow@@UAE@XZ @136
    ??1AR6RainbowAI@@UAE@XZ @137
    ??1AR6RainbowTeam@@UAE@XZ @138
    ??1AR6SAHeartBeatJammer@@UAE@XZ @139
    ??1AR6SoundReplicationInfo@@UAE@XZ @140
    ??1AR6StairOrientation@@UAE@XZ @141
    ??1AR6StairVolume@@UAE@XZ @142
    ??1AR6Stairs@@UAE@XZ @143
    ??1AR6TeamMemberReplicationInfo@@UAE@XZ @144
    ??1AR6Terrorist@@UAE@XZ @145
    ??1AR6TerroristAI@@UAE@XZ @146
    ??1UR6MatineeAttach@@UAE@XZ @147
    ??1UR6PlayAnim@@UAE@XZ @148
    ??1UR6SubActionAnimSequence@@UAE@XZ @149
    ??1UR6SubActionLookAt@@UAE@XZ @150
    ??1UR6TerroristMgr@@UAE@XZ @151
    ??2AMP2IOKarma@@SAPAXIPAVUObject@@VFName@@K@Z @152
    ??2AMP2IOKarma@@SAPAXIPAW4EInternal@@@Z @153
    ??2AR6AIController@@SAPAXIPAVUObject@@VFName@@K@Z @154
    ??2AR6AIController@@SAPAXIPAW4EInternal@@@Z @155
    ??2AR6ClimbableObject@@SAPAXIPAVUObject@@VFName@@K@Z @156
    ??2AR6ClimbableObject@@SAPAXIPAW4EInternal@@@Z @157
    ??2AR6ClimbablePoint@@SAPAXIPAVUObject@@VFName@@K@Z @158
    ??2AR6ClimbablePoint@@SAPAXIPAW4EInternal@@@Z @159
    ??2AR6CoverSpot@@SAPAXIPAVUObject@@VFName@@K@Z @160
    ??2AR6CoverSpot@@SAPAXIPAW4EInternal@@@Z @161
    ??2AR6DZoneCircle@@SAPAXIPAVUObject@@VFName@@K@Z @162
    ??2AR6DZoneCircle@@SAPAXIPAW4EInternal@@@Z @163
    ??2AR6DZonePath@@SAPAXIPAVUObject@@VFName@@K@Z @164
    ??2AR6DZonePath@@SAPAXIPAW4EInternal@@@Z @165
    ??2AR6DZonePathNode@@SAPAXIPAVUObject@@VFName@@K@Z @166
    ??2AR6DZonePathNode@@SAPAXIPAW4EInternal@@@Z @167
    ??2AR6DZonePoint@@SAPAXIPAVUObject@@VFName@@K@Z @168
    ??2AR6DZonePoint@@SAPAXIPAW4EInternal@@@Z @169
    ??2AR6DZoneRandomPointNode@@SAPAXIPAVUObject@@VFName@@K@Z @170
    ??2AR6DZoneRandomPointNode@@SAPAXIPAW4EInternal@@@Z @171
    ??2AR6DZoneRandomPoints@@SAPAXIPAVUObject@@VFName@@K@Z @172
    ??2AR6DZoneRandomPoints@@SAPAXIPAW4EInternal@@@Z @173
    ??2AR6DZoneRectangle@@SAPAXIPAVUObject@@VFName@@K@Z @174
    ??2AR6DZoneRectangle@@SAPAXIPAW4EInternal@@@Z @175
    ??2AR6DeploymentZone@@SAPAXIPAVUObject@@VFName@@K@Z @176
    ??2AR6DeploymentZone@@SAPAXIPAW4EInternal@@@Z @177
    ??2AR6Door@@SAPAXIPAVUObject@@VFName@@K@Z @178
    ??2AR6Door@@SAPAXIPAW4EInternal@@@Z @179
    ??2AR6EnvironmentNode@@SAPAXIPAVUObject@@VFName@@K@Z @180
    ??2AR6EnvironmentNode@@SAPAXIPAW4EInternal@@@Z @181
    ??2AR6FalseHeartBeat@@SAPAXIPAVUObject@@VFName@@K@Z @182
    ??2AR6FalseHeartBeat@@SAPAXIPAW4EInternal@@@Z @183
    ??2AR6GameReplicationInfo@@SAPAXIPAVUObject@@VFName@@K@Z @184
    ??2AR6GameReplicationInfo@@SAPAXIPAW4EInternal@@@Z @185
    ??2AR6GenericHB@@SAPAXIPAVUObject@@VFName@@K@Z @186
    ??2AR6GenericHB@@SAPAXIPAW4EInternal@@@Z @187
    ??2AR6Hostage@@SAPAXIPAVUObject@@VFName@@K@Z @188
    ??2AR6Hostage@@SAPAXIPAW4EInternal@@@Z @189
    ??2AR6HostageAI@@SAPAXIPAVUObject@@VFName@@K@Z @190
    ??2AR6HostageAI@@SAPAXIPAW4EInternal@@@Z @191
    ??2AR6IActionObject@@SAPAXIPAVUObject@@VFName@@K@Z @192
    ??2AR6IActionObject@@SAPAXIPAW4EInternal@@@Z @193
    ??2AR6IOBomb@@SAPAXIPAVUObject@@VFName@@K@Z @194
    ??2AR6IOBomb@@SAPAXIPAW4EInternal@@@Z @195
    ??2AR6IOObject@@SAPAXIPAVUObject@@VFName@@K@Z @196
    ??2AR6IOObject@@SAPAXIPAW4EInternal@@@Z @197
    ??2AR6IORotatingDoor@@SAPAXIPAVUObject@@VFName@@K@Z @198
    ??2AR6IORotatingDoor@@SAPAXIPAW4EInternal@@@Z @199
    ??2AR6IOSound@@SAPAXIPAVUObject@@VFName@@K@Z @200
    ??2AR6IOSound@@SAPAXIPAW4EInternal@@@Z @201
    ??2AR6InteractiveObject@@SAPAXIPAVUObject@@VFName@@K@Z @202
    ??2AR6InteractiveObject@@SAPAXIPAW4EInternal@@@Z @203
    ??2AR6Ladder@@SAPAXIPAVUObject@@VFName@@K@Z @204
    ??2AR6Ladder@@SAPAXIPAW4EInternal@@@Z @205
    ??2AR6LadderVolume@@SAPAXIPAVUObject@@VFName@@K@Z @206
    ??2AR6LadderVolume@@SAPAXIPAW4EInternal@@@Z @207
    ??2AR6MatineeHostage@@SAPAXIPAVUObject@@VFName@@K@Z @208
    ??2AR6MatineeHostage@@SAPAXIPAW4EInternal@@@Z @209
    ??2AR6MatineeRainbow@@SAPAXIPAVUObject@@VFName@@K@Z @210
    ??2AR6MatineeRainbow@@SAPAXIPAW4EInternal@@@Z @211
    ??2AR6MatineeTerrorist@@SAPAXIPAVUObject@@VFName@@K@Z @212
    ??2AR6MatineeTerrorist@@SAPAXIPAW4EInternal@@@Z @213
    ??2AR6Pawn@@SAPAXIPAVUObject@@VFName@@K@Z @214
    ??2AR6Pawn@@SAPAXIPAW4EInternal@@@Z @215
    ??2AR6PlayerController@@SAPAXIPAVUObject@@VFName@@K@Z @216
    ??2AR6PlayerController@@SAPAXIPAW4EInternal@@@Z @217
    ??2AR6RagDoll@@SAPAXIPAVUObject@@VFName@@K@Z @218
    ??2AR6RagDoll@@SAPAXIPAW4EInternal@@@Z @219
    ??2AR6Rainbow@@SAPAXIPAVUObject@@VFName@@K@Z @220
    ??2AR6Rainbow@@SAPAXIPAW4EInternal@@@Z @221
    ??2AR6RainbowAI@@SAPAXIPAVUObject@@VFName@@K@Z @222
    ??2AR6RainbowAI@@SAPAXIPAW4EInternal@@@Z @223
    ??2AR6RainbowTeam@@SAPAXIPAVUObject@@VFName@@K@Z @224
    ??2AR6RainbowTeam@@SAPAXIPAW4EInternal@@@Z @225
    ??2AR6SAHeartBeatJammer@@SAPAXIPAVUObject@@VFName@@K@Z @226
    ??2AR6SAHeartBeatJammer@@SAPAXIPAW4EInternal@@@Z @227
    ??2AR6SoundReplicationInfo@@SAPAXIPAVUObject@@VFName@@K@Z @228
    ??2AR6SoundReplicationInfo@@SAPAXIPAW4EInternal@@@Z @229
    ??2AR6StairOrientation@@SAPAXIPAVUObject@@VFName@@K@Z @230
    ??2AR6StairOrientation@@SAPAXIPAW4EInternal@@@Z @231
    ??2AR6StairVolume@@SAPAXIPAVUObject@@VFName@@K@Z @232
    ??2AR6StairVolume@@SAPAXIPAW4EInternal@@@Z @233
    ??2AR6Stairs@@SAPAXIPAVUObject@@VFName@@K@Z @234
    ??2AR6Stairs@@SAPAXIPAW4EInternal@@@Z @235
    ??2AR6TeamMemberReplicationInfo@@SAPAXIPAVUObject@@VFName@@K@Z @236
    ??2AR6TeamMemberReplicationInfo@@SAPAXIPAW4EInternal@@@Z @237
    ??2AR6Terrorist@@SAPAXIPAVUObject@@VFName@@K@Z @238
    ??2AR6Terrorist@@SAPAXIPAW4EInternal@@@Z @239
    ??2AR6TerroristAI@@SAPAXIPAVUObject@@VFName@@K@Z @240
    ??2AR6TerroristAI@@SAPAXIPAW4EInternal@@@Z @241
    ??2UR6MatineeAttach@@SAPAXIPAVUObject@@VFName@@K@Z @242
    ??2UR6MatineeAttach@@SAPAXIPAW4EInternal@@@Z @243
    ??2UR6PlayAnim@@SAPAXIPAVUObject@@VFName@@K@Z @244
    ??2UR6PlayAnim@@SAPAXIPAW4EInternal@@@Z @245
    ??2UR6SubActionAnimSequence@@SAPAXIPAVUObject@@VFName@@K@Z @246
    ??2UR6SubActionAnimSequence@@SAPAXIPAW4EInternal@@@Z @247
    ??2UR6SubActionLookAt@@SAPAXIPAVUObject@@VFName@@K@Z @248
    ??2UR6SubActionLookAt@@SAPAXIPAW4EInternal@@@Z @249
    ??2UR6TerroristMgr@@SAPAXIPAVUObject@@VFName@@K@Z @250
    ??2UR6TerroristMgr@@SAPAXIPAW4EInternal@@@Z @251
    ??4AMP2IOKarma@@QAEAAV0@ABV0@@Z @252
    ??4AR6AIController@@QAEAAV0@ABV0@@Z @253
    ??4AR6ClimbableObject@@QAEAAV0@ABV0@@Z @254
    ??4AR6ClimbablePoint@@QAEAAV0@ABV0@@Z @255
    ??4AR6CoverSpot@@QAEAAV0@ABV0@@Z @256
    ??4AR6DZoneCircle@@QAEAAV0@ABV0@@Z @257
    ??4AR6DZonePath@@QAEAAV0@ABV0@@Z @258
    ??4AR6DZonePathNode@@QAEAAV0@ABV0@@Z @259
    ??4AR6DZonePoint@@QAEAAV0@ABV0@@Z @260
    ??4AR6DZoneRandomPointNode@@QAEAAV0@ABV0@@Z @261
    ??4AR6DZoneRandomPoints@@QAEAAV0@ABV0@@Z @262
    ??4AR6DZoneRectangle@@QAEAAV0@ABV0@@Z @263
    ??4AR6DeploymentZone@@QAEAAV0@ABV0@@Z @264
    ??4AR6Door@@QAEAAV0@ABV0@@Z @265
    ??4AR6EnvironmentNode@@QAEAAV0@ABV0@@Z @266
    ??4AR6FalseHeartBeat@@QAEAAV0@ABV0@@Z @267
    ??4AR6GameReplicationInfo@@QAEAAV0@ABV0@@Z @268
    ??4AR6GenericHB@@QAEAAV0@ABV0@@Z @269
    ??4AR6Hostage@@QAEAAV0@ABV0@@Z @270
    ??4AR6HostageAI@@QAEAAV0@ABV0@@Z @271
    ??4AR6IActionObject@@QAEAAV0@ABV0@@Z @272
    ??4AR6IOBomb@@QAEAAV0@ABV0@@Z @273
    ??4AR6IOObject@@QAEAAV0@ABV0@@Z @274
    ??4AR6IORotatingDoor@@QAEAAV0@ABV0@@Z @275
    ??4AR6IOSound@@QAEAAV0@ABV0@@Z @276
    ??4AR6InteractiveObject@@QAEAAV0@ABV0@@Z @277
    ??4AR6Ladder@@QAEAAV0@ABV0@@Z @278
    ??4AR6LadderVolume@@QAEAAV0@ABV0@@Z @279
    ??4AR6MatineeHostage@@QAEAAV0@ABV0@@Z @280
    ??4AR6MatineeRainbow@@QAEAAV0@ABV0@@Z @281
    ??4AR6MatineeTerrorist@@QAEAAV0@ABV0@@Z @282
    ??4AR6Pawn@@QAEAAV0@ABV0@@Z @283
    ??4AR6PlayerController@@QAEAAV0@ABV0@@Z @284
    ??4AR6RagDoll@@QAEAAV0@ABV0@@Z @285
    ??4AR6Rainbow@@QAEAAV0@ABV0@@Z @286
    ??4AR6RainbowAI@@QAEAAV0@ABV0@@Z @287
    ??4AR6RainbowTeam@@QAEAAV0@ABV0@@Z @288
    ??4AR6SAHeartBeatJammer@@QAEAAV0@ABV0@@Z @289
    ??4AR6SoundReplicationInfo@@QAEAAV0@ABV0@@Z @290
    ??4AR6StairOrientation@@QAEAAV0@ABV0@@Z @291
    ??4AR6StairVolume@@QAEAAV0@ABV0@@Z @292
    ??4AR6Stairs@@QAEAAV0@ABV0@@Z @293
    ??4AR6TeamMemberReplicationInfo@@QAEAAV0@ABV0@@Z @294
    ??4AR6Terrorist@@QAEAAV0@ABV0@@Z @295
    ??4AR6TerroristAI@@QAEAAV0@ABV0@@Z @296
    ??4R6Charts@@QAEAAV0@ABV0@@Z @297
    ??4UR6MatineeAttach@@QAEAAV0@ABV0@@Z @298
    ??4UR6PlayAnim@@QAEAAV0@ABV0@@Z @299
    ??4UR6SubActionAnimSequence@@QAEAAV0@ABV0@@Z @300
    ??4UR6SubActionLookAt@@QAEAAV0@ABV0@@Z @301
    ??4UR6TerroristMgr@@QAEAAV0@ABV0@@Z @302
    ??_7AMP2IOKarma@@6B@ @303
    ??_7AR6AIController@@6B@ @304
    ??_7AR6ClimbableObject@@6B@ @305
    ??_7AR6ClimbablePoint@@6B@ @306
    ??_7AR6CoverSpot@@6B@ @307
    ??_7AR6DZoneCircle@@6B@ @308
    ??_7AR6DZonePath@@6B@ @309
    ??_7AR6DZonePathNode@@6B@ @310
    ??_7AR6DZonePoint@@6B@ @311
    ??_7AR6DZoneRandomPointNode@@6B@ @312
    ??_7AR6DZoneRandomPoints@@6B@ @313
    ??_7AR6DZoneRectangle@@6B@ @314
    ??_7AR6DeploymentZone@@6B@ @315
    ??_7AR6Door@@6B@ @316
    ??_7AR6EnvironmentNode@@6B@ @317
    ??_7AR6FalseHeartBeat@@6B@ @318
    ??_7AR6GameReplicationInfo@@6B@ @319
    ??_7AR6GenericHB@@6B@ @320
    ??_7AR6Hostage@@6B@ @321
    ??_7AR6HostageAI@@6B@ @322
    ??_7AR6IActionObject@@6B@ @323
    ??_7AR6IOBomb@@6B@ @324
    ??_7AR6IOObject@@6B@ @325
    ??_7AR6IORotatingDoor@@6B@ @326
    ??_7AR6IOSound@@6B@ @327
    ??_7AR6InteractiveObject@@6B@ @328
    ??_7AR6Ladder@@6B@ @329
    ??_7AR6LadderVolume@@6B@ @330
    ??_7AR6MatineeHostage@@6B@ @331
    ??_7AR6MatineeRainbow@@6B@ @332
    ??_7AR6MatineeTerrorist@@6B@ @333
    ??_7AR6Pawn@@6B@ @334
    ??_7AR6PlayerController@@6B@ @335
    ??_7AR6RagDoll@@6B@ @336
    ??_7AR6Rainbow@@6B@ @337
    ??_7AR6RainbowAI@@6B@ @338
    ??_7AR6RainbowTeam@@6B@ @339
    ??_7AR6SAHeartBeatJammer@@6B@ @340
    ??_7AR6SoundReplicationInfo@@6B@ @341
    ??_7AR6StairOrientation@@6B@ @342
    ??_7AR6StairVolume@@6B@ @343
    ??_7AR6Stairs@@6B@ @344
    ??_7AR6TeamMemberReplicationInfo@@6B@ @345
    ??_7AR6Terrorist@@6B@ @346
    ??_7AR6TerroristAI@@6B@ @347
    ??_7UR6MatineeAttach@@6B@ @348
    ??_7UR6PlayAnim@@6B@ @349
    ??_7UR6SubActionAnimSequence@@6B@ @350
    ??_7UR6SubActionLookAt@@6B@ @351
    ??_7UR6TerroristMgr@@6B@ @352
    ?AClearShotIsAvailable@AR6RainbowAI@@QAEHPAVAPawn@@VFVector@@@Z @353
    ?AddImpulseToBone@AR6RagDoll@@UAEXHVFVector@@@Z @354
    ?AddMyMarker@AR6ClimbableObject@@UAEXPAVAActor@@@Z @355
    ?AddMyMarker@AR6IORotatingDoor@@UAEXPAVAActor@@@Z @356
    ?AddMyMarker@AR6LadderVolume@@UAEXPAVAActor@@@Z @357
    ?AddMyMarker@AR6StairVolume@@UAEXPAVAActor@@@Z @358
    ?AddSpring@AR6RagDoll@@QAEXHHMM@Z @359
    ?AdjustFluidCollisionCylinder@AR6Pawn@@QAEHMH@Z @360
    ?AdjustFromWall@AR6AIController@@UAEXVFVector@@PAVAActor@@@Z @361
    ?AdjustMaxFluidPeeking@AR6Pawn@@QAEMMM@Z @362
    ?AssociatedLevelGeometry@AR6Door@@UAEPAVAActor@@XZ @363
    ?BeginTouch@AR6Pawn@@UAEXPAVAActor@@@Z @364
    ?BulletGoesThroughCharacter@R6Charts@@QAEHHHHH@Z @365
    ?CanHear@AR6AIController@@UAEHVFVector@@MPAVAActor@@W4ENoiseType@@W4EPawnType@@@Z @366
    ?CanHear@AR6TerroristAI@@UAEHVFVector@@MPAVAActor@@W4ENoiseType@@W4EPawnType@@@Z @367
    ?CanWalkTo@AR6AIController@@QAEHVFVector@@H@Z @368
    ?CheckForErrors@AMP2IOKarma@@UAEXXZ @369
    ?CheckForErrors@AR6ClimbableObject@@UAEXXZ @370
    ?CheckForErrors@AR6DZonePath@@UAEXXZ @371
    ?CheckForErrors@AR6DZonePathNode@@UAEXXZ @372
    ?CheckForErrors@AR6DZoneRandomPointNode@@UAEXXZ @373
    ?CheckForErrors@AR6DZoneRandomPoints@@UAEXXZ @374
    ?CheckForErrors@AR6DeploymentZone@@QAEX_N@Z @375
    ?CheckForErrors@AR6DeploymentZone@@UAEXXZ @376
    ?CheckForErrors@AR6Door@@UAEXXZ @377
    ?CheckForErrors@AR6InteractiveObject@@UAEXXZ @378
    ?CheckForErrors@AR6StairVolume@@UAEXXZ @379
    ?CheckForLedges@AR6Pawn@@UAE?AVFVector@@PAVAActor@@V2@11AAH2M@Z @380
    ?CheckLineOfSight@AR6Pawn@@QAEHPAVAActor@@AAVFVector@@H0101@Z @381
    ?CheckSeePawn@AR6Pawn@@QAEKPAV1@AAVFVector@@H@Z @382
    ?ClearActionSpot@AR6AIController@@QAEXXZ @383
    ?ClearPaths@AR6ClimbablePoint@@UAEXXZ @384
    ?ClearToSnipe@AR6RainbowAI@@QAEHVFVector@@VFRotator@@@Z @385
    ?ClipParticleToPlane@AR6RagDoll@@QAEXHABVFVector@@0@Z @386
    ?CollisionDetection@AR6RagDoll@@QAEXXZ @387
    ?ComputeCrouchBlendRate@AR6Pawn@@QAEMMM@Z @388
    ?Crawl@AR6Pawn@@QAEXH@Z @389
    ?DeleteANode@AR6DZonePath@@QAEXH@Z @390
    ?DeleteANode@AR6DZonePath@@QAEXPAVAR6DZonePathNode@@@Z @391
    ?DeleteANode@AR6DZoneRandomPoints@@QAEXH@Z @392
    ?DeleteANode@AR6DZoneRandomPoints@@QAEXPAVAR6DZoneRandomPointNode@@@Z @393
    ?Destroy@AR6PlayerController@@UAEXXZ @394
    ?DirectionHasChanged@AR6Pawn@@QAEHM@Z @395
    ?DoorOpenTowards@AR6IORotatingDoor@@QAEHVFVector@@@Z @396
    ?FindClosestPointTo@AR6DZonePath@@UAE?AVFVector@@ABV2@@Z @397
    ?FindClosestPointTo@AR6DZonePoint@@UAE?AVFVector@@ABV2@@Z @398
    ?FindClosestPointTo@AR6DZoneRandomPoints@@UAE?AVFVector@@ABV2@@Z @399
    ?FindClosestPointTo@AR6DeploymentZone@@UAE?AVFVector@@ABV2@@Z @400
    ?FindNearestActionSpot@AR6AIController@@QAEPAVAR6ActionSpot@@MVFVector@@P6AHPAVAR6Pawn@@PAV2@AAUSTActionSpotCheck@@@Z3@Z @401
    ?FindRandomPointInArea@AR6DZonePath@@UAE?AVFVector@@XZ @402
    ?FindRandomPointInArea@AR6DZonePoint@@UAE?AVFVector@@XZ @403
    ?FindRandomPointInArea@AR6DZoneRandomPoints@@UAE?AVFVector@@XZ @404
    ?FindRandomPointInArea@AR6DeploymentZone@@UAE?AVFVector@@XZ @405
    ?FindSafeSpot@AR6RainbowAI@@QAEPAVAActor@@XZ @406
    ?FindSpawningPoint@AR6DZonePath@@UAE?AVFVector@@PAVFRotator@@PAHPAW4EStance@@1@Z @407
    ?FindSpawningPoint@AR6DZonePoint@@UAE?AVFVector@@PAVFRotator@@PAHPAW4EStance@@1@Z @408
    ?FindSpawningPoint@AR6DZoneRandomPoints@@UAE?AVFVector@@PAVFRotator@@PAHPAW4EStance@@1@Z @409
    ?FindSpawningPoint@AR6DeploymentZone@@UAE?AVFVector@@PAVFRotator@@PAHPAW4EStance@@1@Z @410
    ?FirstInit@AR6DZoneRandomPoints@@UAEXXZ @411
    ?FirstInit@AR6DeploymentZone@@UAEXXZ @412
    ?FirstInit@AR6RagDoll@@UAEXPAVAR6AbstractPawn@@@Z @413
    ?FollowPath@AR6AIController@@QAEXW4eMovementPace@@VFName@@H@Z @414
    ?GetAnimDuration@UR6SubActionAnimSequence@@QAEMPAVUR6PlayAnim@@@Z @415
    ?GetAnimState@AR6Pawn@@QAEEXZ @416
    ?GetAnimation@UR6SubActionAnimSequence@@QAEPAVUR6PlayAnim@@M@Z @417
    ?GetCurAnimPct@UR6SubActionAnimSequence@@QAEMM@Z @418
    ?GetCurrentMaterial@AR6Pawn@@QAEEXZ @419
    ?GetDefaultHeightAndRadius@AR6Pawn@@QAEXAAM00@Z @420
    ?GetFootLocation@AR6Pawn@@QAE?AVFVector@@PAVAActor@@@Z @421
    ?GetHeadLocation@AR6Pawn@@QAE?AVFVector@@PAVAActor@@@Z @422
    ?GetKillTable@R6Charts@@QAEPAUstResultTable@@W4eBodyPart@@@Z @423
    ?GetLocKeyNameByActionKey@AR6PlayerController@@QAE?AVFString@@PBG@Z @424
    ?GetMaxFluidPeeking@AR6Pawn@@QAEMMH@Z @425
    ?GetMidSectionLocation@AR6Pawn@@QAE?AVFVector@@PAVAActor@@@Z @426
    ?GetMovementDirection@AR6Pawn@@QAE?AW4eMovementDirection@@XZ @427
    ?GetNbOfTerroristToSpawn@AR6DZoneRandomPoints@@UAEHXZ @428
    ?GetNbOfTerroristToSpawn@AR6DeploymentZone@@UAEHXZ @429
    ?GetPeekingRatioNorm@AR6Pawn@@QAEMM@Z @430
    ?GetRotValueCenteredAroundZero@AR6Pawn@@QAEHH@Z @431
    ?GetRotationOffset@AR6Pawn@@QAE?AVFRotator@@XZ @432
    ?GetSoundGunType@AR6Pawn@@QAEEH@Z @433
    ?GetStatString@UR6SubActionAnimSequence@@UAE?AVFString@@XZ @434
    ?GetStatString@UR6SubActionLookAt@@UAE?AVFString@@XZ @435
    ?GetStatusOtherTeam@AR6Pawn@@UAEEXZ @436
    ?GetStunTable@R6Charts@@QAEPAUstResultTable@@W4eBodyPart@@@Z @437
    ?GetTeamColor@AR6Pawn@@UAEEXZ @438
    ?GetTeamLeftOfDoorPosition@AR6RainbowAI@@QAE?AVFVector@@HPAVAR6Door@@@Z @439
    ?GetTeamManager@AR6PlayerController@@UAEPAVAActor@@XZ @440
    ?GetTeamManager@AR6RainbowAI@@UAEPAVAActor@@XZ @441
    ?GetTeamRightOfDoorPosition@AR6RainbowAI@@QAE?AVFVector@@HPAVAR6Door@@@Z @442
    ?GetTotalLength@UR6SubActionAnimSequence@@QAEMXZ @443
    ?GetViewRotation@AR6Pawn@@UAE?AVFRotator@@XZ @444
    ?GotoOpenDoorState@AR6AIController@@QAEXPAVAActor@@@Z @445
    ?HaveAClearShot@AR6TerroristAI@@QAEHVFVector@@PAVAPawn@@@Z @446
    ?HaveHostage@AR6DeploymentZone@@QAEHXZ @447
    ?HavePlaceForPawnAt@AR6DeploymentZone@@QAEHAAVFVector@@@Z @448
    ?HaveTerrorist@AR6DeploymentZone@@QAEHXZ @449
    ?HearingCheck@AR6AIController@@QAEHVFVector@@0@Z @450
    ?HurtByVolume@AR6Pawn@@UAEHPAVAActor@@@Z @451
    ?IncrementSequence@UR6SubActionAnimSequence@@QAEHXZ @452
    ?InitForPathFinding@AR6ClimbablePoint@@UAEXXZ @453
    ?InitHostageAI@AR6DeploymentZone@@QAEXPAVFR6CharTemplate@@PAVAR6Hostage@@@Z @454
    ?InitTerroristAI@AR6DeploymentZone@@UAEXPAVFR6CharTemplate@@PAVAR6Terrorist@@@Z @455
    ?InternalConstructor@AMP2IOKarma@@SAXPAX@Z @456
    ?InternalConstructor@AR6AIController@@SAXPAX@Z @457
    ?InternalConstructor@AR6ClimbableObject@@SAXPAX@Z @458
    ?InternalConstructor@AR6ClimbablePoint@@SAXPAX@Z @459
    ?InternalConstructor@AR6CoverSpot@@SAXPAX@Z @460
    ?InternalConstructor@AR6DZoneCircle@@SAXPAX@Z @461
    ?InternalConstructor@AR6DZonePath@@SAXPAX@Z @462
    ?InternalConstructor@AR6DZonePathNode@@SAXPAX@Z @463
    ?InternalConstructor@AR6DZonePoint@@SAXPAX@Z @464
    ?InternalConstructor@AR6DZoneRandomPointNode@@SAXPAX@Z @465
    ?InternalConstructor@AR6DZoneRandomPoints@@SAXPAX@Z @466
    ?InternalConstructor@AR6DZoneRectangle@@SAXPAX@Z @467
    ?InternalConstructor@AR6DeploymentZone@@SAXPAX@Z @468
    ?InternalConstructor@AR6Door@@SAXPAX@Z @469
    ?InternalConstructor@AR6EnvironmentNode@@SAXPAX@Z @470
    ?InternalConstructor@AR6FalseHeartBeat@@SAXPAX@Z @471
    ?InternalConstructor@AR6GameReplicationInfo@@SAXPAX@Z @472
    ?InternalConstructor@AR6GenericHB@@SAXPAX@Z @473
    ?InternalConstructor@AR6Hostage@@SAXPAX@Z @474
    ?InternalConstructor@AR6HostageAI@@SAXPAX@Z @475
    ?InternalConstructor@AR6IActionObject@@SAXPAX@Z @476
    ?InternalConstructor@AR6IOBomb@@SAXPAX@Z @477
    ?InternalConstructor@AR6IOObject@@SAXPAX@Z @478
    ?InternalConstructor@AR6IORotatingDoor@@SAXPAX@Z @479
    ?InternalConstructor@AR6IOSound@@SAXPAX@Z @480
    ?InternalConstructor@AR6InteractiveObject@@SAXPAX@Z @481
    ?InternalConstructor@AR6Ladder@@SAXPAX@Z @482
    ?InternalConstructor@AR6LadderVolume@@SAXPAX@Z @483
    ?InternalConstructor@AR6MatineeHostage@@SAXPAX@Z @484
    ?InternalConstructor@AR6MatineeRainbow@@SAXPAX@Z @485
    ?InternalConstructor@AR6MatineeTerrorist@@SAXPAX@Z @486
    ?InternalConstructor@AR6Pawn@@SAXPAX@Z @487
    ?InternalConstructor@AR6PlayerController@@SAXPAX@Z @488
    ?InternalConstructor@AR6RagDoll@@SAXPAX@Z @489
    ?InternalConstructor@AR6Rainbow@@SAXPAX@Z @490
    ?InternalConstructor@AR6RainbowAI@@SAXPAX@Z @491
    ?InternalConstructor@AR6RainbowTeam@@SAXPAX@Z @492
    ?InternalConstructor@AR6SAHeartBeatJammer@@SAXPAX@Z @493
    ?InternalConstructor@AR6SoundReplicationInfo@@SAXPAX@Z @494
    ?InternalConstructor@AR6StairOrientation@@SAXPAX@Z @495
    ?InternalConstructor@AR6StairVolume@@SAXPAX@Z @496
    ?InternalConstructor@AR6Stairs@@SAXPAX@Z @497
    ?InternalConstructor@AR6TeamMemberReplicationInfo@@SAXPAX@Z @498
    ?InternalConstructor@AR6Terrorist@@SAXPAX@Z @499
    ?InternalConstructor@AR6TerroristAI@@SAXPAX@Z @500
    ?InternalConstructor@UR6MatineeAttach@@SAXPAX@Z @501
    ?InternalConstructor@UR6PlayAnim@@SAXPAX@Z @502
    ?InternalConstructor@UR6SubActionAnimSequence@@SAXPAX@Z @503
    ?InternalConstructor@UR6SubActionLookAt@@SAXPAX@Z @504
    ?InternalConstructor@UR6TerroristMgr@@SAXPAX@Z @505
    ?IsAnimAtFrame@UR6SubActionAnimSequence@@QAEHHH@Z @506
    ?IsBlockedBy@AR6FalseHeartBeat@@UBEHPBVAActor@@@Z @507
    ?IsCrawling@AR6Pawn@@QAEHXZ @508
    ?IsMovingBrush@AR6IORotatingDoor@@UBEHXZ @509
    ?IsNetRelevantFor@AR6SoundReplicationInfo@@UAEHPAVAPlayerController@@PAVAActor@@VFVector@@@Z @510
    ?IsNetRelevantFor@AR6TeamMemberReplicationInfo@@UAEHPAVAPlayerController@@PAVAActor@@VFVector@@@Z @511
    ?IsOverLedge@AR6Pawn@@UAEHPAVAActor@@VFVector@@M@Z @512
    ?IsPointInZone@AR6DZonePath@@UAEHABVFVector@@@Z @513
    ?IsPointInZone@AR6DZonePoint@@UAEHABVFVector@@@Z @514
    ?IsPointInZone@AR6DZoneRandomPoints@@UAEHABVFVector@@@Z @515
    ?IsPointInZone@AR6DeploymentZone@@UAEHABVFVector@@@Z @516
    ?IsRelevantToPawn@AR6FalseHeartBeat@@UAEHPAVAPawn@@@Z @517
    ?IsRelevantToPawnHeartBeat@AR6FalseHeartBeat@@UAEHPAVAPawn@@@Z @518
    ?IsRelevantToPawnHeartBeat@AR6Pawn@@UAEHPAVAPawn@@@Z @519
    ?IsRelevantToPawnHeatVision@AR6Pawn@@UAEHPAVAPawn@@@Z @520
    ?IsRelevantToTeamMember@AR6TeamMemberReplicationInfo@@QAEHPAVAPawn@@@Z @521
    ?IsUsingHeartBeatSensor@AR6Pawn@@QAEHXZ @522
    ?KMP2DynKarmaInterface@AMP2IOKarma@@UAEHHVFVector@@VFRotator@@PAVAActor@@@Z @523
    ?LaunchSequence@UR6SubActionAnimSequence@@QAEHXZ @524
    ?LookAroundRoom@AR6RainbowAI@@QAEXH@Z @525
    ?NeedToOpenDoor@AR6AIController@@QAEHPAVAActor@@@Z @526
    ?PawnLook@AR6Pawn@@QAEXVFRotator@@HH@Z @527
    ?PawnLookAbsolute@AR6Pawn@@QAEXVFRotator@@HH@Z @528
    ?PawnLookAt@AR6Pawn@@QAEXVFVector@@HH@Z @529
    ?PawnSetBoneRotation@AR6Pawn@@QAEXVFName@@HHHM@Z @530
    ?PawnTrackActor@AR6Pawn@@QAEXPAVAActor@@H@Z @531
    ?PctToFrameNumber@UR6SubActionAnimSequence@@QAEMPAVUR6PlayAnim@@M@Z @532
    ?PickActorAdjust@AR6Pawn@@QAEHPAVAActor@@@Z @533
    ?PlayPriority@AR6PlayerController@@QAEHH@Z @534
    ?PlayVoicesPriority@AR6PlayerController@@QAEXXZ @535
    ?PlayWeaponSound@AR6SoundReplicationInfo@@QAEXW4EWeaponSound@@E@Z @536
    ?PostNetReceive@AR6IORotatingDoor@@UAEXXZ @537
    ?PostNetReceive@AR6InteractiveObject@@UAEXXZ @538
    ?PostNetReceive@AR6Pawn@@UAEXXZ @539
    ?PostNetReceive@AR6PlayerController@@UAEXXZ @540
    ?PostNetReceive@AR6SoundReplicationInfo@@UAEXXZ @541
    ?PostNetReceive@AR6Terrorist@@UAEXXZ @542
    ?PostScriptDestroyed@AR6ClimbableObject@@UAEXXZ @543
    ?PostScriptDestroyed@AR6DZonePath@@UAEXXZ @544
    ?PostScriptDestroyed@AR6DZonePathNode@@UAEXXZ @545
    ?PostScriptDestroyed@AR6DZoneRandomPointNode@@UAEXXZ @546
    ?PostScriptDestroyed@AR6DZoneRandomPoints@@UAEXXZ @547
    ?PostScriptDestroyed@AR6IORotatingDoor@@UAEXXZ @548
    ?PostScriptDestroyed@AR6InteractiveObject@@UAEXXZ @549
    ?PostScriptDestroyed@AR6StairOrientation@@UAEXXZ @550
    ?PostScriptDestroyed@AR6StairVolume@@UAEXXZ @551
    ?PreBeginPreview@UR6SubActionAnimSequence@@UAEXXZ @552
    ?PreNetReceive@AR6IORotatingDoor@@UAEXXZ @553
    ?PreNetReceive@AR6InteractiveObject@@UAEXXZ @554
    ?PreNetReceive@AR6Pawn@@UAEXXZ @555
    ?PreNetReceive@AR6PlayerController@@UAEXXZ @556
    ?PreNetReceive@AR6SoundReplicationInfo@@UAEXXZ @557
    ?PreNetReceive@AR6Terrorist@@UAEXXZ @558
    ?PrivateStaticClass@AMP2IOKarma@@0VUClass@@A @559
    ?PrivateStaticClass@AR6AIController@@0VUClass@@A @560
    ?PrivateStaticClass@AR6ClimbableObject@@0VUClass@@A @561
    ?PrivateStaticClass@AR6ClimbablePoint@@0VUClass@@A @562
    ?PrivateStaticClass@AR6CoverSpot@@0VUClass@@A @563
    ?PrivateStaticClass@AR6DZoneCircle@@0VUClass@@A @564
    ?PrivateStaticClass@AR6DZonePath@@0VUClass@@A @565
    ?PrivateStaticClass@AR6DZonePathNode@@0VUClass@@A @566
    ?PrivateStaticClass@AR6DZonePoint@@0VUClass@@A @567
    ?PrivateStaticClass@AR6DZoneRandomPointNode@@0VUClass@@A @568
    ?PrivateStaticClass@AR6DZoneRandomPoints@@0VUClass@@A @569
    ?PrivateStaticClass@AR6DZoneRectangle@@0VUClass@@A @570
    ?PrivateStaticClass@AR6DeploymentZone@@0VUClass@@A @571
    ?PrivateStaticClass@AR6Door@@0VUClass@@A @572
    ?PrivateStaticClass@AR6EnvironmentNode@@0VUClass@@A @573
    ?PrivateStaticClass@AR6FalseHeartBeat@@0VUClass@@A @574
    ?PrivateStaticClass@AR6GameReplicationInfo@@0VUClass@@A @575
    ?PrivateStaticClass@AR6GenericHB@@0VUClass@@A @576
    ?PrivateStaticClass@AR6Hostage@@0VUClass@@A @577
    ?PrivateStaticClass@AR6HostageAI@@0VUClass@@A @578
    ?PrivateStaticClass@AR6IActionObject@@0VUClass@@A @579
    ?PrivateStaticClass@AR6IOBomb@@0VUClass@@A @580
    ?PrivateStaticClass@AR6IOObject@@0VUClass@@A @581
    ?PrivateStaticClass@AR6IORotatingDoor@@0VUClass@@A @582
    ?PrivateStaticClass@AR6IOSound@@0VUClass@@A @583
    ?PrivateStaticClass@AR6InteractiveObject@@0VUClass@@A @584
    ?PrivateStaticClass@AR6Ladder@@0VUClass@@A @585
    ?PrivateStaticClass@AR6LadderVolume@@0VUClass@@A @586
    ?PrivateStaticClass@AR6MatineeHostage@@0VUClass@@A @587
    ?PrivateStaticClass@AR6MatineeRainbow@@0VUClass@@A @588
    ?PrivateStaticClass@AR6MatineeTerrorist@@0VUClass@@A @589
    ?PrivateStaticClass@AR6Pawn@@0VUClass@@A @590
    ?PrivateStaticClass@AR6PlayerController@@0VUClass@@A @591
    ?PrivateStaticClass@AR6RagDoll@@0VUClass@@A @592
    ?PrivateStaticClass@AR6Rainbow@@0VUClass@@A @593
    ?PrivateStaticClass@AR6RainbowAI@@0VUClass@@A @594
    ?PrivateStaticClass@AR6RainbowTeam@@0VUClass@@A @595
    ?PrivateStaticClass@AR6SAHeartBeatJammer@@0VUClass@@A @596
    ?PrivateStaticClass@AR6SoundReplicationInfo@@0VUClass@@A @597
    ?PrivateStaticClass@AR6StairOrientation@@0VUClass@@A @598
    ?PrivateStaticClass@AR6StairVolume@@0VUClass@@A @599
    ?PrivateStaticClass@AR6Stairs@@0VUClass@@A @600
    ?PrivateStaticClass@AR6TeamMemberReplicationInfo@@0VUClass@@A @601
    ?PrivateStaticClass@AR6Terrorist@@0VUClass@@A @602
    ?PrivateStaticClass@AR6TerroristAI@@0VUClass@@A @603
    ?PrivateStaticClass@UR6MatineeAttach@@0VUClass@@A @604
    ?PrivateStaticClass@UR6PlayAnim@@0VUClass@@A @605
    ?PrivateStaticClass@UR6SubActionAnimSequence@@0VUClass@@A @606
    ?PrivateStaticClass@UR6SubActionLookAt@@0VUClass@@A @607
    ?PrivateStaticClass@UR6TerroristMgr@@0VUClass@@A @608
    ?ProscribedPathTo@AR6ClimbablePoint@@UAEHPAVANavigationPoint@@@Z @609
    ?PrunePaths@AR6Door@@UAEHXZ @610
    ?R6ENGINE_AdjustPawnForDiagonalStrafing@@3VFName@@A @611
    ?R6ENGINE_AnimFinished@@3VFName@@A @612
    ?R6ENGINE_AttackTimer@@3VFName@@A @613
    ?R6ENGINE_CanOpenDoor@@3VFName@@A @614
    ?R6ENGINE_ClientNotifySendMatchResults@@3VFName@@A @615
    ?R6ENGINE_ClientNotifySendStartMatch@@3VFName@@A @616
    ?R6ENGINE_ClientPlayVoices@@3VFName@@A @617
    ?R6ENGINE_ClientUpdateLadderStat@@3VFName@@A @618
    ?R6ENGINE_ClientVoteSessionAbort@@3VFName@@A @619
    ?R6ENGINE_EndCrawl@@3VFName@@A @620
    ?R6ENGINE_EndOfGrenadeEffect@@3VFName@@A @621
    ?R6ENGINE_EndPeekingMode@@3VFName@@A @622
    ?R6ENGINE_FinishInitialization@@3VFName@@A @623
    ?R6ENGINE_GetFiringStartPoint@@3VFName@@A @624
    ?R6ENGINE_GetRoundTime@@3VFName@@A @625
    ?R6ENGINE_GetStanceReticuleModifier@@3VFName@@A @626
    ?R6ENGINE_GetZoomMultiplyFactor@@3VFName@@A @627
    ?R6ENGINE_GotoCrouch@@3VFName@@A @628
    ?R6ENGINE_GotoFoetus@@3VFName@@A @629
    ?R6ENGINE_GotoKneel@@3VFName@@A @630
    ?R6ENGINE_GotoPointAndSearch@@3VFName@@A @631
    ?R6ENGINE_GotoPointToAttack@@3VFName@@A @632
    ?R6ENGINE_GotoProne@@3VFName@@A @633
    ?R6ENGINE_GotoStand@@3VFName@@A @634
    ?R6ENGINE_GotoStateEngageByThreat@@3VFName@@A @635
    ?R6ENGINE_InitBiPodPosture@@3VFName@@A @636
    ?R6ENGINE_IsFullPeekingOver@@3VFName@@A @637
    ?R6ENGINE_IsPeekingLeft@@3VFName@@A @638
    ?R6ENGINE_LoopSpecialAnim@@3VFName@@A @639
    ?R6ENGINE_OpenDoorFailed@@3VFName@@A @640
    ?R6ENGINE_PlayCrouchToProne@@3VFName@@A @641
    ?R6ENGINE_PlayFluidPeekingAnim@@3VFName@@A @642
    ?R6ENGINE_PlayPeekingAnim@@3VFName@@A @643
    ?R6ENGINE_PlayProneToCrouch@@3VFName@@A @644
    ?R6ENGINE_PlaySpecialAnim@@3VFName@@A @645
    ?R6ENGINE_PlaySpecialPendingAction@@3VFName@@A @646
    ?R6ENGINE_PlaySurfaceSwitch@@3VFName@@A @647
    ?R6ENGINE_PlayerTeamSelectionReceived@@3VFName@@A @648
    ?R6ENGINE_PostRender@@3VFName@@A @649
    ?R6ENGINE_PotentialOpenDoor@@3VFName@@A @650
    ?R6ENGINE_R6MakeMovementNoise@@3VFName@@A @651
    ?R6ENGINE_R6ResetLookDirection@@3VFName@@A @652
    ?R6ENGINE_R6SetMovement@@3VFName@@A @653
    ?R6ENGINE_ReinitSimulation@@3VFName@@A @654
    ?R6ENGINE_RemovePotentialOpenDoor@@3VFName@@A @655
    ?R6ENGINE_RequestFormationChange@@3VFName@@A @656
    ?R6ENGINE_ResetBipodPosture@@3VFName@@A @657
    ?R6ENGINE_ResetDiagonalStrafing@@3VFName@@A @658
    ?R6ENGINE_SequenceChanged@@3VFName@@A @659
    ?R6ENGINE_SequenceFinished@@3VFName@@A @660
    ?R6ENGINE_SetAnimInfo@@3VFName@@A @661
    ?R6ENGINE_SetCrouchBlend@@3VFName@@A @662
    ?R6ENGINE_SetNewDamageState@@3VFName@@A @663
    ?R6ENGINE_SetPeekingInfo@@3VFName@@A @664
    ?R6ENGINE_SetPotentialClimber@@3VFName@@A @665
    ?R6ENGINE_SetRotationOffset@@3VFName@@A @666
    ?R6ENGINE_SpawnRagDoll@@3VFName@@A @667
    ?R6ENGINE_StartCrawl@@3VFName@@A @668
    ?R6ENGINE_StartFluidPeeking@@3VFName@@A @669
    ?R6ENGINE_StartFullPeeking@@3VFName@@A @670
    ?R6ENGINE_StartSimulation@@3VFName@@A @671
    ?R6ENGINE_StopAttack@@3VFName@@A @672
    ?R6ENGINE_StopSimulation@@3VFName@@A @673
    ?R6ENGINE_StopSpecialAnim@@3VFName@@A @674
    ?R6ENGINE_TurnToFaceActor@@3VFName@@A @675
    ?R6ENGINE_UpdateBipodPosture@@3VFName@@A @676
    ?R6ENGINE_UpdateTeamFormation@@3VFName@@A @677
    ?R6ENGINE_ZDRSetDamageState@@3VFName@@A @678
    ?R6LineOfSightTo@AR6Pawn@@UAEKPAVAActor@@H@Z @679
    ?R6SeePawn@AR6Pawn@@UAEKPAVAPawn@@H@Z @680
    ?RenderBones@AR6RagDoll@@UAEXPAVUCanvas@@@Z @681
    ?RenderEditorInfo@AMP2IOKarma@@UAEXPAVFLevelSceneNode@@PAVFRenderInterface@@PAVFDynamicActor@@@Z @682
    ?RenderEditorInfo@AR6CoverSpot@@UAEXPAVFLevelSceneNode@@PAVFRenderInterface@@PAVFDynamicActor@@@Z @683
    ?RenderEditorInfo@AR6DZonePath@@UAEXPAVFLevelSceneNode@@PAVFRenderInterface@@PAVFDynamicActor@@@Z @684
    ?RenderEditorInfo@AR6DZonePathNode@@UAEXPAVFLevelSceneNode@@PAVFRenderInterface@@PAVFDynamicActor@@@Z @685
    ?RenderEditorInfo@AR6DZonePoint@@UAEXPAVFLevelSceneNode@@PAVFRenderInterface@@PAVFDynamicActor@@@Z @686
    ?RenderEditorInfo@AR6DZoneRandomPointNode@@UAEXPAVFLevelSceneNode@@PAVFRenderInterface@@PAVFDynamicActor@@@Z @687
    ?RenderEditorInfo@AR6DZoneRandomPoints@@UAEXPAVFLevelSceneNode@@PAVFRenderInterface@@PAVFDynamicActor@@@Z @688
    ?RenderEditorInfo@AR6DeploymentZone@@UAEXPAVFLevelSceneNode@@PAVFRenderInterface@@PAVFDynamicActor@@@Z @689
    ?RenderEditorInfo@AR6Door@@UAEXPAVFLevelSceneNode@@PAVFRenderInterface@@PAVFDynamicActor@@@Z @690
    ?RenderEditorInfo@AR6IORotatingDoor@@UAEXPAVFLevelSceneNode@@PAVFRenderInterface@@PAVFDynamicActor@@@Z @691
    ?RenderEditorInfo@AR6InteractiveObject@@UAEXPAVFLevelSceneNode@@PAVFRenderInterface@@PAVFDynamicActor@@@Z @692
    ?RenderEditorInfo@AR6StairVolume@@UAEXPAVFLevelSceneNode@@PAVFRenderInterface@@PAVFDynamicActor@@@Z @693
    ?ResetColBox@AR6Pawn@@QAEXXZ @694
    ?SatisfyConstraints@AR6RagDoll@@QAEXXZ @695
    ?SelectActorForSound@AR6PlayerController@@QAEPAVAActor@@PAVAR6SoundReplicationInfo@@@Z @696
    ?SetAudioInfo@AR6Pawn@@QAEHXZ @697
    ?SetDestinationToNextInCache@AR6AIController@@QAEHXZ @698
    ?SetPawnLookAndAimDirection@AR6Pawn@@QAEXVFRotator@@H@Z @699
    ?SetPawnLookDirection@AR6Pawn@@QAEXVFRotator@@H@Z @700
    ?SetPrePivot@AR6Pawn@@UAEXVFVector@@@Z @701
    ?ShouldTrace@AR6ClimbableObject@@UAEHPAVAActor@@K@Z @702
    ?ShouldTrace@AR6FalseHeartBeat@@UAEHPAVAActor@@K@Z @703
    ?ShouldTrace@AR6IORotatingDoor@@UAEHPAVAActor@@K@Z @704
    ?ShouldTrace@AR6InteractiveObject@@UAEHPAVAActor@@K@Z @705
    ?ShouldTrace@AR6LadderVolume@@UAEHPAVAActor@@K@Z @706
    ?SpawnAHostage@AR6DeploymentZone@@QAEXXZ @707
    ?SpawnANewNode@AR6DZonePath@@QAEXVFVector@@@Z @708
    ?SpawnANewNode@AR6DZoneRandomPoints@@QAEXVFVector@@@Z @709
    ?SpawnATerrorist@AR6DeploymentZone@@QAEXXZ @710
    ?Spawned@AR6DZonePath@@UAEXXZ @711
    ?Spawned@AR6DZonePoint@@UAEXXZ @712
    ?Spawned@AR6DZoneRandomPoints@@UAEXXZ @713
    ?Spawned@AR6DeploymentZone@@UAEXXZ @714
    ?Spawned@AR6StairVolume@@UAEXXZ @715
    ?StaticClass@AMP2IOKarma@@SAPAVUClass@@XZ @716
    ?StaticClass@AR6AIController@@SAPAVUClass@@XZ @717
    ?StaticClass@AR6ClimbableObject@@SAPAVUClass@@XZ @718
    ?StaticClass@AR6ClimbablePoint@@SAPAVUClass@@XZ @719
    ?StaticClass@AR6CoverSpot@@SAPAVUClass@@XZ @720
    ?StaticClass@AR6DZoneCircle@@SAPAVUClass@@XZ @721
    ?StaticClass@AR6DZonePath@@SAPAVUClass@@XZ @722
    ?StaticClass@AR6DZonePathNode@@SAPAVUClass@@XZ @723
    ?StaticClass@AR6DZonePoint@@SAPAVUClass@@XZ @724
    ?StaticClass@AR6DZoneRandomPointNode@@SAPAVUClass@@XZ @725
    ?StaticClass@AR6DZoneRandomPoints@@SAPAVUClass@@XZ @726
    ?StaticClass@AR6DZoneRectangle@@SAPAVUClass@@XZ @727
    ?StaticClass@AR6DeploymentZone@@SAPAVUClass@@XZ @728
    ?StaticClass@AR6Door@@SAPAVUClass@@XZ @729
    ?StaticClass@AR6EnvironmentNode@@SAPAVUClass@@XZ @730
    ?StaticClass@AR6FalseHeartBeat@@SAPAVUClass@@XZ @731
    ?StaticClass@AR6GameReplicationInfo@@SAPAVUClass@@XZ @732
    ?StaticClass@AR6GenericHB@@SAPAVUClass@@XZ @733
    ?StaticClass@AR6Hostage@@SAPAVUClass@@XZ @734
    ?StaticClass@AR6HostageAI@@SAPAVUClass@@XZ @735
    ?StaticClass@AR6IActionObject@@SAPAVUClass@@XZ @736
    ?StaticClass@AR6IOBomb@@SAPAVUClass@@XZ @737
    ?StaticClass@AR6IOObject@@SAPAVUClass@@XZ @738
    ?StaticClass@AR6IORotatingDoor@@SAPAVUClass@@XZ @739
    ?StaticClass@AR6IOSound@@SAPAVUClass@@XZ @740
    ?StaticClass@AR6InteractiveObject@@SAPAVUClass@@XZ @741
    ?StaticClass@AR6Ladder@@SAPAVUClass@@XZ @742
    ?StaticClass@AR6LadderVolume@@SAPAVUClass@@XZ @743
    ?StaticClass@AR6MatineeHostage@@SAPAVUClass@@XZ @744
    ?StaticClass@AR6MatineeRainbow@@SAPAVUClass@@XZ @745
    ?StaticClass@AR6MatineeTerrorist@@SAPAVUClass@@XZ @746
    ?StaticClass@AR6Pawn@@SAPAVUClass@@XZ @747
    ?StaticClass@AR6PlayerController@@SAPAVUClass@@XZ @748
    ?StaticClass@AR6RagDoll@@SAPAVUClass@@XZ @749
    ?StaticClass@AR6Rainbow@@SAPAVUClass@@XZ @750
    ?StaticClass@AR6RainbowAI@@SAPAVUClass@@XZ @751
    ?StaticClass@AR6RainbowTeam@@SAPAVUClass@@XZ @752
    ?StaticClass@AR6SAHeartBeatJammer@@SAPAVUClass@@XZ @753
    ?StaticClass@AR6SoundReplicationInfo@@SAPAVUClass@@XZ @754
    ?StaticClass@AR6StairOrientation@@SAPAVUClass@@XZ @755
    ?StaticClass@AR6StairVolume@@SAPAVUClass@@XZ @756
    ?StaticClass@AR6Stairs@@SAPAVUClass@@XZ @757
    ?StaticClass@AR6TeamMemberReplicationInfo@@SAPAVUClass@@XZ @758
    ?StaticClass@AR6Terrorist@@SAPAVUClass@@XZ @759
    ?StaticClass@AR6TerroristAI@@SAPAVUClass@@XZ @760
    ?StaticClass@UR6MatineeAttach@@SAPAVUClass@@XZ @761
    ?StaticClass@UR6PlayAnim@@SAPAVUClass@@XZ @762
    ?StaticClass@UR6SubActionAnimSequence@@SAPAVUClass@@XZ @763
    ?StaticClass@UR6SubActionLookAt@@SAPAVUClass@@XZ @764
    ?StaticClass@UR6TerroristMgr@@SAPAVUClass@@XZ @765
    ?StopAndRemoveVoices@AR6PlayerController@@QAEXAAH@Z @766
    ?StopWeaponSound@AR6SoundReplicationInfo@@QAEXXZ @767
    ?Tick@AR6PlayerController@@UAEHMW4ELevelTick@@@Z @768
    ?Tick@AR6RagDoll@@UAEHMW4ELevelTick@@@Z @769
    ?TickSpecial@AR6Pawn@@UAEXM@Z @770
    ?TickSpecial@AR6SoundReplicationInfo@@UAEXM@Z @771
    ?TickSpecial@AR6TeamMemberReplicationInfo@@UAEXM@Z @772
    ?UnCrawl@AR6Pawn@@QAEXH@Z @773
    ?Update@UR6SubActionAnimSequence@@UAEHMPAVASceneManager@@@Z @774
    ?Update@UR6SubActionLookAt@@UAEHMPAVASceneManager@@@Z @775
    ?UpdateAiming@AR6Rainbow@@QAEXXZ @776
    ?UpdateAiming@AR6Terrorist@@QAEXM@Z @777
    ?UpdateCircumstantialAction@AR6PlayerController@@UAEXXZ @778
    ?UpdateColBox@AR6Pawn@@UAEXAAVFVector@@HHH@Z @779
    ?UpdateColBoxPeeking@AR6Pawn@@QAEMM@Z @780
    ?UpdateFullPeekingMode@AR6Pawn@@QAEXM@Z @781
    ?UpdateGame@UR6SubActionAnimSequence@@UAEHMPAVASceneManager@@@Z @782
    ?UpdateMovementAnimation@AR6Pawn@@UAEXM@Z @783
    ?UpdatePawnTrackActor@AR6Pawn@@QAEXH@Z @784
    ?UpdatePeeking@AR6Pawn@@QAEXM@Z @785
    ?UpdateReticule@AR6PlayerController@@QAEXM@Z @786
    ?UpdateReticuleIdentification@AR6PlayerController@@QAEXPAVAActor@@@Z @787
    ?UpdateSpectatorReticule@AR6PlayerController@@QAEXXZ @788
    ?UpdateTimers@AR6RainbowAI@@UAEXM@Z @789
    ?VerletIntegration@AR6RagDoll@@QAEXM@Z @790
    ?WeaponFollow@AR6Pawn@@QAEXHM@Z @791
    ?WeaponIsAGadget@AR6Pawn@@QAEHXZ @792
    ?WeaponLock@AR6Pawn@@QAEXHMM@Z @793
    ?WeaponShouldFollowHead@AR6Pawn@@QAEHXZ @794
    ?WillOpenOnTouch@AR6IORotatingDoor@@QAEHPAVAR6Pawn@@@Z @795
    ; __FUNC_NAME__ debug static omitted — scope-numbering divergence (ordinal 796 reserved)
    ?actorReachableFromLocation@AR6Pawn@@QAEHPAVAActor@@VFVector@@@Z @797
    ?addReachSpecs@AR6ClimbablePoint@@UAEXPAVAPawn@@H@Z @798
    ?addReachSpecs@AR6Door@@UAEXPAVAPawn@@H@Z @799
    ?calcVelocity@AR6Pawn@@UAEXVFVector@@MMMHHH@Z @800
    ?checkEnvironment@AR6RainbowAI@@QAEXXZ @801
    ?eventAdjustPawnForDiagonalStrafing@AR6Pawn@@QAEXXZ @802
    ?eventAnimFinished@UR6PlayAnim@@QAEXXZ @803
    ?eventAttackTimer@AR6RainbowAI@@QAEXXZ @804
    ?eventCanOpenDoor@AR6AIController@@QAEKPAVAR6IORotatingDoor@@@Z @805
    ?eventClientNotifySendMatchResults@AR6PlayerController@@QAEXXZ @806
    ?eventClientNotifySendStartMatch@AR6PlayerController@@QAEXXZ @807
    ?eventClientPlayVoices@AR6PlayerController@@QAEXPAVAR6SoundReplicationInfo@@PAVUSound@@EHKM@Z @808
    ?eventClientUpdateLadderStat@AR6PlayerController@@QAEXABVFString@@HHM@Z @809
    ?eventClientVoteSessionAbort@AR6PlayerController@@QAEXABVFString@@@Z @810
    ?eventEndCrawl@AR6Pawn@@QAEXXZ @811
    ?eventEndOfGrenadeEffect@AR6Pawn@@QAEXE@Z @812
    ?eventEndPeekingMode@AR6Pawn@@QAEXE@Z @813
    ?eventFinishInitialization@AR6Hostage@@QAEXXZ @814
    ?eventFinishInitialization@AR6Terrorist@@QAEXXZ @815
    ?eventGetFiringStartPoint@AR6Pawn@@QAE?AVFVector@@XZ @816
    ?eventGetRoundTime@AR6GameReplicationInfo@@QAEMXZ @817
    ?eventGetStanceReticuleModifier@AR6Pawn@@QAEMXZ @818
    ?eventGetZoomMultiplyFactor@AR6PlayerController@@QAEMM@Z @819
    ?eventGotoCrouch@AR6Hostage@@QAEXXZ @820
    ?eventGotoFoetus@AR6Hostage@@QAEXXZ @821
    ?eventGotoKneel@AR6Hostage@@QAEXXZ @822
    ?eventGotoPointAndSearch@AR6TerroristAI@@QAEXVFVector@@EKME@Z @823
    ?eventGotoPointToAttack@AR6TerroristAI@@QAEXVFVector@@PAVAActor@@@Z @824
    ?eventGotoProne@AR6Hostage@@QAEXXZ @825
    ?eventGotoStand@AR6Hostage@@QAEXXZ @826
    ?eventGotoStateEngageByThreat@AR6TerroristAI@@QAEXVFVector@@@Z @827
    ?eventInitBiPodPosture@AR6Pawn@@QAEXK@Z @828
    ?eventIsFullPeekingOver@AR6Pawn@@QAEKXZ @829
    ?eventIsPeekingLeft@AR6Pawn@@QAEKXZ @830
    ?eventLoopSpecialAnim@AR6Terrorist@@QAEXXZ @831
    ?eventOpenDoorFailed@AR6AIController@@QAEXXZ @832
    ?eventPlayCrouchToProne@AR6Pawn@@QAEXK@Z @833
    ?eventPlayFluidPeekingAnim@AR6Pawn@@QAEXMMM@Z @834
    ?eventPlayPeekingAnim@AR6Pawn@@QAEXK@Z @835
    ?eventPlayProneToCrouch@AR6Pawn@@QAEXK@Z @836
    ?eventPlaySpecialAnim@AR6Terrorist@@QAEXXZ @837
    ?eventPlaySpecialPendingAction@AR6Pawn@@QAEXEH@Z @838
    ?eventPlaySurfaceSwitch@AR6Pawn@@QAEXXZ @839
    ?eventPlayerTeamSelectionReceived@AR6PlayerController@@QAEXXZ @840
    ?eventPostRender@AR6PlayerController@@QAEXPAVUCanvas@@@Z @841
    ?eventPotentialOpenDoor@AR6Pawn@@QAEXPAVAR6Door@@@Z @842
    ?eventR6MakeMovementNoise@AR6Pawn@@QAEXXZ @843
    ?eventR6ResetLookDirection@AR6Pawn@@QAEXXZ @844
    ?eventR6SetMovement@AR6AIController@@QAEXE@Z @845
    ?eventReinitSimulation@AMP2IOKarma@@QAEXH@Z @846
    ?eventRemovePotentialOpenDoor@AR6Pawn@@QAEXPAVAR6Door@@@Z @847
    ?eventRequestFormationChange@AR6RainbowTeam@@QAEXE@Z @848
    ?eventResetBipodPosture@AR6Pawn@@QAEXXZ @849
    ?eventResetDiagonalStrafing@AR6Pawn@@QAEXXZ @850
    ?eventSequenceChanged@UR6SubActionAnimSequence@@QAEXXZ @851
    ?eventSequenceFinished@UR6SubActionAnimSequence@@QAEXXZ @852
    ?eventSetAnimInfo@AR6Hostage@@QAEXH@Z @853
    ?eventSetCrouchBlend@AR6Pawn@@QAEXM@Z @854
    ?eventSetCrouchBlend@AR6PlayerController@@QAEXM@Z @855
    ?eventSetNewDamageState@AR6InteractiveObject@@QAEXM@Z @856
    ?eventSetPeekingInfo@AR6Pawn@@QAEXEMK@Z @857
    ?eventSetPotentialClimber@AR6LadderVolume@@QAEXXZ @858
    ?eventSetRotationOffset@AR6Pawn@@QAEXHHH@Z @859
    ?eventSpawnRagDoll@AR6Pawn@@QAEXXZ @860
    ?eventStartCrawl@AR6Pawn@@QAEXXZ @861
    ?eventStartFluidPeeking@AR6Pawn@@QAEXXZ @862
    ?eventStartFullPeeking@AR6Pawn@@QAEXXZ @863
    ?eventStartSimulation@AMP2IOKarma@@QAEXH@Z @864
    ?eventStopAttack@AR6RainbowAI@@QAEXXZ @865
    ?eventStopSimulation@AMP2IOKarma@@QAEXH@Z @866
    ?eventStopSpecialAnim@AR6Terrorist@@QAEXXZ @867
    ?eventTurnToFaceActor@AR6Pawn@@QAEXPAVAActor@@@Z @868
    ?eventUpdateBipodPosture@AR6Pawn@@QAEXXZ @869
    ?eventUpdateTeamFormation@AR6RainbowTeam@@QAEXE@Z @870
    ?eventZDRSetDamageState@AMP2IOKarma@@QAEXHMVFVector@@@Z @871
    ?execAClearShotIsAvailable@AR6RainbowAI@@QAEXAAUFFrame@@QAX@Z @872
    ?execActorReachableFromLocation@AR6AIController@@QAEXAAUFFrame@@QAX@Z @873
    ?execAddBreach@AR6IORotatingDoor@@QAEXAAUFFrame@@QAX@Z @874
    ?execAddHostage@AR6DeploymentZone@@QAEXAAUFFrame@@QAX@Z @875
    ?execAdjustFluidCollisionCylinder@AR6Pawn@@QAEXAAUFFrame@@QAX@Z @876
    ?execCallBackupForAttack@AR6TerroristAI@@QAEXAAUFFrame@@QAX@Z @877
    ?execCallBackupForInvestigation@AR6TerroristAI@@QAEXAAUFFrame@@QAX@Z @878
    ?execCallVisibleTerrorist@AR6TerroristAI@@QAEXAAUFFrame@@QAX@Z @879
    ?execCanWalkTo@AR6AIController@@QAEXAAUFFrame@@QAX@Z @880
    ?execCheckCylinderTranslation@AR6Pawn@@QAEXAAUFFrame@@QAX@Z @881
    ?execCheckEnvironment@AR6RainbowAI@@QAEXAAUFFrame@@QAX@Z @882
    ?execClearToSnipe@AR6RainbowAI@@QAEXAAUFFrame@@QAX@Z @883
    ?execDebugFunction@AR6PlayerController@@QAEXAAUFFrame@@QAX@Z @884
    ?execFindBetterShotLocation@AR6TerroristAI@@QAEXAAUFFrame@@QAX@Z @885
    ?execFindClosestPointTo@AR6DeploymentZone@@QAEXAAUFFrame@@QAX@Z @886
    ?execFindGrenadeDirectionToHitActor@AR6AIController@@QAEXAAUFFrame@@QAX@Z @887
    ?execFindInvestigationPoint@AR6AIController@@QAEXAAUFFrame@@QAX@Z @888
    ?execFindNearbyWaitSpot@AR6AIController@@QAEXAAUFFrame@@QAX@Z @889
    ?execFindNearestZoneForHostage@UR6TerroristMgr@@QAEXAAUFFrame@@QAX@Z @890
    ?execFindPlaceToFire@AR6AIController@@QAEXAAUFFrame@@QAX@Z @891
    ?execFindPlaceToTakeCover@AR6AIController@@QAEXAAUFFrame@@QAX@Z @892
    ?execFindPlayer@AR6PlayerController@@QAEXAAUFFrame@@QAX@Z @893
    ?execFindRandomPointInArea@AR6DeploymentZone@@QAEXAAUFFrame@@QAX@Z @894
    ?execFindSafeSpot@AR6RainbowAI@@QAEXAAUFFrame@@QAX@Z @895
    ?execFirstInit@AR6DeploymentZone@@QAEXAAUFFrame@@QAX@Z @896
    ?execFollowPath@AR6AIController@@QAEXAAUFFrame@@QAX@Z @897
    ?execFollowPathTo@AR6AIController@@QAEXAAUFFrame@@QAX@Z @898
    ?execFootStep@AR6Pawn@@QAEXAAUFFrame@@QAX@Z @899
    ?execGetBoneInformation@UR6MatineeAttach@@QAEXAAUFFrame@@QAX@Z @900
    ?execGetClosestHostage@AR6DeploymentZone@@QAEXAAUFFrame@@QAX@Z @901
    ?execGetEntryPosition@AR6RainbowAI@@QAEXAAUFFrame@@QAX@Z @902
    ?execGetGuardPosition@AR6RainbowAI@@QAEXAAUFFrame@@QAX@Z @903
    ?execGetKillResult@AR6Pawn@@QAEXAAUFFrame@@QAX@Z @904
    ?execGetLadderPosition@AR6RainbowAI@@QAEXAAUFFrame@@QAX@Z @905
    ?execGetLocStringWithActionKey@AR6PlayerController@@QAEXAAUFFrame@@QAX@Z @906
    ?execGetMaxRotationOffset@AR6Pawn@@QAEXAAUFFrame@@QAX@Z @907
    ?execGetMovementDirection@AR6Pawn@@QAEXAAUFFrame@@QAX@Z @908
    ?execGetNextRandomNode@AR6TerroristAI@@QAEXAAUFFrame@@QAX@Z @909
    ?execGetPeekingRatioNorm@AR6Pawn@@QAEXAAUFFrame@@QAX@Z @910
    ?execGetRotationOffset@AR6Pawn@@QAEXAAUFFrame@@QAX@Z @911
    ?execGetStunResult@AR6Pawn@@QAEXAAUFFrame@@QAX@Z @912
    ?execGetTargetPosition@AR6RainbowAI@@QAEXAAUFFrame@@QAX@Z @913
    ?execGetThroughResult@AR6Pawn@@QAEXAAUFFrame@@QAX@Z @914
    ?execGotoOpenDoorState@AR6AIController@@QAEXAAUFFrame@@QAX@Z @915
    ?execHaveAClearShot@AR6TerroristAI@@QAEXAAUFFrame@@QAX@Z @916
    ?execHaveHostage@AR6DeploymentZone@@QAEXAAUFFrame@@QAX@Z @917
    ?execHaveTerrorist@AR6DeploymentZone@@QAEXAAUFFrame@@QAX@Z @918
    ?execInit@UR6TerroristMgr@@QAEXAAUFFrame@@QAX@Z @919
    ?execIsAttackSpotStillValid@AR6TerroristAI@@QAEXAAUFFrame@@QAX@Z @920
    ?execIsPointInZone@AR6DeploymentZone@@QAEXAAUFFrame@@QAX@Z @921
    ?execLocalizeTraining@AR6PlayerController@@QAEXAAUFFrame@@QAX@Z @922
    ?execLookAroundRoom@AR6RainbowAI@@QAEXAAUFFrame@@QAX@Z @923
    ?execMP2IOKarmaAllNativeFct@AMP2IOKarma@@QAEXAAUFFrame@@QAX@Z @924
    ?execMakeBackupList@AR6TerroristAI@@QAEXAAUFFrame@@QAX@Z @925
    ?execMakePathToRun@AR6AIController@@QAEXAAUFFrame@@QAX@Z @926
    ?execMoveHitBone@AR6Pawn@@QAEXAAUFFrame@@QAX@Z @927
    ?execMoveToPosition@AR6AIController@@QAEXAAUFFrame@@QAX@Z @928
    ?execNeedToOpenDoor@AR6AIController@@QAEXAAUFFrame@@QAX@Z @929
    ?execOrderTerroListFromDistanceTo@AR6DeploymentZone@@QAEXAAUFFrame@@QAX@Z @930
    ?execPawnCanBeHurtFrom@AR6Pawn@@QAEXAAUFFrame@@QAX@Z @931
    ?execPawnLook@AR6Pawn@@QAEXAAUFFrame@@QAX@Z @932
    ?execPawnLookAbsolute@AR6Pawn@@QAEXAAUFFrame@@QAX@Z @933
    ?execPawnLookAt@AR6Pawn@@QAEXAAUFFrame@@QAX@Z @934
    ?execPawnTrackActor@AR6Pawn@@QAEXAAUFFrame@@QAX@Z @935
    ?execPickActorAdjust@AR6AIController@@QAEXAAUFFrame@@QAX@Z @936
    ?execPlayLocalWeaponSound@AR6SoundReplicationInfo@@QAEXAAUFFrame@@QAX@Z @937
    ?execPlayVoices@AR6Pawn@@QAEXAAUFFrame@@QAX@Z @938
    ?execPlayVoicesPriority@AR6PlayerController@@QAEXAAUFFrame@@QAX@Z @939
    ?execPlayWeaponSound@AR6SoundReplicationInfo@@QAEXAAUFFrame@@QAX@Z @940
    ?execPollFollowPath@AR6AIController@@QAEXAAUFFrame@@QAX@Z @941
    ?execPollFollowPathBlocked@AR6AIController@@QAEXAAUFFrame@@QAX@Z @942
    ?execPollMoveToPosition@AR6AIController@@QAEXAAUFFrame@@QAX@Z @943
    ?execR6GetViewRotation@AR6Pawn@@QAEXAAUFFrame@@QAX@Z @944
    ?execRemoveBreach@AR6IORotatingDoor@@QAEXAAUFFrame@@QAX@Z @945
    ?execSendPlaySound@AR6Pawn@@QAEXAAUFFrame@@QAX@Z @946
    ?execSetAudioInfo@AR6Pawn@@QAEXAAUFFrame@@QAX@Z @947
    ?execSetOrientation@AR6RainbowAI@@QAEXAAUFFrame@@QAX@Z @948
    ?execSetPawnScale@AR6Pawn@@QAEXAAUFFrame@@QAX@Z @949
    ?execStartLipSynch@AR6Pawn@@QAEXAAUFFrame@@QAX@Z @950
    ?execStopLipSynch@AR6Pawn@@QAEXAAUFFrame@@QAX@Z @951
    ?execStopWeaponSound@AR6SoundReplicationInfo@@QAEXAAUFFrame@@QAX@Z @952
    ?execTestLocation@UR6MatineeAttach@@QAEXAAUFFrame@@QAX@Z @953
    ?execToggleHeatProperties@AR6Pawn@@QAEXAAUFFrame@@QAX@Z @954
    ?execToggleNightProperties@AR6Pawn@@QAEXAAUFFrame@@QAX@Z @955
    ?execToggleScopeProperties@AR6Pawn@@QAEXAAUFFrame@@QAX@Z @956
    ?execUpdateCircumstantialAction@AR6PlayerController@@QAEXAAUFFrame@@QAX@Z @957
    ?execUpdatePawnTrackActor@AR6Pawn@@QAEXAAUFFrame@@QAX@Z @958
    ?execUpdateReticule@AR6PlayerController@@QAEXAAUFFrame@@QAX@Z @959
    ?execUpdateSpectatorReticule@AR6PlayerController@@QAEXAAUFFrame@@QAX@Z @960
    ?execWillOpenOnTouch@AR6IORotatingDoor@@QAEXAAUFFrame@@QAX@Z @961
    ?getChanceFromArrayTemplates@AR6DeploymentZone@@QAEHPAUFSTTemplate@@H@Z @962
    ?getEntryPosition@AR6RainbowAI@@QAE?AVFVector@@XZ @963
    ?getGuardPosition@AR6RainbowAI@@QAE?AVFVector@@XZ @964
    ?getLadderPosition@AR6RainbowAI@@QAE?AVFVector@@XZ @965
    ?getMaxRotationOffset@AR6Pawn@@QAEHH@Z @966
    ?getPreEntryPosition@AR6RainbowAI@@QAE?AVFVector@@XZ @967
    ?getTargetPosition@AR6RainbowAI@@QAE?AVFVector@@XZ @968
    ?initCrawlMode@AR6Pawn@@QAEX_N@Z @969
    ?linkWithStair@AR6StairOrientation@@QAEXPAVAR6StairVolume@@@Z @970
    ?m_fHumanSidePenetrationFactors@R6Charts@@0PAY01MA @971
    ?m_iHumanPenetrationTresholds@R6Charts@@0PAY02HA @972
    ?m_stKillChart@R6Charts@@2UstBodyPart@@A @973
    ?m_stStunChart@R6Charts@@2UstBodyPart@@A @974
    ?m_vExecuteLipsSynch@AR6Pawn@@QAEXM@Z @975
    ?m_vInitNewLipSynch@AR6Pawn@@QAEXPAVUSound@@0@Z @976
    ?moveToPosition@AR6Pawn@@QAEHABVFVector@@@Z @977
    ?moveToward@AR6Pawn@@UAEHABVFVector@@PAVAActor@@@Z @978
    ?performPhysics@AR6Pawn@@UAEXM@Z @979
    ?physLadder@AR6Pawn@@UAEXMH@Z @980
    ?physicsRotation@AR6Pawn@@UAEXMVFVector@@@Z @981
    ?resetBoneRotation@AR6RainbowAI@@QAEXXZ @982
    ?setMemberOrientation@AR6RainbowAI@@QAEXW4EPawnOrientation@@@Z @983
    ?updatePawnOrientation@AR6RainbowAI@@QAE?AW4ePawnOrientation@@XZ @984
    GPackage @986
    _DllMain@12 @985
    autoclassAMP2IOKarma @987
    autoclassAR6AIController @988
    autoclassAR6ClimbableObject @989
    autoclassAR6ClimbablePoint @990
    autoclassAR6CoverSpot @991
    autoclassAR6DZoneCircle @992
    autoclassAR6DZonePath @993
    autoclassAR6DZonePathNode @994
    autoclassAR6DZonePoint @995
    autoclassAR6DZoneRandomPointNode @996
    autoclassAR6DZoneRandomPoints @997
    autoclassAR6DZoneRectangle @998
    autoclassAR6DeploymentZone @999
    autoclassAR6Door @1000
    autoclassAR6EnvironmentNode @1001
    autoclassAR6FalseHeartBeat @1002
    autoclassAR6GameReplicationInfo @1003
    autoclassAR6GenericHB @1004
    autoclassAR6Hostage @1005
    autoclassAR6HostageAI @1006
    autoclassAR6IActionObject @1007
    autoclassAR6IOBomb @1008
    autoclassAR6IOObject @1009
    autoclassAR6IORotatingDoor @1010
    autoclassAR6IOSound @1011
    autoclassAR6InteractiveObject @1012
    autoclassAR6Ladder @1013
    autoclassAR6LadderVolume @1014
    autoclassAR6MatineeHostage @1015
    autoclassAR6MatineeRainbow @1016
    autoclassAR6MatineeTerrorist @1017
    autoclassAR6Pawn @1018
    autoclassAR6PlayerController @1019
    autoclassAR6RagDoll @1020
    autoclassAR6Rainbow @1021
    autoclassAR6RainbowAI @1022
    autoclassAR6RainbowTeam @1023
    autoclassAR6SAHeartBeatJammer @1024
    autoclassAR6SoundReplicationInfo @1025
    autoclassAR6StairOrientation @1026
    autoclassAR6StairVolume @1027
    autoclassAR6Stairs @1028
    autoclassAR6TeamMemberReplicationInfo @1029
    autoclassAR6Terrorist @1030
    autoclassAR6TerroristAI @1031
    autoclassUR6MatineeAttach @1032
    autoclassUR6PlayAnim @1033
    autoclassUR6SubActionAnimSequence @1034
    autoclassUR6SubActionLookAt @1035
    autoclassUR6TerroristMgr @1036
    intAMP2IOKarmaexecMP2IOKarmaAllNativeFct @1037
    intAR6AIControllerexecActorReachableFromLocation @1038
    intAR6AIControllerexecCanWalkTo @1039
    intAR6AIControllerexecFindGrenadeDirectionToHitActor @1040
    intAR6AIControllerexecFindInvestigationPoint @1041
    intAR6AIControllerexecFindNearbyWaitSpot @1042
    intAR6AIControllerexecFindPlaceToFire @1043
    intAR6AIControllerexecFindPlaceToTakeCover @1044
    intAR6AIControllerexecFollowPath @1045
    intAR6AIControllerexecFollowPathTo @1046
    intAR6AIControllerexecGotoOpenDoorState @1047
    intAR6AIControllerexecMakePathToRun @1048
    intAR6AIControllerexecMoveToPosition @1049
    intAR6AIControllerexecNeedToOpenDoor @1050
    intAR6AIControllerexecPickActorAdjust @1051
    intAR6AIControllerexecPollFollowPath @1052
    intAR6AIControllerexecPollFollowPathBlocked @1053
    intAR6AIControllerexecPollMoveToPosition @1054
    intAR6DeploymentZoneexecAddHostage @1055
    intAR6DeploymentZoneexecFindClosestPointTo @1056
    intAR6DeploymentZoneexecFindRandomPointInArea @1057
    intAR6DeploymentZoneexecFirstInit @1058
    intAR6DeploymentZoneexecGetClosestHostage @1059
    intAR6DeploymentZoneexecHaveHostage @1060
    intAR6DeploymentZoneexecHaveTerrorist @1061
    intAR6DeploymentZoneexecIsPointInZone @1062
    intAR6DeploymentZoneexecOrderTerroListFromDistanceTo @1063
    intAR6IORotatingDoorexecAddBreach @1064
    intAR6IORotatingDoorexecRemoveBreach @1065
    intAR6IORotatingDoorexecWillOpenOnTouch @1066
    intAR6PawnexecAdjustFluidCollisionCylinder @1067
    intAR6PawnexecCheckCylinderTranslation @1068
    intAR6PawnexecFootStep @1069
    intAR6PawnexecGetKillResult @1070
    intAR6PawnexecGetMaxRotationOffset @1071
    intAR6PawnexecGetMovementDirection @1072
    intAR6PawnexecGetPeekingRatioNorm @1073
    intAR6PawnexecGetRotationOffset @1074
    intAR6PawnexecGetStunResult @1075
    intAR6PawnexecGetThroughResult @1076
    intAR6PawnexecMoveHitBone @1077
    intAR6PawnexecPawnCanBeHurtFrom @1078
    intAR6PawnexecPawnLook @1079
    intAR6PawnexecPawnLookAbsolute @1080
    intAR6PawnexecPawnLookAt @1081
    intAR6PawnexecPawnTrackActor @1082
    intAR6PawnexecPlayVoices @1083
    intAR6PawnexecR6GetViewRotation @1084
    intAR6PawnexecSendPlaySound @1085
    intAR6PawnexecSetAudioInfo @1086
    intAR6PawnexecSetPawnScale @1087
    intAR6PawnexecStartLipSynch @1088
    intAR6PawnexecStopLipSynch @1089
    intAR6PawnexecToggleHeatProperties @1090
    intAR6PawnexecToggleNightProperties @1091
    intAR6PawnexecToggleScopeProperties @1092
    intAR6PawnexecUpdatePawnTrackActor @1093
    intAR6PlayerControllerexecDebugFunction @1094
    intAR6PlayerControllerexecFindPlayer @1095
    intAR6PlayerControllerexecGetLocStringWithActionKey @1096
    intAR6PlayerControllerexecLocalizeTraining @1097
    intAR6PlayerControllerexecPlayVoicesPriority @1098
    intAR6PlayerControllerexecUpdateCircumstantialAction @1099
    intAR6PlayerControllerexecUpdateReticule @1100
    intAR6PlayerControllerexecUpdateSpectatorReticule @1101
    intAR6RainbowAIexecAClearShotIsAvailable @1102
    intAR6RainbowAIexecCheckEnvironment @1103
    intAR6RainbowAIexecClearToSnipe @1104
    intAR6RainbowAIexecFindSafeSpot @1105
    intAR6RainbowAIexecGetEntryPosition @1106
    intAR6RainbowAIexecGetGuardPosition @1107
    intAR6RainbowAIexecGetLadderPosition @1108
    intAR6RainbowAIexecGetTargetPosition @1109
    intAR6RainbowAIexecLookAroundRoom @1110
    intAR6RainbowAIexecSetOrientation @1111
    intAR6SoundReplicationInfoexecPlayLocalWeaponSound @1112
    intAR6SoundReplicationInfoexecPlayWeaponSound @1113
    intAR6SoundReplicationInfoexecStopWeaponSound @1114
    intAR6TerroristAIexecCallBackupForAttack @1115
    intAR6TerroristAIexecCallBackupForInvestigation @1116
    intAR6TerroristAIexecCallVisibleTerrorist @1117
    intAR6TerroristAIexecFindBetterShotLocation @1118
    intAR6TerroristAIexecGetNextRandomNode @1119
    intAR6TerroristAIexecHaveAClearShot @1120
    intAR6TerroristAIexecIsAttackSpotStillValid @1121
    intAR6TerroristAIexecMakeBackupList @1122
    intUR6MatineeAttachexecGetBoneInformation @1123
    intUR6MatineeAttachexecTestLocation @1124
    intUR6TerroristMgrexecFindNearestZoneForHostage @1125
    intUR6TerroristMgrexecInit @1126
