LIBRARY Window
EXPORTS
    ??0FCategoryItem@@QAE@ABV0@@Z    @1
    ??0FCategoryItem@@QAE@PAVWPropertiesBase@@PAVFTreeItem@@PAVUClass@@VFName@@H@Z    @2
    ??0FClassItem@@QAE@ABV0@@Z    @3
    ??0FClassItem@@QAE@PAVWPropertiesBase@@PAVFTreeItem@@KPBGPAVUClass@@@Z    @4
    ??0FClassItem@@QAE@XZ    @5
    ??0FCommandTarget@@QAE@ABV0@@Z    @6
    ??0FCommandTarget@@QAE@XZ    @7
    ??0FConfigItem@@QAE@ABV0@@Z    @8
    ??0FConfigItem@@QAE@ABVFPreferencesInfo@@PAVWPropertiesBase@@PAVFTreeItem@@@Z    @9
    ??0FConfigItem@@QAE@XZ    @10
;      ??0FContainer@@QAE@XZ    @11
    ??0FControlSnoop@@QAE@ABV0@@Z    @12
    ??0FControlSnoop@@QAE@XZ    @13
    ??0FDelegate@@QAE@ABU0@@Z    @14
    ??0FDelegate@@QAE@PAVFCommandTarget@@P81@AEXXZ@Z    @15
    ??0FDelegateInt@@QAE@ABU0@@Z    @16
    ??0FDelegateInt@@QAE@PAVFCommandTarget@@P81@AEXH@Z@Z    @17
    ??0FHeaderItem@@QAE@ABV0@@Z    @18
    ??0FHeaderItem@@QAE@PAVWPropertiesBase@@PAVFTreeItem@@H@Z    @19
    ??0FHeaderItem@@QAE@XZ    @20
;      ??0FNewObjectItem@@QAE@ABV0@@Z    @21
;      ??0FNewObjectItem@@QAE@PAVWPropertiesBase@@PAVFTreeItem@@PAVUObjectProperty@@@Z    @22
;      ??0FNewObjectItem@@QAE@XZ    @23
    ??0FObjectConfigItem@@QAE@ABV0@@Z    @24
    ??0FObjectConfigItem@@QAE@PAVWPropertiesBase@@PAVFTreeItem@@PBG2HVFName@@@Z    @25
    ??0FObjectsItem@@QAE@ABV0@@Z    @26
;      ??0FObjectsItem@@QAE@PAVWPropertiesBase@@PAVFTreeItem@@KPBGHH@Z    @27
    ??0FObjectsItem@@QAE@XZ    @28
    ??0FPropertyItem@@QAE@ABV0@@Z    @29
;      ??0FPropertyItem@@QAE@PAVWPropertiesBase@@PAVFTreeItem@@PAVUProperty@@VFName@@HHH@Z    @30
    ??0FPropertyItemBase@@QAE@ABV0@@Z    @31
    ??0FPropertyItemBase@@QAE@PAVWPropertiesBase@@PAVFTreeItem@@KPBG@Z    @32
    ??0FPropertyItemBase@@QAE@XZ    @33
    ??0FTreeItem@@QAE@ABV0@@Z    @34
    ??0FTreeItem@@QAE@PAVWPropertiesBase@@PAV0@H@Z    @35
    ??0FTreeItem@@QAE@XZ    @36
    ??0FTreeItemBase@@QAE@ABV0@@Z    @37
    ??0FTreeItemBase@@QAE@XZ    @38
;      ??0FUDNHelpTopic@@QAE@ABV0@@Z    @39
;      ??0FUDNHelpTopic@@QAE@VFString@@0@Z    @40
;      ??0FUDNHelpTopic@@QAE@XZ    @41
;      ??0FWaitCursor@@QAE@XZ    @42
;      ??0FWindowAnchor@@QAE@PAUHWND__@@0HHHHHH@Z    @43
;      ??0FWindowAnchor@@QAE@XZ    @44
;      ??0FWindowsBitmap@@QAE@H@Z    @45
;      ??0WBitmapButton@@QAE@ABV0@@Z    @46
;      ??0WBitmapButton@@QAE@PAVWWindow@@HUFDelegate@@P6GJPAUHWND__@@IIJ@Z@Z    @47
;      ??0WBitmapButton@@QAE@XZ    @48
    ??0WButton@@QAE@ABV0@@Z    @49
    ??0WButton@@QAE@PAVWWindow@@HUFDelegate@@P6GJPAUHWND__@@IIJ@Z@Z    @50
    ??0WButton@@QAE@XZ    @51
    ??0WCheckBox@@QAE@ABV0@@Z    @52
    ??0WCheckBox@@QAE@PAVWWindow@@HUFDelegate@@@Z    @53
    ??0WCheckBox@@QAE@XZ    @54
    ??0WCheckListBox@@QAE@ABV0@@Z    @55
    ??0WCheckListBox@@QAE@PAVWWindow@@HP6GJPAUHWND__@@IIJ@Z@Z    @56
    ??0WCheckListBox@@QAE@XZ    @57
    ??0WClassProperties@@QAE@ABV0@@Z    @58
    ??0WClassProperties@@QAE@VFName@@KPBGPAVUClass@@@Z    @59
    ??0WClassProperties@@QAE@XZ    @60
;      ??0WColorButton@@QAE@ABV0@@Z    @61
;      ??0WColorButton@@QAE@PAVWWindow@@HUFDelegate@@P6GJPAUHWND__@@IIJ@Z@Z    @62
;      ??0WColorButton@@QAE@XZ    @63
    ??0WComboBox@@QAE@ABV0@@Z    @64
    ??0WComboBox@@QAE@PAVWWindow@@HP6GJPAUHWND__@@IIJ@Z@Z    @65
    ??0WComboBox@@QAE@XZ    @66
    ??0WConfigProperties@@QAE@ABV0@@Z    @67
    ??0WConfigProperties@@QAE@VFName@@PBG@Z    @68
    ??0WConfigProperties@@QAE@XZ    @69
    ??0WControl@@QAE@ABV0@@Z    @70
    ??0WControl@@QAE@PAVWWindow@@HP6GJPAUHWND__@@IIJ@Z@Z    @71
    ??0WControl@@QAE@XZ    @72
    ??0WCoolButton@@QAE@ABV0@@Z    @73
    ??0WCoolButton@@QAE@PAVWWindow@@HUFDelegate@@K@Z    @74
    ??0WCoolButton@@QAE@XZ    @75
;      ??0WCrashBoxDialog@@QAE@ABV0@@Z    @76
;      ??0WCrashBoxDialog@@QAE@PBG0@Z    @77
;      ??0WCrashBoxDialog@@QAE@XZ    @78
    ??0WCustomLabel@@QAE@ABV0@@Z    @79
    ??0WCustomLabel@@QAE@PAVWWindow@@HP6GJPAUHWND__@@IIJ@Z@Z    @80
    ??0WCustomLabel@@QAE@XZ    @81
    ??0WDialog@@QAE@ABV0@@Z    @82
    ??0WDialog@@QAE@VFName@@HPAVWWindow@@@Z    @83
    ??0WDialog@@QAE@XZ    @84
    ??0WDragInterceptor@@QAE@ABV0@@Z    @85
    ??0WDragInterceptor@@QAE@PAVWWindow@@UFPoint@@UFRect@@1@Z    @86
    ??0WDragInterceptor@@QAE@XZ    @87
    ??0WEdit@@QAE@ABV0@@Z    @88
    ??0WEdit@@QAE@PAVWWindow@@HP6GJPAUHWND__@@IIJ@Z@Z    @89
    ??0WEdit@@QAE@XZ    @90
    ??0WEditTerminal@@QAE@ABV0@@Z    @91
    ??0WEditTerminal@@QAE@PAVWTerminalBase@@@Z    @92
;      ??0WGroupBox@@QAE@ABV0@@Z    @93
;      ??0WGroupBox@@QAE@PAVWWindow@@HP6GJPAUHWND__@@IIJ@Z@Z    @94
;      ??0WGroupBox@@QAE@XZ    @95
    ??0WItemBox@@QAE@ABV0@@Z    @96
    ??0WItemBox@@QAE@PAVWWindow@@H@Z    @97
    ??0WItemBox@@QAE@XZ    @98
    ??0WLabel@@QAE@ABV0@@Z    @99
    ??0WLabel@@QAE@PAVWWindow@@HP6GJPAUHWND__@@IIJ@Z@Z    @100
    ??0WLabel@@QAE@XZ    @101
    ??0WListBox@@QAE@ABV0@@Z    @102
    ??0WListBox@@QAE@PAVWWindow@@HP6GJPAUHWND__@@IIJ@Z@Z    @103
    ??0WListBox@@QAE@XZ    @104
    ??0WListView@@QAE@ABV0@@Z    @105
;      ??0WListView@@QAE@PAVWWindow@@HP6GJPAUHWND__@@IIJ@Z@Z    @106
    ??0WListView@@QAE@XZ    @107
    ??0WLog@@QAE@ABV0@@Z    @108
    ??0WLog@@QAE@PBGAAPAVFArchive@@VFName@@PAVWWindow@@@Z    @109
    ??0WLog@@QAE@XZ    @110
    ??0WObjectProperties@@QAE@ABV0@@Z    @111
    ??0WObjectProperties@@QAE@VFName@@KPBGPAVWWindow@@H@Z    @112
    ??0WObjectProperties@@QAE@XZ    @113
;      ??0WPictureButton@@QAE@ABV0@@Z    @114
;      ??0WPictureButton@@QAE@PAVWWindow@@@Z    @115
    ??0WProgressBar@@QAE@ABV0@@Z    @116
    ??0WProgressBar@@QAE@PAVWWindow@@HP6GJPAUHWND__@@IIJ@Z@Z    @117
    ??0WProgressBar@@QAE@XZ    @118
    ??0WProperties@@QAE@ABV0@@Z    @119
    ??0WProperties@@QAE@VFName@@PAVWWindow@@@Z    @120
    ??0WProperties@@QAE@XZ    @121
    ??0WPropertiesBase@@QAE@ABV0@@Z    @122
    ??0WPropertiesBase@@QAE@VFName@@PAVWWindow@@@Z    @123
    ??0WPropertiesBase@@QAE@XZ    @124
;      ??0WPropertyPage@@QAE@ABV0@@Z    @125
;      ??0WPropertyPage@@QAE@PAVWWindow@@@Z    @126
;      ??0WPropertySheet@@QAE@ABV0@@Z    @127
;      ??0WPropertySheet@@QAE@PAVWWindow@@HP6GJPAUHWND__@@IIJ@Z@Z    @128
;      ??0WPropertySheet@@QAE@XZ    @129
    ??0WRichEdit@@QAE@ABV0@@Z    @130
    ??0WRichEdit@@QAE@PAVWWindow@@HP6GJPAUHWND__@@IIJ@Z@Z    @131
    ??0WRichEdit@@QAE@XZ    @132
    ??0WScrollBar@@QAE@ABV0@@Z    @133
;      ??0WScrollBar@@QAE@PAVWWindow@@HP6GJPAUHWND__@@IIJ@Z@Z    @134
    ??0WScrollBar@@QAE@XZ    @135
;      ??0WSplitter@@QAE@ABV0@@Z    @136
;      ??0WSplitter@@QAE@PAVWWindow@@@Z    @137
;      ??0WSplitter@@QAE@XZ    @138
;      ??0WSplitterContainer@@QAE@ABV0@@Z    @139
;      ??0WSplitterContainer@@QAE@PAVWWindow@@@Z    @140
;      ??0WSplitterPane@@QAE@ABV0@@Z    @141
;      ??0WSplitterPane@@QAE@PAVWWindow@@@Z    @142
;      ??0WSplitterPane@@QAE@XZ    @143
    ??0WTabControl@@QAE@ABV0@@Z    @144
    ??0WTabControl@@QAE@PAVWWindow@@HP6GJPAUHWND__@@IIJ@Z@Z    @145
    ??0WTabControl@@QAE@XZ    @146
    ??0WTerminal@@QAE@ABV0@@Z    @147
    ??0WTerminal@@QAE@VFName@@PAVWWindow@@@Z    @148
    ??0WTerminal@@QAE@XZ    @149
    ??0WTerminalBase@@QAE@ABV0@@Z    @150
    ??0WTerminalBase@@QAE@VFName@@PAVWWindow@@@Z    @151
    ??0WTerminalBase@@QAE@XZ    @152
;      ??0WThinScrollBar@@QAE@ABV0@@Z    @153
;      ??0WThinScrollBar@@QAE@PAVWWindow@@H@Z    @154
;      ??0WTimeScrollBar@@QAE@ABV0@@Z    @155
;      ??0WTimeScrollBar@@QAE@PAVWWindow@@H@Z    @156
    ??0WToolTip@@QAE@ABV0@@Z    @157
    ??0WToolTip@@QAE@PAVWWindow@@HP6GJPAUHWND__@@IIJ@Z@Z    @158
    ??0WToolTip@@QAE@XZ    @159
    ??0WTrackBar@@QAE@ABV0@@Z    @160
    ??0WTrackBar@@QAE@PAVWWindow@@HP6GJPAUHWND__@@IIJ@Z@Z    @161
    ??0WTrackBar@@QAE@XZ    @162
    ??0WTreeView@@QAE@ABV0@@Z    @163
    ??0WTreeView@@QAE@PAVWWindow@@HP6GJPAUHWND__@@IIJ@Z@Z    @164
    ??0WTreeView@@QAE@XZ    @165
;      ??0WUDNWindow@@QAE@ABV0@@Z    @166
;      ??0WUDNWindow@@QAE@PAVWWindow@@@Z    @167
    ??0WUrlButton@@QAE@ABV0@@Z    @168
    ??0WUrlButton@@QAE@PAVWWindow@@PBGH@Z    @169
    ??0WUrlButton@@QAE@XZ    @170
    ??0WWindow@@QAE@ABV0@@Z    @171
    ??0WWindow@@QAE@VFName@@PAV0@@Z    @172
    ??0WWizardDialog@@QAE@ABV0@@Z    @173
    ??0WWizardDialog@@QAE@XZ    @174
    ??0WWizardPage@@QAE@ABV0@@Z    @175
    ??0WWizardPage@@QAE@PBGHPAVWWizardDialog@@@Z    @176
    ??0WWizardPage@@QAE@XZ    @177
    ??1FCategoryItem@@UAE@XZ    @178
    ??1FClassItem@@UAE@XZ    @179
    ??1FConfigItem@@UAE@XZ    @180
    ??1FHeaderItem@@UAE@XZ    @181
;      ??1FNewObjectItem@@UAE@XZ    @182
    ??1FObjectConfigItem@@UAE@XZ    @183
    ??1FObjectsItem@@UAE@XZ    @184
    ??1FPropertyItem@@UAE@XZ    @185
    ??1FPropertyItemBase@@UAE@XZ    @186
    ??1FTreeItem@@UAE@XZ    @187
;      ??1FUDNHelpTopic@@QAE@XZ    @188
;      ??1FWaitCursor@@QAE@XZ    @189
;      ??1FWindowAnchor@@QAE@XZ    @190
;      ??1FWindowsBitmap@@QAE@XZ    @191
;      ??1WBitmapButton@@UAE@XZ    @192
    ??1WButton@@UAE@XZ    @193
    ??1WCheckBox@@UAE@XZ    @194
    ??1WCheckListBox@@UAE@XZ    @195
    ??1WClassProperties@@UAE@XZ    @196
;      ??1WColorButton@@UAE@XZ    @197
    ??1WComboBox@@UAE@XZ    @198
    ??1WConfigProperties@@UAE@XZ    @199
    ??1WControl@@UAE@XZ    @200
    ??1WCoolButton@@UAE@XZ    @201
;      ??1WCrashBoxDialog@@UAE@XZ    @202
    ??1WCustomLabel@@UAE@XZ    @203
    ??1WDialog@@UAE@XZ    @204
    ??1WDragInterceptor@@UAE@XZ    @205
    ??1WEdit@@UAE@XZ    @206
    ??1WEditTerminal@@UAE@XZ    @207
;      ??1WGroupBox@@UAE@XZ    @208
    ??1WItemBox@@UAE@XZ    @209
    ??1WLabel@@UAE@XZ    @210
    ??1WListBox@@UAE@XZ    @211
    ??1WListView@@UAE@XZ    @212
    ??1WLog@@UAE@XZ    @213
    ??1WObjectProperties@@UAE@XZ    @214
;      ??1WPictureButton@@UAE@XZ    @215
    ??1WProgressBar@@UAE@XZ    @216
    ??1WProperties@@UAE@XZ    @217
    ??1WPropertiesBase@@UAE@XZ    @218
;      ??1WPropertyPage@@UAE@XZ    @219
;      ??1WPropertySheet@@UAE@XZ    @220
    ??1WRichEdit@@UAE@XZ    @221
    ??1WScrollBar@@UAE@XZ    @222
;      ??1WSplitter@@UAE@XZ    @223
;      ??1WSplitterContainer@@UAE@XZ    @224
;      ??1WSplitterPane@@UAE@XZ    @225
    ??1WTabControl@@UAE@XZ    @226
    ??1WTerminal@@UAE@XZ    @227
    ??1WTerminalBase@@UAE@XZ    @228
;      ??1WThinScrollBar@@UAE@XZ    @229
;      ??1WTimeScrollBar@@UAE@XZ    @230
    ??1WToolTip@@UAE@XZ    @231
    ??1WTrackBar@@UAE@XZ    @232
    ??1WTreeView@@UAE@XZ    @233
;      ??1WUDNWindow@@UAE@XZ    @234
    ??1WUrlButton@@UAE@XZ    @235
    ??1WWindow@@UAE@XZ    @236
    ??1WWizardDialog@@UAE@XZ    @237
    ??1WWizardPage@@UAE@XZ    @238
    ??4FCategoryItem@@QAEAAV0@ABV0@@Z    @239
    ??4FClassItem@@QAEAAV0@ABV0@@Z    @240
    ??4FCommandTarget@@QAEAAV0@ABV0@@Z    @241
    ??4FConfigItem@@QAEAAV0@ABV0@@Z    @242
;      ??4FContainer@@QAEAAV0@ABV0@@Z    @243
    ??4FControlSnoop@@QAEAAV0@ABV0@@Z    @244
;      ??4FDelegate@@QAEAAU0@ABU0@@Z    @245
    ??4FDelegateInt@@QAEAAU0@ABU0@@Z    @246
    ??4FHeaderItem@@QAEAAV0@ABV0@@Z    @247
;      ??4FNewObjectItem@@QAEAAV0@ABV0@@Z    @248
    ??4FObjectConfigItem@@QAEAAV0@ABV0@@Z    @249
    ??4FObjectsItem@@QAEAAV0@ABV0@@Z    @250
    ??4FPropertyItem@@QAEAAV0@ABV0@@Z    @251
    ??4FPropertyItemBase@@QAEAAV0@ABV0@@Z    @252
    ??4FTreeItem@@QAEAAV0@ABV0@@Z    @253
    ??4FTreeItemBase@@QAEAAV0@ABV0@@Z    @254
;      ??4FUDNHelpTopic@@QAEAAV0@ABV0@@Z    @255
;      ??4FWaitCursor@@QAEAAV0@ABV0@@Z    @256
;      ??4FWindowAnchor@@QAE?AV0@ABV0@@Z    @257
;      ??4FWindowsBitmap@@AAEXAAV0@@Z    @258
;      ??4WBitmapButton@@QAEAAV0@ABV0@@Z    @259
;      ??4WButton@@QAEAAV0@ABV0@@Z    @260
;      ??4WCheckBox@@QAEAAV0@ABV0@@Z    @261
;      ??4WCheckListBox@@QAEAAV0@ABV0@@Z    @262
;      ??4WClassProperties@@QAEAAV0@ABV0@@Z    @263
;      ??4WColorButton@@QAEAAV0@ABV0@@Z    @264
;      ??4WComboBox@@QAEAAV0@ABV0@@Z    @265
;      ??4WConfigProperties@@QAEAAV0@ABV0@@Z    @266
    ??4WControl@@QAEAAV0@ABV0@@Z    @267
;      ??4WCoolButton@@QAEAAV0@ABV0@@Z    @268
;      ??4WCrashBoxDialog@@QAEAAV0@ABV0@@Z    @269
    ??4WCustomLabel@@QAEAAV0@ABV0@@Z    @270
    ??4WDialog@@QAEAAV0@ABV0@@Z    @271
    ??4WDragInterceptor@@QAEAAV0@ABV0@@Z    @272
;      ??4WEdit@@QAEAAV0@ABV0@@Z    @273
;      ??4WEditTerminal@@QAEAAV0@ABV0@@Z    @274
;      ??4WGroupBox@@QAEAAV0@ABV0@@Z    @275
;      ??4WItemBox@@QAEAAV0@ABV0@@Z    @276
    ??4WLabel@@QAEAAV0@ABV0@@Z    @277
;      ??4WListBox@@QAEAAV0@ABV0@@Z    @278
    ??4WListView@@QAEAAV0@ABV0@@Z    @279
;      ??4WObjectProperties@@QAEAAV0@ABV0@@Z    @280
;      ??4WPictureButton@@QAEAAV0@ABV0@@Z    @281
    ??4WProgressBar@@QAEAAV0@ABV0@@Z    @282
;      ??4WProperties@@QAEAAV0@ABV0@@Z    @283
;      ??4WPropertiesBase@@QAEAAV0@ABV0@@Z    @284
;      ??4WPropertyPage@@QAEAAV0@ABV0@@Z    @285
;      ??4WPropertySheet@@QAEAAV0@ABV0@@Z    @286
;      ??4WRichEdit@@QAEAAV0@ABV0@@Z    @287
    ??4WScrollBar@@QAEAAV0@ABV0@@Z    @288
;      ??4WSplitter@@QAEAAV0@ABV0@@Z    @289
;      ??4WSplitterContainer@@QAEAAV0@ABV0@@Z    @290
;      ??4WSplitterPane@@QAEAAV0@ABV0@@Z    @291
;      ??4WTabControl@@QAEAAV0@ABV0@@Z    @292
;      ??4WTerminal@@QAEAAV0@ABV0@@Z    @293
    ??4WTerminalBase@@QAEAAV0@ABV0@@Z    @294
;      ??4WThinScrollBar@@QAEAAV0@ABV0@@Z    @295
;      ??4WTimeScrollBar@@QAEAAV0@ABV0@@Z    @296
    ??4WToolTip@@QAEAAV0@ABV0@@Z    @297
;      ??4WTrackBar@@QAEAAV0@ABV0@@Z    @298
;      ??4WTreeView@@QAEAAV0@ABV0@@Z    @299
;      ??4WUDNWindow@@QAEAAV0@ABV0@@Z    @300
;      ??4WUrlButton@@QAEAAV0@ABV0@@Z    @301
    ??4WWindow@@QAEAAV0@ABV0@@Z    @302
;      ??4WWizardDialog@@QAEAAV0@ABV0@@Z    @303
    ??4WWizardPage@@QAEAAV0@ABV0@@Z    @304
    ??BWWindow@@QBEPAUHWND__@@XZ    @305
    ??RFDelegate@@UAEXXZ    @306
    ??RFDelegateInt@@UAEXH@Z    @307
    ??_7FCategoryItem@@6BFCommandTarget@@@    @308
    ??_7FCategoryItem@@6BFControlSnoop@@@    @309
    ??_7FClassItem@@6BFCommandTarget@@@    @310
    ??_7FClassItem@@6BFControlSnoop@@@    @311
    ??_7FCommandTarget@@6B@    @312
    ??_7FConfigItem@@6BFCommandTarget@@@    @313
    ??_7FConfigItem@@6BFControlSnoop@@@    @314
    ??_7FControlSnoop@@6B@    @315
    ??_7FDelegate@@6B@    @316
    ??_7FDelegateInt@@6B@    @317
    ??_7FHeaderItem@@6BFCommandTarget@@@    @318
    ??_7FHeaderItem@@6BFControlSnoop@@@    @319
;      ??_7FNewObjectItem@@6BFCommandTarget@@@    @320
;      ??_7FNewObjectItem@@6BFControlSnoop@@@    @321
    ??_7FObjectConfigItem@@6BFCommandTarget@@@    @322
    ??_7FObjectConfigItem@@6BFControlSnoop@@@    @323
    ??_7FObjectsItem@@6BFCommandTarget@@@    @324
    ??_7FObjectsItem@@6BFControlSnoop@@@    @325
    ??_7FPropertyItem@@6BFCommandTarget@@@    @326
    ??_7FPropertyItem@@6BFControlSnoop@@@    @327
    ??_7FPropertyItemBase@@6BFCommandTarget@@@    @328
    ??_7FPropertyItemBase@@6BFControlSnoop@@@    @329
    ??_7FTreeItem@@6BFCommandTarget@@@    @330
    ??_7FTreeItem@@6BFControlSnoop@@@    @331
    ??_7FTreeItemBase@@6BFCommandTarget@@@    @332
    ??_7FTreeItemBase@@6BFControlSnoop@@@    @333
;      ??_7WBitmapButton@@6B@    @334
    ??_7WButton@@6B@    @335
    ??_7WCheckBox@@6B@    @336
    ??_7WCheckListBox@@6B@    @337
    ??_7WClassProperties@@6BFControlSnoop@@@    @338
    ??_7WClassProperties@@6BWWindow@@@    @339
;      ??_7WColorButton@@6B@    @340
    ??_7WComboBox@@6B@    @341
    ??_7WConfigProperties@@6BFControlSnoop@@@    @342
    ??_7WConfigProperties@@6BWWindow@@@    @343
    ??_7WControl@@6B@    @344
    ??_7WCoolButton@@6B@    @345
;      ??_7WCrashBoxDialog@@6B@    @346
    ??_7WCustomLabel@@6B@    @347
    ??_7WDialog@@6B@    @348
    ??_7WDragInterceptor@@6B@    @349
    ??_7WEdit@@6B@    @350
    ??_7WEditTerminal@@6B@    @351
;      ??_7WGroupBox@@6B@    @352
    ??_7WItemBox@@6B@    @353
    ??_7WLabel@@6B@    @354
    ??_7WListBox@@6B@    @355
    ??_7WListView@@6B@    @356
    ??_7WLog@@6BFOutputDevice@@@    @357
    ??_7WLog@@6BWTerminalBase@@@    @358
    ??_7WObjectProperties@@6BFControlSnoop@@@    @359
    ??_7WObjectProperties@@6BWWindow@@@    @360
;      ??_7WPictureButton@@6B@    @361
    ??_7WProgressBar@@6B@    @362
    ??_7WProperties@@6BFControlSnoop@@@    @363
    ??_7WProperties@@6BWWindow@@@    @364
    ??_7WPropertiesBase@@6BFControlSnoop@@@    @365
    ??_7WPropertiesBase@@6BWWindow@@@    @366
;      ??_7WPropertyPage@@6B@    @367
;      ??_7WPropertySheet@@6B@    @368
    ??_7WRichEdit@@6B@    @369
    ??_7WScrollBar@@6B@    @370
;      ??_7WSplitter@@6B@    @371
;      ??_7WSplitterContainer@@6B@    @372
;      ??_7WSplitterPane@@6B@    @373
    ??_7WTabControl@@6B@    @374
    ??_7WTerminal@@6BFOutputDevice@@@    @375
    ??_7WTerminal@@6BWTerminalBase@@@    @376
    ??_7WTerminalBase@@6B@    @377
;      ??_7WThinScrollBar@@6B@    @378
;      ??_7WTimeScrollBar@@6B@    @379
    ??_7WToolTip@@6B@    @380
    ??_7WTrackBar@@6B@    @381
    ??_7WTreeView@@6B@    @382
;      ??_7WUDNWindow@@6B@    @383
    ??_7WUrlButton@@6B@    @384
    ??_7WWindow@@6B@    @385
    ??_7WWizardDialog@@6B@    @386
    ??_7WWizardPage@@6B@    @387
    ??_FFDelegate@@QAEXXZ    @388
    ??_FFDelegateInt@@QAEXXZ    @389
;      ??_FFWindowsBitmap@@QAEXXZ    @390
    ??_FWEditTerminal@@QAEXXZ    @391
    ??_FWWindow@@QAEXXZ    @392
    ?AcceptFlags@FPropertyItemBase@@UAEHK@Z    @393
    ?AcceptFlags@FTreeItem@@UAEHK@Z    @394
    ?AddButton@FTreeItem@@UAEXPBGUFDelegate@@@Z    @395
    ?AddItem@WListBox@@QAEHPBX@Z    @396
    ?AddItem@WTreeView@@QAEPAU_TREEITEM@@PBGPAU2@H@Z    @397
;      ?AddPage@WPropertySheet@@QAEXPAVWPropertyPage@@@Z    @398
    ?AddString@WComboBox@@UAEXPBG@Z    @399
    ?AddString@WListBox@@QAEHPBG@Z    @400
    ?AddTab@WTabControl@@QAEXVFString@@H@Z    @401
    ?AddTool@WToolTip@@QAEXPAUHWND__@@VFString@@HPAUtagRECT@@@Z    @402
    ?Advance@FPropertyItem@@UAEXXZ    @403
    ?Advance@WWizardDialog@@UAEXPAVWWizardPage@@@Z    @404
    ?BeginSplitterDrag@WProperties@@UAEXXZ    @405
    ?CallDefaultProc@WControl@@UAEHIIJ@Z    @406
    ?CallDefaultProc@WDialog@@UAEHIIJ@Z    @407
    ?CallDefaultProc@WWindow@@UAEHIIJ@Z    @408
;      ?Capture@WUDNWindow@@QAEXXZ    @409
;      ?CenterInOwnerWindow@WDialog@@QAEXXZ    @410
;      ?Cleanup@WPropertyPage@@QAEXXZ    @411
    ?ClearSel@WListBox@@QAEXXZ    @412
;      ?Clicked@WBitmapButton@@UAEXXZ    @413
    ?Clicked@WButton@@UAEXXZ    @414
    ?Clicked@WCheckBox@@UAEXXZ    @415
    ?ClientToScreen@WWindow@@QAE?AUFPoint@@ABU2@@Z    @416
    ?ClientToScreen@WWindow@@QAE?AUFRect@@ABU2@@Z    @417
    ?Collapse@FCategoryItem@@UAEXXZ    @418
    ?Collapse@FConfigItem@@UAEXXZ    @419
    ?Collapse@FPropertyItem@@UAEXXZ    @420
    ?Collapse@FPropertyItemBase@@UAEXXZ    @421
    ?Collapse@FTreeItem@@UAEXXZ    @422
;      ?ComboSelectionEndCancel@FNewObjectItem@@QAEXXZ    @423
    ?ComboSelectionEndCancel@FPropertyItem@@QAEXXZ    @424
;      ?ComboSelectionEndOk@FNewObjectItem@@QAEXXZ    @425
    ?ComboSelectionEndOk@FPropertyItem@@QAEXXZ    @426
    ?DeleteString@WListBox@@QAEXH@Z    @427
    ?DoDestroy@WProperties@@UAEXXZ    @428
    ?DoDestroy@WWindow@@UAEXXZ    @429
    ?DoModal@WDialog@@UAEHPAUHINSTANCE__@@@Z    @430
    ?Draw@FHeaderItem@@UAEXPAUHDC__@@@Z    @431
;      ?Draw@FNewObjectItem@@UAEXPAUHDC__@@@Z    @432
    ?Draw@FPropertyItem@@UAEXPAUHDC__@@@Z    @433
;      ?DrawTreeLines@FTreeItem@@UAEXPAUHDC__@@UFRect@@H@Z    @434
    ?Empty@WComboBox@@QAEXXZ    @435
    ?Empty@WListBox@@QAEXXZ    @436
;      ?Empty@WListView@@QAEXXZ    @437
;      ?Empty@WPropertySheet@@QAEXXZ    @438
    ?Empty@WTabControl@@QAEXXZ    @439
    ?Empty@WTreeView@@QAEXXZ    @440
    ?EmptyChildren@FTreeItem@@QAEXXZ    @441
    ?EndDialog@WDialog@@QAEXH@Z    @442
    ?EndDialogFalse@WDialog@@QAEXXZ    @443
    ?EndDialogTrue@WDialog@@QAEXXZ    @444
;      ?Eval@FObjectsItem@@QAEHVFString@@PAM@Z    @445
    ?Expand@FCategoryItem@@UAEXXZ    @446
    ?Expand@FClassItem@@UAEXXZ    @447
    ?Expand@FConfigItem@@UAEXXZ    @448
    ?Expand@FObjectConfigItem@@UAEXXZ    @449
    ?Expand@FObjectsItem@@UAEXXZ    @450
    ?Expand@FPropertyItem@@UAEXXZ    @451
    ?Expand@FTreeItem@@UAEXXZ    @452
;      ?Finalize@WPropertyPage@@QAEXXZ    @453
    ?FindItem@WListBox@@QAEHPBX@Z    @454
    ?FindItemChecked@WListBox@@QAEHPBX@Z    @455
    ?FindString@WComboBox@@UAEHPBG@Z    @456
    ?FindString@WListBox@@QAEHPBG@Z    @457
    ?FindStringChecked@WListBox@@QAEHPBG@Z    @458
    ?FindStringExact@WComboBox@@UAEHPBG@Z    @459
    ?FindStringExact@WListBox@@QAEHPBG@Z    @460
    ?ForceRefresh@WProperties@@UAEXXZ    @461
;      ?FromHSV@FHeaderItem@@QAE?AVFVector@@EEE@Z    @462
    ?GLogWindow@@3PAVWLog@@A    @463
    ?GNotify@@3HA    @464
;      ?GOnKillFocus@@YAXPAUHWND__@@@Z    @465
;      ?GOnSetFocus@@YAXPAUHWND__@@@Z    @466
    ?GetBackText@WWizardPage@@UAEPBGXZ    @467
    ?GetBackgroundBrush@FTreeItem@@UAEPAUHBRUSH__@@H@Z    @468
;      ?GetBase@FClassItem@@UAEPAEPAE@Z    @469
;      ?GetBase@FObjectConfigItem@@UAEPAEPAE@Z    @470
;      ?GetBase@FObjectsItem@@UAEPAEPAE@Z    @471
;      ?GetBase@FPropertyItem@@UAEPAEPAE@Z    @472
;      ?GetBase@FTreeItem@@UAEPAEPAE@Z    @473
;      ?GetBitmapHandle@FWindowsBitmap@@QAEPAUHBITMAP__@@XZ    @474
    ?GetCancelText@WWizardPage@@UAEPBGXZ    @475
    ?GetCaption@FCategoryItem@@UBE?AVFString@@XZ    @476
    ?GetCaption@FConfigItem@@UBE?AVFString@@XZ    @477
;      ?GetCaption@FNewObjectItem@@UBE?AVFString@@XZ    @478
    ?GetCaption@FObjectsItem@@UBE?AVFString@@XZ    @479
    ?GetCaption@FPropertyItem@@UBE?AVFString@@XZ    @480
    ?GetCaption@FPropertyItemBase@@UBE?AVFString@@XZ    @481
;      ?GetCaption@WPropertyPage@@QAE?AVFString@@XZ    @482
    ?GetClientRect@WWindow@@QBE?AUFRect@@XZ    @483
;      ?GetColor@WColorButton@@QAEXAAH00@Z    @484
;      ?GetContents@FPropertyItem@@UAEPAEPAE@Z    @485
;      ?GetContents@FTreeItem@@UAEPAEPAE@Z    @486
    ?GetCount@WComboBox@@UAEHXZ    @487
    ?GetCount@WListBox@@QAEHXZ    @488
    ?GetCount@WTabControl@@QAEHXZ    @489
    ?GetCurrent@WComboBox@@UAEHXZ    @490
    ?GetCurrent@WListBox@@QAEHXZ    @491
;      ?GetCurrent@WListView@@QAEHXZ    @492
    ?GetCurrent@WTabControl@@QAEHXZ    @493
;      ?GetCurrentTopicID@WUDNWindow@@QAEHXZ    @494
    ?GetCursorPos@WWindow@@QAE?AUFPoint@@XZ    @495
    ?GetDividerWidth@WProperties@@UAEHXZ    @496
    ?GetExpanderRect@FTreeItem@@UAE?AUFRect@@XZ    @497
    ?GetFinishText@WWizardPage@@UAEPBGXZ    @498
    ?GetHeight@FHeaderItem@@UAEHXZ    @499
    ?GetHeight@FPropertyItem@@UAEHXZ    @500
;      ?GetID@WPropertyPage@@QAEHXZ    @501
    ?GetId@FCategoryItem@@UBE_KXZ    @502
    ?GetId@FConfigItem@@UBE_KXZ    @503
;      ?GetId@FNewObjectItem@@UBE_KXZ    @504
    ?GetId@FPropertyItem@@UBE_KXZ    @505
    ?GetId@FPropertyItemBase@@UBE_KXZ    @506
    ?GetIndent@FTreeItem@@QAEHXZ    @507
    ?GetIndentPixels@FTreeItem@@UAEHH@Z    @508
    ?GetIndexFromlParam@WTabControl@@QAEHH@Z    @509
    ?GetItemData@WListBox@@QAEPAXH@Z    @510
    ?GetItemHeight@WListBox@@QAEHH@Z    @511
    ?GetItemRect@WListBox@@QAE?AUFRect@@H@Z    @512
    ?GetLength@WWindow@@UAEHXZ    @513
    ?GetLineCount@WEdit@@QAEHXZ    @514
    ?GetLineIndex@WEdit@@QAEHH@Z    @515
    ?GetListItem@WPropertiesBase@@UAEPAVFTreeItem@@H@Z    @516
    ?GetModify@WEdit@@QAEHXZ    @517
    ?GetNext@WWizardPage@@UAEPAV1@XZ    @518
    ?GetNextText@WWizardPage@@UAEPBGXZ    @519
;      ?GetPackageName@WBitmapButton@@UAEPBGXZ    @520
    ?GetPackageName@WButton@@UAEPBGXZ    @521
    ?GetPackageName@WCheckBox@@UAEPBGXZ    @522
    ?GetPackageName@WCheckListBox@@UAEPBGXZ    @523
    ?GetPackageName@WClassProperties@@UAEPBGXZ    @524
;      ?GetPackageName@WColorButton@@UAEPBGXZ    @525
    ?GetPackageName@WComboBox@@UAEPBGXZ    @526
    ?GetPackageName@WConfigProperties@@UAEPBGXZ    @527
    ?GetPackageName@WCoolButton@@UAEPBGXZ    @528
;      ?GetPackageName@WCrashBoxDialog@@UAEPBGXZ    @529
    ?GetPackageName@WCustomLabel@@UAEPBGXZ    @530
    ?GetPackageName@WDragInterceptor@@UAEPBGXZ    @531
    ?GetPackageName@WEdit@@UAEPBGXZ    @532
    ?GetPackageName@WEditTerminal@@UAEPBGXZ    @533
;      ?GetPackageName@WGroupBox@@UAEPBGXZ    @534
    ?GetPackageName@WItemBox@@UAEPBGXZ    @535
    ?GetPackageName@WLabel@@UAEPBGXZ    @536
    ?GetPackageName@WListBox@@UAEPBGXZ    @537
    ?GetPackageName@WListView@@UAEPBGXZ    @538
    ?GetPackageName@WLog@@UAEPBGXZ    @539
    ?GetPackageName@WObjectProperties@@UAEPBGXZ    @540
;      ?GetPackageName@WPictureButton@@UAEPBGXZ    @541
    ?GetPackageName@WProgressBar@@UAEPBGXZ    @542
    ?GetPackageName@WProperties@@UAEPBGXZ    @543
;      ?GetPackageName@WPropertyPage@@UAEPBGXZ    @544
;      ?GetPackageName@WPropertySheet@@UAEPBGXZ    @545
    ?GetPackageName@WRichEdit@@UAEPBGXZ    @546
    ?GetPackageName@WScrollBar@@UAEPBGXZ    @547
;      ?GetPackageName@WSplitter@@UAEPBGXZ    @548
;      ?GetPackageName@WSplitterContainer@@UAEPBGXZ    @549
;      ?GetPackageName@WSplitterPane@@UAEPBGXZ    @550
    ?GetPackageName@WTabControl@@UAEPBGXZ    @551
    ?GetPackageName@WTerminal@@UAEPBGXZ    @552
    ?GetPackageName@WTerminalBase@@UAEPBGXZ    @553
;      ?GetPackageName@WThinScrollBar@@UAEPBGXZ    @554
;      ?GetPackageName@WTimeScrollBar@@UAEPBGXZ    @555
    ?GetPackageName@WToolTip@@UAEPBGXZ    @556
    ?GetPackageName@WTrackBar@@UAEPBGXZ    @557
    ?GetPackageName@WTreeView@@UAEPBGXZ    @558
;      ?GetPackageName@WUDNWindow@@UAEPBGXZ    @559
    ?GetPackageName@WUrlButton@@UAEPBGXZ    @560
    ?GetPackageName@WWindow@@UAEPBGXZ    @561
    ?GetPackageName@WWizardDialog@@UAEPBGXZ    @562
    ?GetPackageName@WWizardPage@@UAEPBGXZ    @563
;      ?GetParentObject@FObjectsItem@@UAEPAVUObject@@XZ    @564
;      ?GetParentObject@FTreeItem@@UAEPAVUObject@@XZ    @565
;      ?GetPct@WTimeScrollBar@@QAEMXZ    @566
;      ?GetPos@WThinScrollBar@@QAEHXZ    @567
;      ?GetPos@WTimeScrollBar@@QAEHXZ    @568
    ?GetPos@WTrackBar@@QAEHXZ    @569
;      ?GetPropertyText@FPropertyItem@@QAEXPAG@Z    @570
;      ?GetReadAddress@FClassItem@@UAEPAEPAVFPropertyItem@@H@Z    @571
;      ?GetReadAddress@FObjectConfigItem@@UAEPAEPAVFPropertyItem@@H@Z    @572
;      ?GetReadAddress@FObjectsItem@@UAEPAEPAVFPropertyItem@@H@Z    @573
;      ?GetReadAddress@FTreeItem@@UAEPAEPAVFPropertyItem@@H@Z    @574
    ?GetReadOnly@WEdit@@QAEHXZ    @575
    ?GetRect@FTreeItem@@UAE?AUFRect@@XZ    @576
    ?GetRoot@WClassProperties@@UAEPAVFTreeItem@@XZ    @577
    ?GetRoot@WConfigProperties@@UAEPAVFTreeItem@@XZ    @578
    ?GetRoot@WObjectProperties@@UAEPAVFTreeItem@@XZ    @579
    ?GetSelected@FTreeItem@@UAEHXZ    @580
    ?GetSelected@WListBox@@QAEHH@Z    @581
    ?GetSelectedCount@WListBox@@QAEHXZ    @582
    ?GetSelectedItems@WListBox@@QAEHHPAH@Z    @583
    ?GetSelection@WEdit@@QAEXAAH0@Z    @584
    ?GetShow@WWizardPage@@UAEHXZ    @585
    ?GetStates@FPropertyItemBase@@UAEXAAV?$TArray@VFName@@@@@Z    @586
    ?GetStates@FTreeItem@@UAEXAAV?$TArray@VFName@@@@@Z    @587
    ?GetString@WComboBox@@UAE?AVFString@@H@Z    @588
    ?GetString@WListBox@@QAE?AVFString@@H@Z    @589
    ?GetString@WTabControl@@QAE?AVFString@@H@Z    @590
    ?GetText@WWindow@@UAE?AVFString@@XZ    @591
    ?GetTextColor@FTreeItem@@UAEKH@Z    @592
;      ?GetThumbRect@WThinScrollBar@@QAE?AUFRect@@XZ    @593
;      ?GetThumbRect@WTimeScrollBar@@QAE?AUFRect@@XZ    @594
    ?GetTop@WListBox@@QAEHXZ    @595
    ?GetUnitIndentPixels@FTreeItem@@QAEHXZ    @596
;      ?GetWindowClassName@WBitmapButton@@UAEXPAG@Z    @597
    ?GetWindowClassName@WButton@@UAEXPAG@Z    @598
    ?GetWindowClassName@WCheckBox@@UAEXPAG@Z    @599
    ?GetWindowClassName@WCheckListBox@@UAEXPAG@Z    @600
    ?GetWindowClassName@WClassProperties@@UAEXPAG@Z    @601
;      ?GetWindowClassName@WColorButton@@UAEXPAG@Z    @602
    ?GetWindowClassName@WComboBox@@UAEXPAG@Z    @603
    ?GetWindowClassName@WConfigProperties@@UAEXPAG@Z    @604
    ?GetWindowClassName@WCoolButton@@UAEXPAG@Z    @605
;      ?GetWindowClassName@WCrashBoxDialog@@UAEXPAG@Z    @606
    ?GetWindowClassName@WCustomLabel@@UAEXPAG@Z    @607
    ?GetWindowClassName@WDragInterceptor@@UAEXPAG@Z    @608
    ?GetWindowClassName@WEdit@@UAEXPAG@Z    @609
    ?GetWindowClassName@WEditTerminal@@UAEXPAG@Z    @610
;      ?GetWindowClassName@WGroupBox@@UAEXPAG@Z    @611
    ?GetWindowClassName@WItemBox@@UAEXPAG@Z    @612
    ?GetWindowClassName@WLabel@@UAEXPAG@Z    @613
    ?GetWindowClassName@WListBox@@UAEXPAG@Z    @614
    ?GetWindowClassName@WListView@@UAEXPAG@Z    @615
    ?GetWindowClassName@WLog@@UAEXPAG@Z    @616
    ?GetWindowClassName@WObjectProperties@@UAEXPAG@Z    @617
;      ?GetWindowClassName@WPictureButton@@UAEXPAG@Z    @618
    ?GetWindowClassName@WProgressBar@@UAEXPAG@Z    @619
    ?GetWindowClassName@WProperties@@UAEXPAG@Z    @620
;      ?GetWindowClassName@WPropertyPage@@UAEXPAG@Z    @621
;      ?GetWindowClassName@WPropertySheet@@UAEXPAG@Z    @622
    ?GetWindowClassName@WRichEdit@@UAEXPAG@Z    @623
    ?GetWindowClassName@WScrollBar@@UAEXPAG@Z    @624
;      ?GetWindowClassName@WSplitter@@UAEXPAG@Z    @625
;      ?GetWindowClassName@WSplitterContainer@@UAEXPAG@Z    @626
;      ?GetWindowClassName@WSplitterPane@@UAEXPAG@Z    @627
    ?GetWindowClassName@WTabControl@@UAEXPAG@Z    @628
    ?GetWindowClassName@WTerminal@@UAEXPAG@Z    @629
    ?GetWindowClassName@WTerminalBase@@UAEXPAG@Z    @630
;      ?GetWindowClassName@WThinScrollBar@@UAEXPAG@Z    @631
;      ?GetWindowClassName@WTimeScrollBar@@UAEXPAG@Z    @632
    ?GetWindowClassName@WToolTip@@UAEXPAG@Z    @633
    ?GetWindowClassName@WTrackBar@@UAEXPAG@Z    @634
    ?GetWindowClassName@WTreeView@@UAEXPAG@Z    @635
;      ?GetWindowClassName@WUDNWindow@@UAEXPAG@Z    @636
    ?GetWindowClassName@WUrlButton@@UAEXPAG@Z    @637
    ?GetWindowClassName@WWizardDialog@@UAEXPAG@Z    @638
    ?GetWindowClassName@WWizardPage@@UAEXPAG@Z    @639
;      ?GetWindowRect@WWindow@@QBE?AUFRect@@H@Z    @640
    ?GetlParam@WTabControl@@QAEHH@Z    @641
;      ?GlobalCoolButton@WCoolButton@@2PAV1@A    @642
;      ?GrabChar@FObjectsItem@@QAE?AVFString@@PAV2@@Z    @643
    ?InitWindowing@@YAXXZ    @644
    ?InsertItem@WListBox@@QAEXHPBX@Z    @645
    ?InsertItemAfter@WListBox@@QAEXPBX0@Z    @646
;      ?InsertString@WComboBox@@UAEXHPBG@Z    @647
    ?InsertString@WListBox@@QAEXHPBG@Z    @648
    ?InsertStringAfter@WListBox@@QAEXPBG0@Z    @649
    ?InterceptControlCommand@WButton@@UAEHIIJ@Z    @650
    ?InterceptControlCommand@WComboBox@@UAEHIIJ@Z    @651
    ?InterceptControlCommand@WEdit@@UAEHIIJ@Z    @652
    ?InterceptControlCommand@WListBox@@UAEHIIJ@Z    @653
;      ?InterceptControlCommand@WListView@@UAEHIIJ@Z    @654
    ?InterceptControlCommand@WRichEdit@@UAEHIIJ@Z    @655
    ?InterceptControlCommand@WTabControl@@UAEHIIJ@Z    @656
    ?InterceptControlCommand@WTrackBar@@UAEHIIJ@Z    @657
    ?InterceptControlCommand@WTreeView@@UAEHIIJ@Z    @658
    ?InterceptControlCommand@WWindow@@UAEHIIJ@Z    @659
;      ?IsChecked@WButton@@QAEHXZ    @660
    ?ItemFromPoint@WListBox@@QAEHUFPoint@@@Z    @661
    ?LazyLoadClass@FObjectConfigItem@@QAEXXZ    @662
;      ?LoadFile@FWindowsBitmap@@QAEHPBG@Z    @663
    ?LoadFileToBitmap@@YAPAUHBITMAP__@@PBGAAH1@Z    @664
    ?LoadLocalizedMenu@@YAPAUHMENU__@@PAUHINSTANCE__@@HPBG1@Z    @665
    ?LocalizeText@WDialog@@UAEXPBG0@Z    @666
    ?LocalizeTextEnumProc@WDialog@@SGHPAUHWND__@@J@Z    @667
    ?MaybeDestroy@WWindow@@QAEXXZ    @668
    ?ModalCount@WWindow@@2HA    @669
    ?MoveWindow@WWindow@@QAEXHHHHH@Z    @670
    ?MoveWindow@WWindow@@QAEXUFRect@@H@Z    @671
    ?MyDrawEdge@WWindow@@UAEXPAUHDC__@@PAUtagRECT@@H@Z    @672
    ?NID@@3U_NOTIFYICONDATAW@@A    @673
    ?NIDA@@3U_NOTIFYICONDATAA@@A    @674
;      ?NotifyChange@FObjectsItem@@UAEXXZ    @675
;      ?NotifyChange@FTreeItem@@UAEXXZ    @676
    ?OnActivate@WProperties@@UAEXH@Z    @677
    ?OnActivate@WWindow@@UAEXH@Z    @678
    ?OnArrayAdd@FPropertyItem@@QAEXXZ    @679
    ?OnArrayDelete@FPropertyItem@@QAEXXZ    @680
    ?OnArrayEmpty@FPropertyItem@@QAEXXZ    @681
    ?OnArrayInsert@FPropertyItem@@QAEXXZ    @682
;      ?OnAutoConstructArray@FPropertyItem@@QAEXXZ    @683
    ?OnBack@WWizardDialog@@UAEXXZ    @684
    ?OnBrowseButton@FPropertyItem@@QAEXXZ    @685
;      ?OnBugReport@WCrashBoxDialog@@QAEXXZ    @686
    ?OnCancel@WWizardDialog@@UAEXXZ    @687
    ?OnCancel@WWizardPage@@UAEXXZ    @688
    ?OnChar@WEditTerminal@@UAEXG@Z    @689
    ?OnChar@WWindow@@UAEXG@Z    @690
    ?OnChooseColorButton@FPropertyItem@@QAEXXZ    @691
    ?OnChooseHSLColorButton@FHeaderItem@@QAEXXZ    @692
    ?OnClearButton@FPropertyItem@@QAEXXZ    @693
    ?OnClick@WUrlButton@@QAEXXZ    @694
    ?OnClose@WLog@@UAEXXZ    @695
    ?OnClose@WWindow@@UAEXXZ    @696
    ?OnClose@WWizardDialog@@UAEXXZ    @697
    ?OnCommand@WLog@@UAEXH@Z    @698
    ?OnCommand@WWindow@@UAEXH@Z    @699
;      ?OnCopy@WCrashBoxDialog@@UAEXXZ    @700
    ?OnCopy@WWindow@@UAEXXZ    @701
    ?OnCopyData@WLog@@UAEXPAUHWND__@@PAUtagCOPYDATASTRUCT@@@Z    @702
    ?OnCopyData@WWindow@@UAEXPAUHWND__@@PAUtagCOPYDATASTRUCT@@@Z    @703
    ?OnCreate@WCheckBox@@UAEXXZ    @704
    ?OnCreate@WLog@@UAEXXZ    @705
;      ?OnCreate@WPropertySheet@@UAEXXZ    @706
    ?OnCreate@WTerminal@@UAEXXZ    @707
    ?OnCreate@WWindow@@UAEXXZ    @708
    ?OnCurrent@WWizardPage@@UAEXXZ    @709
    ?OnCut@WWindow@@UAEXXZ    @710
;      ?OnDestroy@WBitmapButton@@UAEXXZ    @711
    ?OnDestroy@WCheckListBox@@UAEXXZ    @712
    ?OnDestroy@WCoolButton@@UAEXXZ    @713
    ?OnDestroy@WLog@@UAEXXZ    @714
;      ?OnDestroy@WPictureButton@@UAEXXZ    @715
    ?OnDestroy@WProperties@@UAEXXZ    @716
;      ?OnDestroy@WSplitterContainer@@UAEXXZ    @717
;      ?OnDestroy@WThinScrollBar@@UAEXXZ    @718
;      ?OnDestroy@WTimeScrollBar@@UAEXXZ    @719
    ?OnDestroy@WWindow@@UAEXXZ    @720
    ?OnDestroy@WWizardDialog@@UAEXXZ    @721
;      ?OnDrawItem@WBitmapButton@@UAEXPAUtagDRAWITEMSTRUCT@@@Z    @722
    ?OnDrawItem@WButton@@UAEXPAUtagDRAWITEMSTRUCT@@@Z    @723
    ?OnDrawItem@WCheckListBox@@UAEXPAUtagDRAWITEMSTRUCT@@@Z    @724
;      ?OnDrawItem@WColorButton@@UAEXPAUtagDRAWITEMSTRUCT@@@Z    @725
    ?OnDrawItem@WItemBox@@UAEXPAUtagDRAWITEMSTRUCT@@@Z    @726
    ?OnDrawItem@WWindow@@UAEXPAUtagDRAWITEMSTRUCT@@@Z    @727
    ?OnEnterIdle@WWindow@@UAEXXZ    @728
;      ?OnEraseBkgnd@WItemBox@@UAEHXZ    @729
;      ?OnEraseBkgnd@WWindow@@UAEHXZ    @730
;      ?OnFindButton@FPropertyItem@@QAEXXZ    @731
    ?OnFinish@WWizardDialog@@UAEXXZ    @732
    ?OnFinishSplitterDrag@WProperties@@UAEXPAVWDragInterceptor@@H@Z    @733
    ?OnFinishSplitterDrag@WWindow@@UAEXPAVWDragInterceptor@@H@Z    @734
;      ?OnHScroll@WWindow@@UAEXIJ@Z    @735
;      ?OnInitDialog@WCrashBoxDialog@@UAEXXZ    @736
    ?OnInitDialog@WDialog@@UAEXXZ    @737
    ?OnInitDialog@WWindow@@UAEXXZ    @738
    ?OnInitDialog@WWizardDialog@@UAEXXZ    @739
    ?OnItemDoubleClick@FPropertyItem@@UAEXXZ    @740
    ?OnItemDoubleClick@FTreeItem@@UAEXXZ    @741
    ?OnItemHelp@FTreeItem@@UAEXXZ    @742
    ?OnItemKillFocus@FHeaderItem@@UAEXH@Z    @743
;      ?OnItemKillFocus@FNewObjectItem@@UAEXH@Z    @744
    ?OnItemKillFocus@FPropertyItem@@UAEXH@Z    @745
    ?OnItemKillFocus@FTreeItem@@UAEXH@Z    @746
    ?OnItemLeftMouseDown@FPropertyItem@@UAEXUFPoint@@@Z    @747
    ?OnItemLeftMouseDown@FTreeItem@@UAEXUFPoint@@@Z    @748
    ?OnItemRightMouseDown@FTreeItem@@UAEXUFPoint@@@Z    @749
    ?OnItemSetFocus@FHeaderItem@@UAEXXZ    @750
;      ?OnItemSetFocus@FNewObjectItem@@UAEXXZ    @751
    ?OnItemSetFocus@FObjectConfigItem@@UAEXXZ    @752
    ?OnItemSetFocus@FPropertyItem@@UAEXXZ    @753
    ?OnItemSetFocus@FTreeItem@@UAEXXZ    @754
    ?OnKeyDown@WDragInterceptor@@UAEXG@Z    @755
;      ?OnKeyDown@WUDNWindow@@UAEXG@Z    @756
    ?OnKeyDown@WWindow@@UAEXG@Z    @757
    ?OnKeyUp@WWindow@@UAEXIJ@Z    @758
    ?OnKillFocus@WWindow@@UAEXPAUHWND__@@@Z    @759
;      ?OnLeftButtonDoubleClick@WThinScrollBar@@UAEXXZ    @760
;      ?OnLeftButtonDoubleClick@WTimeScrollBar@@UAEXXZ    @761
;      ?OnLeftButtonDoubleClick@WWindow@@UAEXXZ    @762
    ?OnLeftButtonDown@WCheckListBox@@UAEXXZ    @763
;      ?OnLeftButtonDown@WPictureButton@@UAEXXZ    @764
;      ?OnLeftButtonDown@WSplitter@@UAEXXZ    @765
;      ?OnLeftButtonDown@WThinScrollBar@@UAEXXZ    @766
;      ?OnLeftButtonDown@WTimeScrollBar@@UAEXXZ    @767
;      ?OnLeftButtonDown@WUDNWindow@@UAEXXZ    @768
    ?OnLeftButtonDown@WWindow@@UAEXXZ    @769
    ?OnLeftButtonUp@WDragInterceptor@@UAEXXZ    @770
;      ?OnLeftButtonUp@WSplitter@@UAEXXZ    @771
;      ?OnLeftButtonUp@WThinScrollBar@@UAEXXZ    @772
;      ?OnLeftButtonUp@WTimeScrollBar@@UAEXXZ    @773
    ?OnLeftButtonUp@WWindow@@UAEXXZ    @774
    ?OnListDoubleClick@WProperties@@QAEXXZ    @775
    ?OnListSelectionChange@WProperties@@QAEXXZ    @776
    ?OnMdiActivate@WWindow@@UAEXH@Z    @777
    ?OnMeasureItem@WItemBox@@UAEXPAUtagMEASUREITEMSTRUCT@@@Z    @778
    ?OnMeasureItem@WWindow@@UAEXPAUtagMEASUREITEMSTRUCT@@@Z    @779
;      ?OnMiddleButtonDoubleClick@WWindow@@UAEXXZ    @780
    ?OnMouseEnter@WWindow@@UAEXXZ    @781
    ?OnMouseHover@WWindow@@UAEXXZ    @782
    ?OnMouseLeave@WWindow@@UAEXXZ    @783
    ?OnMouseMove@WDragInterceptor@@UAEXKUFPoint@@@Z    @784
;      ?OnMouseMove@WSplitter@@UAEXKUFPoint@@@Z    @785
;      ?OnMouseMove@WThinScrollBar@@UAEXKUFPoint@@@Z    @786
;      ?OnMouseMove@WTimeScrollBar@@UAEXKUFPoint@@@Z    @787
;      ?OnMouseMove@WUDNWindow@@UAEXKUFPoint@@@Z    @788
    ?OnMouseMove@WWindow@@UAEXKUFPoint@@@Z    @789
;      ?OnMove@WWindow@@UAEXHH@Z    @790
;      ?OnNew@FNewObjectItem@@QAEXXZ    @791
    ?OnNext@WWizardDialog@@UAEXXZ    @792
    ?OnPaint@WCustomLabel@@UAEXXZ    @793
;      ?OnPaint@WPictureButton@@UAEXXZ    @794
    ?OnPaint@WProperties@@UAEXXZ    @795
;      ?OnPaint@WSplitter@@UAEXXZ    @796
;      ?OnPaint@WSplitterContainer@@UAEXXZ    @797
;      ?OnPaint@WSplitterPane@@UAEXXZ    @798
;      ?OnPaint@WThinScrollBar@@UAEXXZ    @799
;      ?OnPaint@WTimeScrollBar@@UAEXXZ    @800
    ?OnPaint@WWindow@@UAEXXZ    @801
    ?OnPaste@WEditTerminal@@UAEXXZ    @802
    ?OnPaste@WWindow@@UAEXXZ    @803
;      ?OnPickButton@FPropertyItem@@QAEXXZ    @804
;      ?OnPickColorButton@FHeaderItem@@QAEXXZ    @805
;      ?OnPickColorButton@FPropertyItem@@QAEXXZ    @806
    ?OnReleaseCapture@WDragInterceptor@@UAEXXZ    @807
    ?OnReleaseCapture@WWindow@@UAEXXZ    @808
    ?OnResetToDefaultsButton@FObjectConfigItem@@QAEXXZ    @809
;      ?OnRightButtonDoubleClick@WWindow@@UAEXXZ    @810
    ?OnRightButtonDown@WCheckBox@@UAEXXZ    @811
    ?OnRightButtonDown@WEditTerminal@@UAEXXZ    @812
;      ?OnRightButtonDown@WListBox@@UAEXXZ    @813
;      ?OnRightButtonDown@WTimeScrollBar@@UAEXXZ    @814
    ?OnRightButtonDown@WTreeView@@UAEXXZ    @815
    ?OnRightButtonDown@WWindow@@UAEXXZ    @816
    ?OnRightButtonUp@WWindow@@UAEXXZ    @817
    ?OnSetCursor@FPropertyItem@@UAEHXZ    @818
    ?OnSetCursor@FTreeItem@@UAEHXZ    @819
    ?OnSetCursor@WProperties@@UAEHXZ    @820
;      ?OnSetCursor@WSplitter@@UAEHXZ    @821
;      ?OnSetCursor@WThinScrollBar@@UAEHXZ    @822
;      ?OnSetCursor@WTimeScrollBar@@UAEHXZ    @823
    ?OnSetCursor@WWindow@@UAEHXZ    @824
    ?OnSetFocus@WTerminal@@UAEXPAUHWND__@@@Z    @825
    ?OnSetFocus@WWindow@@UAEXPAUHWND__@@@Z    @826
    ?OnShowWindow@WLog@@UAEXH@Z    @827
    ?OnShowWindow@WTerminal@@UAEXH@Z    @828
    ?OnShowWindow@WWindow@@UAEXH@Z    @829
;      ?OnSize@WPictureButton@@UAEXKHH@Z    @830
    ?OnSize@WProperties@@UAEXKHH@Z    @831
;      ?OnSize@WPropertySheet@@UAEXKHH@Z    @832
;      ?OnSize@WSplitterContainer@@UAEXKHH@Z    @833
    ?OnSize@WTerminal@@UAEXKHH@Z    @834
    ?OnSize@WWindow@@UAEXKHH@Z    @835
    ?OnSysCommand@WWindow@@UAEHH@Z    @836
;      ?OnTabsSelChange@WPropertySheet@@QAEXXZ    @837
    ?OnTimer@WWindow@@UAEXXZ    @838
    ?OnTrackBarThumbPosition@FPropertyItem@@QAEXXZ    @839
    ?OnTrackBarThumbTrack@FPropertyItem@@QAEXXZ    @840
    ?OnUndo@WEditTerminal@@UAEXXZ    @841
    ?OnUndo@WWindow@@UAEXXZ    @842
    ?OnUseCurrentButton@FPropertyItem@@QAEXXZ    @843
    ?OnVScroll@WWindow@@UAEXIJ@Z    @844
;      ?OnWindowPosChanging@WWindow@@UAEXPAH000@Z    @845
    ?OpenChildWindow@WDialog@@QAEXHH@Z    @846
    ?OpenChildWindow@WProperties@@QAEXH@Z    @847
;      ?OpenWindow@WBitmapButton@@QAEXHKKPAUHBITMAP__@@UFRect@@11@Z    @848
    ?OpenWindow@WButton@@QAEXHHHHHPBGHK@Z    @849
    ?OpenWindow@WCheckBox@@QAEXHHHHHPBGHHK@Z    @850
    ?OpenWindow@WCheckListBox@@QAEXHHHHK@Z    @851
;      ?OpenWindow@WColorButton@@QAEXHK@Z    @852
    ?OpenWindow@WComboBox@@QAEXHHI@Z    @853
    ?OpenWindow@WCoolButton@@QAEXHHHHHPBG@Z    @854
    ?OpenWindow@WDragInterceptor@@UAEXXZ    @855
    ?OpenWindow@WEdit@@QAEXHHHHH@Z    @856
;      ?OpenWindow@WGroupBox@@QAEXHK@Z    @857
    ?OpenWindow@WLabel@@QAEXHHK@Z    @858
    ?OpenWindow@WListBox@@QAEXHHHHHK@Z    @859
;      ?OpenWindow@WListView@@QAEXHK@Z    @860
    ?OpenWindow@WLog@@QAEXHH@Z    @861
;      ?OpenWindow@WPictureButton@@QAEXXZ    @862
    ?OpenWindow@WProgressBar@@QAEXH@Z    @863
    ?OpenWindow@WProperties@@QAEXPAUHWND__@@@Z    @864
;      ?OpenWindow@WPropertyPage@@UAEXHPAUHINSTANCE__@@@Z    @865
;      ?OpenWindow@WPropertySheet@@QAEXHHK@Z    @866
    ?OpenWindow@WRichEdit@@QAEXHH@Z    @867
;      ?OpenWindow@WScrollBar@@QAEXHHHHHH@Z    @868
;      ?OpenWindow@WSplitter@@QAEXH@Z    @869
;      ?OpenWindow@WSplitterContainer@@UAEXH@Z    @870
;      ?OpenWindow@WSplitterPane@@QAEXXZ    @871
    ?OpenWindow@WTabControl@@QAEXHK@Z    @872
    ?OpenWindow@WTerminal@@QAEXHH@Z    @873
;      ?OpenWindow@WThinScrollBar@@QAEXHHHH@Z    @874
;      ?OpenWindow@WTimeScrollBar@@QAEXHHH@Z    @875
    ?OpenWindow@WToolTip@@QAEXXZ    @876
;      ?OpenWindow@WTrackBar@@QAEXHH@Z    @877
;      ?OpenWindow@WTreeView@@QAEXHHHHHK@Z    @878
;      ?OpenWindow@WUDNWindow@@QAEXXZ    @879
    ?Paste@WTerminal@@UAEXXZ    @880
    ?PerformCreateWindowEx@WWindow@@QAEXKPBGKHHHHPAUHWND__@@PAUHMENU__@@PAUHINSTANCE__@@@Z    @881
;      ?PlaceControl@WPropertyPage@@QAEXPAVWControl@@@Z    @882
;      ?PositionPanes@WSplitterContainer@@QAEXXZ    @883
;      ?PositionSplitter@WSplitter@@QAEXXZ    @884
;      ?PropertiesWindows@WProperties@@2V?$TArray@PAVWProperties@@@@A    @885
    ?ReceiveFromControl@FPropertyItem@@UAEXXZ    @886
    ?Redraw@FTreeItem@@UAEXXZ    @887
;      ?Refresh@WPropertyPage@@UAEXXZ    @888
;      ?RefreshControls@FContainer@@QAEXXZ    @889
    ?RefreshPage@WWizardDialog@@UAEXXZ    @890
;      ?RefreshPages@WPropertySheet@@QAEXXZ    @891
    ?RegisterWindowClass@WControl@@SAP6GJPAUHWND__@@IIJ@ZPBG1@Z    @892
    ?RegisterWindowClass@WWindow@@SAP6GJPAUHWND__@@IIJ@ZPBGK@Z    @893
;      ?Release@WUDNWindow@@QAEXXZ    @894
    ?ResizeList@WProperties@@UAEXXZ    @895
;      ?ResizeWindow@WWindow@@QAEXHHH@Z    @896
;      ?Restore@FWaitCursor@@QAEXXZ    @897
    ?SHGetSpecialFolderPathWX@@3P6GHPAUHWND__@@PAGHH@ZA    @898
    ?SaveWindowPos@WWindow@@QAEXXZ    @899
    ?ScreenToClient@WWindow@@QAE?AUFPoint@@ABU2@@Z    @900
    ?ScreenToClient@WWindow@@QAE?AUFRect@@ABU2@@Z    @901
    ?ScrollCaret@WEdit@@QAEXXZ    @902
    ?SelectTyping@WTerminal@@QAEXXZ    @903
    ?SendToControl@FPropertyItem@@UAEXXZ    @904
    ?Serialize@FCategoryItem@@UAEXAAVFArchive@@@Z    @905
    ?Serialize@FObjectConfigItem@@UAEXAAVFArchive@@@Z    @906
    ?Serialize@FObjectsItem@@UAEXAAVFArchive@@@Z    @907
    ?Serialize@FPropertyItem@@UAEXAAVFArchive@@@Z    @908
    ?Serialize@FPropertyItemBase@@UAEXAAVFArchive@@@Z    @909
    ?Serialize@FTreeItem@@UAEXAAVFArchive@@@Z    @910
    ?Serialize@WProperties@@UAEXAAVFArchive@@@Z    @911
    ?Serialize@WTerminal@@UAEXPBGW4EName@@@Z    @912
    ?Serialize@WWindow@@UAEXAAVFArchive@@@Z    @913
;      ?SetAnchors@FContainer@@QAEXPAV?$TMap@KVFWindowAnchor@@@@@Z    @914
    ?SetBitmap@WButton@@QAEXPAUHBITMAP__@@@Z    @915
;      ?SetCheck@WButton@@QAEXH@Z    @916
;      ?SetColor@WColorButton@@QAEXHHH@Z    @917
    ?SetCurrent@WComboBox@@UAEXH@Z    @918
;      ?SetCurrent@WComboBox@@UAEXPBG@Z    @919
;      ?SetCurrent@WListBox@@QAEHHH@Z    @920
;      ?SetCurrent@WPropertySheet@@QAEHH@Z    @921
;      ?SetCurrent@WPropertySheet@@QAEHPAVWPropertyPage@@@Z    @922
    ?SetCurrent@WTabControl@@QAEHH@Z    @923
    ?SetExec@WTerminal@@QAEXPAVFExec@@@Z    @924
    ?SetFocusToItem@FPropertyItem@@UAEXXZ    @925
    ?SetFocusToItem@FTreeItem@@UAEXXZ    @926
    ?SetFont@WWindow@@QAEXPAUHFONT__@@@Z    @927
    ?SetItemData@WListBox@@QAEXHH@Z    @928
    ?SetItemData@WListBox@@QAEXHPAX@Z    @929
    ?SetItemFocus@WProperties@@UAEXH@Z    @930
    ?SetModify@WEdit@@QAEXH@Z    @931
    ?SetNotifyHook@WWindow@@QAEXPAVFNotifyHook@@@Z    @932
    ?SetObjects@FObjectsItem@@UAEXPAPAVUObject@@H@Z    @933
;      ?SetPct@WSplitterContainer@@QAEXM@Z    @934
;      ?SetPct@WTimeScrollBar@@QAEXM@Z    @935
;      ?SetPos@WThinScrollBar@@QAEXHM@Z    @936
;      ?SetPos@WTimeScrollBar@@QAEXH@Z    @937
    ?SetPos@WTrackBar@@QAEXH@Z    @938
    ?SetProgress@WProgressBar@@QAEXHH@Z    @939
;      ?SetProperty@FClassItem@@UAEXPAVFPropertyItem@@PBG@Z    @940
;      ?SetProperty@FObjectConfigItem@@UAEXPAVFPropertyItem@@PBG@Z    @941
;      ?SetProperty@FObjectsItem@@UAEXPAVFPropertyItem@@PBG@Z    @942
;      ?SetProperty@FTreeItem@@UAEXPAVFPropertyItem@@PBG@Z    @943
;      ?SetRange@WThinScrollBar@@QAEXH@Z    @944
;      ?SetRange@WTimeScrollBar@@QAEXH@Z    @945
    ?SetRange@WTrackBar@@QAEXHH@Z    @946
    ?SetReadOnly@WEdit@@QAEXH@Z    @947
    ?SetReadOnly@WRichEdit@@QAEXH@Z    @948
    ?SetRedraw@WWindow@@QAEXH@Z    @949
    ?SetSelected@FTreeItem@@UAEXH@Z    @950
    ?SetSelectedText@WEdit@@QAEXPBG@Z    @951
    ?SetSelection@WEdit@@QAEXHH@Z    @952
    ?SetText@WLog@@UAEXPBG@Z    @953
    ?SetText@WWindow@@UAEXPBG@Z    @954
    ?SetTextLimit@WRichEdit@@QAEXH@Z    @955
    ?SetTicFreq@WTrackBar@@QAEXH@Z    @956
;      ?SetTicks@WTrackBar@@QAEXPAHH@Z    @957
    ?SetTop@WListBox@@QAEXH@Z    @958
;      ?SetUp@WPictureButton@@QAEXVFString@@HHHHHPAUHBITMAP__@@HHHH1HHHH@Z    @959
;      ?SetValue@FHeaderItem@@UAEXPBG@Z    @960
    ?SetValue@FPropertyItem@@UAEXPBG@Z    @961
    ?SetValue@FTreeItem@@UAEXPBG@Z    @962
    ?SetValue@WProperties@@UAEXPBG@Z    @963
    ?SetVisibleText@WButton@@QAEXPBG@Z    @964
    ?Shell_NotifyIconWX@@3P6GHKPAU_NOTIFYICONDATAW@@@ZA    @965
;      ?Show@WDialog@@UAEXH@Z    @966
;      ?Show@WObjectProperties@@UAEXH@Z    @967
;      ?Show@WWindow@@UAEXH@Z    @968
    ?SnoopChar@FControlSnoop@@UAEXPAVWWindow@@H@Z    @969
    ?SnoopChar@FPropertyItem@@UAEXPAVWWindow@@H@Z    @970
    ?SnoopChar@FTreeItem@@UAEXPAVWWindow@@H@Z    @971
    ?SnoopChar@WProperties@@UAEXPAVWWindow@@H@Z    @972
    ?SnoopKeyDown@FControlSnoop@@UAEXPAVWWindow@@H@Z    @973
    ?SnoopKeyDown@FTreeItem@@UAEXPAVWWindow@@H@Z    @974
    ?SnoopKeyDown@WProperties@@UAEXPAVWWindow@@H@Z    @975
    ?SnoopLeftMouseDown@FControlSnoop@@UAEXPAVWWindow@@UFPoint@@@Z    @976
    ?SnoopLeftMouseDown@WProperties@@UAEXPAVWWindow@@UFPoint@@@Z    @977
    ?SnoopRightMouseDown@FControlSnoop@@UAEXPAVWWindow@@UFPoint@@@Z    @978
    ?SnoopRightMouseDown@WProperties@@UAEXPAVWWindow@@UFPoint@@@Z    @979
    ?StaticDlgProc@WWindow@@SGHPAUHWND__@@IIJ@Z    @980
    ?StaticWndProc@WWindow@@SGJPAUHWND__@@IIJ@Z    @981
    ?StreamTextIn@WRichEdit@@QAEXPADH@Z    @982
    ?StreamTextOut@WRichEdit@@QAEXPADH@Z    @983
;      ?SubEval@FObjectsItem@@QAEHPAVFString@@PAMH@Z    @984
;      ?SuperProc@WBitmapButton@@2P6GJPAUHWND__@@IIJ@ZA    @985
    ?SuperProc@WButton@@2P6GJPAUHWND__@@IIJ@ZA    @986
;      ?SuperProc@WCheckBox@@2P6GJPAUHWND__@@IIJ@ZA    @987
    ?SuperProc@WCheckListBox@@2P6GJPAUHWND__@@IIJ@ZA    @988
;      ?SuperProc@WColorButton@@2P6GJPAUHWND__@@IIJ@ZA    @989
    ?SuperProc@WComboBox@@2P6GJPAUHWND__@@IIJ@ZA    @990
;      ?SuperProc@WCoolButton@@2P6GJPAUHWND__@@IIJ@ZA    @991
;      ?SuperProc@WCustomLabel@@2P6GJPAUHWND__@@IIJ@ZA    @992
    ?SuperProc@WEdit@@2P6GJPAUHWND__@@IIJ@ZA    @993
;      ?SuperProc@WGroupBox@@2P6GJPAUHWND__@@IIJ@ZA    @994
    ?SuperProc@WLabel@@2P6GJPAUHWND__@@IIJ@ZA    @995
    ?SuperProc@WListBox@@2P6GJPAUHWND__@@IIJ@ZA    @996
    ?SuperProc@WListView@@2P6GJPAUHWND__@@IIJ@ZA    @997
    ?SuperProc@WProgressBar@@2P6GJPAUHWND__@@IIJ@ZA    @998
;      ?SuperProc@WPropertySheet@@2P6GJPAUHWND__@@IIJ@ZA    @999
    ?SuperProc@WRichEdit@@2P6GJPAUHWND__@@IIJ@ZA    @1000
    ?SuperProc@WScrollBar@@2P6GJPAUHWND__@@IIJ@ZA    @1001
    ?SuperProc@WTabControl@@2P6GJPAUHWND__@@IIJ@ZA    @1002
    ?SuperProc@WToolTip@@2P6GJPAUHWND__@@IIJ@ZA    @1003
    ?SuperProc@WTrackBar@@2P6GJPAUHWND__@@IIJ@ZA    @1004
    ?SuperProc@WTreeView@@2P6GJPAUHWND__@@IIJ@ZA    @1005
    ?SuperProc@WUrlButton@@2P6GJPAUHWND__@@IIJ@ZA    @1006
    ?ToHSL@FHeaderItem@@QAE?AVFVector@@V2@@Z    @1007
    ?ToggleDraw@WDragInterceptor@@UAEXPAUHDC__@@@Z    @1008
    ?ToggleExpansion@FTreeItem@@UAEXXZ    @1009
    ?TypeChar@WTerminal@@UAEXG@Z    @1010
    ?Unused@FCommandTarget@@UAEXXZ    @1011
    ?UpdateTyping@WTerminal@@QAEXXZ    @1012
;      ?Val@FObjectsItem@@QAEMVFString@@@Z    @1013
;      ?VerifyPosition@WWindow@@QAEXXZ    @1014
    ?WindowMessageMouseWheel@@3IA    @1015
    ?WindowMessageOpen@@3IA    @1016
    ?WndProc@WComboBox@@UAEJIIJ@Z    @1017
    ?WndProc@WLog@@UAEJIIJ@Z    @1018
    ?WndProc@WWindow@@UAEJIIJ@Z    @1019
    ?_CloseWindow@WWindow@@QAEXXZ    @1020
    ?_DeleteWindows@WWindow@@2V?$TArray@PAVWWindow@@@@A    @1021
    ?_Windows@WWindow@@2V?$TArray@PAVWWindow@@@@A    @1022
;      ?__FUNC_NAME__@?2???0FPropertyItem@@QAE@PAVWPropertiesBase@@PAVFTreeItem@@PAVUProperty@@VFName@@HHH@Z@4QBGB    @1023
    ?__FUNC_NAME__@?2???0WProperties@@QAE@VFName@@PAVWWindow@@@Z@4QBGB    @1024
    ?__FUNC_NAME__@?2???1FTreeItem@@UAE@XZ@4QBGB    @1025
    ?__FUNC_NAME__@?2??LoadLocalizedMenu@@YAPAUHMENU__@@PAUHINSTANCE__@@HPBG1@Z@4QBGB    @1026
    ?hBrushBlack@@3PAUHBRUSH__@@A    @1027
    ?hBrushCurrent@@3PAUHBRUSH__@@A    @1028
    ?hBrushCyanHighlight@@3PAUHBRUSH__@@A    @1029
    ?hBrushCyanLow@@3PAUHBRUSH__@@A    @1030
    ?hBrushDark@@3PAUHBRUSH__@@A    @1031
    ?hBrushDarkGrey@@3PAUHBRUSH__@@A    @1032
    ?hBrushGrey160@@3PAUHBRUSH__@@A    @1033
    ?hBrushGrey180@@3PAUHBRUSH__@@A    @1034
    ?hBrushGrey197@@3PAUHBRUSH__@@A    @1035
    ?hBrushGrey@@3PAUHBRUSH__@@A    @1036
    ?hBrushGreyWindow@@3PAUHBRUSH__@@A    @1037
    ?hBrushHeadline@@3PAUHBRUSH__@@A    @1038
    ?hBrushOffWhite@@3PAUHBRUSH__@@A    @1039
    ?hBrushWhite@@3PAUHBRUSH__@@A    @1040
    ?hFontHeadline@@3PAUHFONT__@@A    @1041
    ?hFontText@@3PAUHFONT__@@A    @1042
    ?hFontUrl@@3PAUHFONT__@@A    @1043
    ?hInstanceWindow@@3PAUHINSTANCE__@@A    @1044
    _DllMain@12    @1045
    GPackage    @1046
    autoclassUWindowManager    @1047
