LIBRARY R6Game
EXPORTS
    ??0AR6ActionPoint@@QAE@ABV0@@Z @1
    ??0AR6ActionPoint@@QAE@XZ @2
    ??0AR6GameInfo@@QAE@ABV0@@Z @3
    ??0AR6GameInfo@@QAE@XZ @4
    ??0AR6HUD@@QAE@ABV0@@Z @5
    ??0AR6HUD@@QAE@XZ @6
    ??0AR6InstructionSoundVolume@@IAE@XZ @7
    ??0AR6InstructionSoundVolume@@QAE@ABV0@@Z @8
    ??0AR6MultiPlayerGameInfo@@IAE@XZ @9
    ??0AR6MultiPlayerGameInfo@@QAE@ABV0@@Z @10
    ??0AR6PlanningCtrl@@IAE@XZ @11
    ??0AR6PlanningCtrl@@QAE@ABV0@@Z @12
    ??0AR6SoundVolume@@IAE@XZ @13
    ??0AR6SoundVolume@@QAE@ABV0@@Z @14
    ??0AR6WaterVolume@@IAE@XZ @15
    ??0AR6WaterVolume@@QAE@ABV0@@Z @16
    ??0UR6FileManagerCampaign@@IAE@XZ @17
    ??0UR6FileManagerCampaign@@QAE@ABV0@@Z @18
    ??0UR6FileManagerPlanning@@IAE@XZ @19
    ??0UR6FileManagerPlanning@@QAE@ABV0@@Z @20
    ??0UR6GameManager@@QAE@ABV0@@Z @21
    ??0UR6GameManager@@QAE@XZ @22
    ??0UR6MissionRoster@@QAE@ABV0@@Z @23
    ??0UR6MissionRoster@@QAE@XZ @24
    ??0UR6Operative@@QAE@ABV0@@Z @25
    ??0UR6Operative@@QAE@XZ @26
    ??0UR6PlanningInfo@@QAE@ABV0@@Z @27
    ??0UR6PlanningInfo@@QAE@XZ @28
    ??0UR6PlayerCampaign@@IAE@XZ @29
    ??0UR6PlayerCampaign@@QAE@ABV0@@Z @30
    ??0UR6PlayerCustomMission@@IAE@XZ @31
    ??0UR6PlayerCustomMission@@QAE@ABV0@@Z @32
    ??1AR6ActionPoint@@UAE@XZ @33
    ??1AR6GameInfo@@UAE@XZ @34
    ??1AR6HUD@@UAE@XZ @35
    ??1AR6InstructionSoundVolume@@UAE@XZ @36
    ??1AR6MultiPlayerGameInfo@@UAE@XZ @37
    ??1AR6PlanningCtrl@@UAE@XZ @38
    ??1AR6SoundVolume@@UAE@XZ @39
    ??1AR6WaterVolume@@UAE@XZ @40
    ??1UR6FileManagerCampaign@@UAE@XZ @41
    ??1UR6FileManagerPlanning@@UAE@XZ @42
    ??1UR6GameManager@@UAE@XZ @43
    ??1UR6MissionRoster@@UAE@XZ @44
    ??1UR6Operative@@UAE@XZ @45
    ??1UR6PlanningInfo@@UAE@XZ @46
    ??1UR6PlayerCampaign@@UAE@XZ @47
    ??1UR6PlayerCustomMission@@UAE@XZ @48
    ??2AR6ActionPoint@@SAPAXIPAVUObject@@VFName@@K@Z @49
    ??2AR6ActionPoint@@SAPAXIPAW4EInternal@@@Z @50
    ??2AR6GameInfo@@SAPAXIPAVUObject@@VFName@@K@Z @51
    ??2AR6GameInfo@@SAPAXIPAW4EInternal@@@Z @52
    ??2AR6HUD@@SAPAXIPAVUObject@@VFName@@K@Z @53
    ??2AR6HUD@@SAPAXIPAW4EInternal@@@Z @54
    ??2AR6InstructionSoundVolume@@SAPAXIPAVUObject@@VFName@@K@Z @55
    ??2AR6InstructionSoundVolume@@SAPAXIPAW4EInternal@@@Z @56
    ??2AR6MultiPlayerGameInfo@@SAPAXIPAVUObject@@VFName@@K@Z @57
    ??2AR6MultiPlayerGameInfo@@SAPAXIPAW4EInternal@@@Z @58
    ??2AR6PlanningCtrl@@SAPAXIPAVUObject@@VFName@@K@Z @59
    ??2AR6PlanningCtrl@@SAPAXIPAW4EInternal@@@Z @60
    ??2AR6SoundVolume@@SAPAXIPAVUObject@@VFName@@K@Z @61
    ??2AR6SoundVolume@@SAPAXIPAW4EInternal@@@Z @62
    ??2AR6WaterVolume@@SAPAXIPAVUObject@@VFName@@K@Z @63
    ??2AR6WaterVolume@@SAPAXIPAW4EInternal@@@Z @64
    ??2UR6FileManagerCampaign@@SAPAXIPAVUObject@@VFName@@K@Z @65
    ??2UR6FileManagerCampaign@@SAPAXIPAW4EInternal@@@Z @66
    ??2UR6FileManagerPlanning@@SAPAXIPAVUObject@@VFName@@K@Z @67
    ??2UR6FileManagerPlanning@@SAPAXIPAW4EInternal@@@Z @68
    ??2UR6GameManager@@SAPAXIPAVUObject@@VFName@@K@Z @69
    ??2UR6GameManager@@SAPAXIPAW4EInternal@@@Z @70
    ??2UR6MissionRoster@@SAPAXIPAVUObject@@VFName@@K@Z @71
    ??2UR6MissionRoster@@SAPAXIPAW4EInternal@@@Z @72
    ??2UR6Operative@@SAPAXIPAVUObject@@VFName@@K@Z @73
    ??2UR6Operative@@SAPAXIPAW4EInternal@@@Z @74
    ??2UR6PlanningInfo@@SAPAXIPAVUObject@@VFName@@K@Z @75
    ??2UR6PlanningInfo@@SAPAXIPAW4EInternal@@@Z @76
    ??2UR6PlayerCampaign@@SAPAXIPAVUObject@@VFName@@K@Z @77
    ??2UR6PlayerCampaign@@SAPAXIPAW4EInternal@@@Z @78
    ??2UR6PlayerCustomMission@@SAPAXIPAVUObject@@VFName@@K@Z @79
    ??2UR6PlayerCustomMission@@SAPAXIPAW4EInternal@@@Z @80
    ??4AR6ActionPoint@@QAEAAV0@ABV0@@Z @81
    ??4AR6GameInfo@@QAEAAV0@ABV0@@Z @82
    ??4AR6HUD@@QAEAAV0@ABV0@@Z @83
    ??4AR6InstructionSoundVolume@@QAEAAV0@ABV0@@Z @84
    ??4AR6MultiPlayerGameInfo@@QAEAAV0@ABV0@@Z @85
    ??4AR6PlanningCtrl@@QAEAAV0@ABV0@@Z @86
    ??4AR6SoundVolume@@QAEAAV0@ABV0@@Z @87
    ??4AR6WaterVolume@@QAEAAV0@ABV0@@Z @88
    ??4UR6FileManagerCampaign@@QAEAAV0@ABV0@@Z @89
    ??4UR6FileManagerPlanning@@QAEAAV0@ABV0@@Z @90
    ??4UR6GameManager@@QAEAAV0@ABV0@@Z @91
    ??4UR6MissionRoster@@QAEAAV0@ABV0@@Z @92
    ??4UR6Operative@@QAEAAV0@ABV0@@Z @93
    ??4UR6PlanningInfo@@QAEAAV0@ABV0@@Z @94
    ??4UR6PlayerCampaign@@QAEAAV0@ABV0@@Z @95
    ??4UR6PlayerCustomMission@@QAEAAV0@ABV0@@Z @96
    ??_7AR6ActionPoint@@6B@ @97
    ??_7AR6GameInfo@@6B@ @98
    ??_7AR6HUD@@6B@ @99
    ??_7AR6InstructionSoundVolume@@6B@ @100
    ??_7AR6MultiPlayerGameInfo@@6B@ @101
    ??_7AR6PlanningCtrl@@6B@ @102
    ??_7AR6SoundVolume@@6B@ @103
    ??_7AR6WaterVolume@@6B@ @104
    ??_7UR6FileManagerCampaign@@6B@ @105
    ??_7UR6FileManagerPlanning@@6B@ @106
    ??_7UR6GameManager@@6B@ @107
    ??_7UR6MissionRoster@@6B@ @108
    ??_7UR6Operative@@6B@ @109
    ??_7UR6PlanningInfo@@6B@ @110
    ??_7UR6PlayerCampaign@@6B@ @111
    ??_7UR6PlayerCustomMission@@6B@ @112
    ?AbortScoreSubmission@AR6GameInfo@@UAEXXZ @113
    ?AddPoint@UR6PlanningInfo@@UAEXPAVAActor@@@Z @114
    ?ClientLeaveServer@UR6GameManager@@UAEXXZ @115
    ?ConnectionInterrupted@UR6GameManager@@UAEXH@Z @116
    ?Destroy@AR6HUD@@UAEXXZ @117
    ?DisplayOtherTeamInfo@AR6HUD@@QAEXAAVFCanvasUtil@@PAVUCanvas@@HPAVAR6RainbowTeam@@AAVFColor@@H@Z @118
    ?DoConsoleCommand@UR6GameManager@@QAEXVFString@@PAVUConsole@@@Z @119
    ?DrawCharacterInfo@AR6HUD@@QAEXPAVAR6Rainbow@@MMAAVFColor@@PAVFCanvasUtil@@PAVUCanvas@@@Z @120
    ?DrawInGameMap@AR6HUD@@UAEXPAVFCameraSceneNode@@PAVUViewport@@@Z @121
    ?DrawRadar@AR6HUD@@UAEXPAVFCameraSceneNode@@PAVUViewport@@@Z @122
    ?DrawSingleCharacterInfo@AR6HUD@@QAEXPAVAR6Rainbow@@MMAAVFColor@@PAVFCanvasUtil@@PAVUCanvas@@@Z @123
    ?GSClientManager@UR6GameManager@@QAEXPAVUConsole@@@Z @124
    ?GameServiceTick@UR6GameManager@@UAEXPAVUConsole@@@Z @125
    ?GetGSCreateUbiServer@UR6GameManager@@UAEHXZ @126
    ?GetTeamLeader@UR6PlanningInfo@@UAEPAVAActor@@XZ @127
    ?InitGameInfoGameService@AR6GameInfo@@UAEXXZ @128
    ?InitializeGSClient@UR6GameManager@@QAEXXZ @129
    ?InitializeGameService@UR6GameManager@@UAEXPAVUConsole@@@Z @130
    ?InternalConstructor@AR6ActionPoint@@SAXPAX@Z @131
    ?InternalConstructor@AR6GameInfo@@SAXPAX@Z @132
    ?InternalConstructor@AR6HUD@@SAXPAX@Z @133
    ?InternalConstructor@AR6InstructionSoundVolume@@SAXPAX@Z @134
    ?InternalConstructor@AR6MultiPlayerGameInfo@@SAXPAX@Z @135
    ?InternalConstructor@AR6PlanningCtrl@@SAXPAX@Z @136
    ?InternalConstructor@AR6SoundVolume@@SAXPAX@Z @137
    ?InternalConstructor@AR6WaterVolume@@SAXPAX@Z @138
    ?InternalConstructor@UR6FileManagerCampaign@@SAXPAX@Z @139
    ?InternalConstructor@UR6FileManagerPlanning@@SAXPAX@Z @140
    ?InternalConstructor@UR6GameManager@@SAXPAX@Z @141
    ?InternalConstructor@UR6MissionRoster@@SAXPAX@Z @142
    ?InternalConstructor@UR6Operative@@SAXPAX@Z @143
    ?InternalConstructor@UR6PlanningInfo@@SAXPAX@Z @144
    ?InternalConstructor@UR6PlayerCampaign@@SAXPAX@Z @145
    ?InternalConstructor@UR6PlayerCustomMission@@SAXPAX@Z @146
    ?LaunchListenSrv@UR6GameManager@@UAEXVFString@@0@Z @147
    ?MSClientManager@UR6GameManager@@QAEXPAVUConsole@@@Z @148
    ?MasterServerManager@AR6GameInfo@@UAEXXZ @149
    ?MinimizeAndPauseMusic@UR6GameManager@@QAEXPAVUConsole@@@Z @150
    ?NoStairsBetweenPoints@UR6PlanningInfo@@QAEHPAVAActor@@@Z @151
    ?PostBeginPlay@AR6GameInfo@@UAEXXZ @152
    ?PrivateStaticClass@AR6ActionPoint@@0VUClass@@A @153
    ?PrivateStaticClass@AR6GameInfo@@0VUClass@@A @154
    ?PrivateStaticClass@AR6HUD@@0VUClass@@A @155
    ?PrivateStaticClass@AR6InstructionSoundVolume@@0VUClass@@A @156
    ?PrivateStaticClass@AR6MultiPlayerGameInfo@@0VUClass@@A @157
    ?PrivateStaticClass@AR6PlanningCtrl@@0VUClass@@A @158
    ?PrivateStaticClass@AR6SoundVolume@@0VUClass@@A @159
    ?PrivateStaticClass@AR6WaterVolume@@0VUClass@@A @160
    ?PrivateStaticClass@UR6FileManagerCampaign@@0VUClass@@A @161
    ?PrivateStaticClass@UR6FileManagerPlanning@@0VUClass@@A @162
    ?PrivateStaticClass@UR6GameManager@@0VUClass@@A @163
    ?PrivateStaticClass@UR6MissionRoster@@0VUClass@@A @164
    ?PrivateStaticClass@UR6Operative@@0VUClass@@A @165
    ?PrivateStaticClass@UR6PlanningInfo@@0VUClass@@A @166
    ?PrivateStaticClass@UR6PlayerCampaign@@0VUClass@@A @167
    ?PrivateStaticClass@UR6PlayerCustomMission@@0VUClass@@A @168
    ?Serialize@AR6HUD@@UAEXAAVFArchive@@@Z @169
    ?SetGSCreateUbiServer@UR6GameManager@@UAEXH@Z @170
    ?SetRotationToward@AR6ActionPoint@@QAEXVFVector@@@Z @171
    ?Spawned@AR6HUD@@UAEXXZ @172
    ?StartJoinServer@UR6GameManager@@UAEXVFString@@0H@Z @173
    ?StartLogInProcedure@UR6GameManager@@UAEHXZ @174
    ?StartPreJoinProcedure@UR6GameManager@@UAEXH@Z @175
    ?StaticClass@AR6ActionPoint@@SAPAVUClass@@XZ @176
    ?StaticClass@AR6GameInfo@@SAPAVUClass@@XZ @177
    ?StaticClass@AR6HUD@@SAPAVUClass@@XZ @178
    ?StaticClass@AR6InstructionSoundVolume@@SAPAVUClass@@XZ @179
    ?StaticClass@AR6MultiPlayerGameInfo@@SAPAVUClass@@XZ @180
    ?StaticClass@AR6PlanningCtrl@@SAPAVUClass@@XZ @181
    ?StaticClass@AR6SoundVolume@@SAPAVUClass@@XZ @182
    ?StaticClass@AR6WaterVolume@@SAPAVUClass@@XZ @183
    ?StaticClass@UR6FileManagerCampaign@@SAPAVUClass@@XZ @184
    ?StaticClass@UR6FileManagerPlanning@@SAPAVUClass@@XZ @185
    ?StaticClass@UR6GameManager@@SAPAVUClass@@XZ @186
    ?StaticClass@UR6MissionRoster@@SAPAVUClass@@XZ @187
    ?StaticClass@UR6Operative@@SAPAVUClass@@XZ @188
    ?StaticClass@UR6PlanningInfo@@SAPAVUClass@@XZ @189
    ?StaticClass@UR6PlayerCampaign@@SAPAVUClass@@XZ @190
    ?StaticClass@UR6PlayerCustomMission@@SAPAVUClass@@XZ @191
    ?TransferFile@AR6ActionPoint@@QAEXAAVFArchive@@@Z @192
    ?TransferFile@UR6MissionRoster@@QAEXAAVFArchive@@@Z @193
    ?TransferFile@UR6Operative@@QAEXAAVFArchive@@@Z @194
    ?TransferFile@UR6PlanningInfo@@UAEXAAVFArchive@@@Z @195
    ?UnInitialize@UR6GameManager@@UAEXXZ @196
    ?UpdateHUDColors@AR6HUD@@QAEXVFColor@@@Z @197
    ?execAddToTeam@UR6PlanningInfo@@QAEXAAUFFrame@@QAX@Z @198
    ?execDeletePoint@UR6PlanningInfo@@QAEXAAUFFrame@@QAX@Z @199
    ?execDrawNativeHUD@AR6HUD@@QAEXAAUFFrame@@QAX@Z @200
    ?execFindPathToNextPoint@UR6PlanningInfo@@QAEXAAUFFrame@@QAX@Z @201
    ?execGetClickResult@AR6PlanningCtrl@@QAEXAAUFFrame@@QAX@Z @202
    ?execGetNumberOfFiles@UR6FileManagerPlanning@@QAEXAAUFFrame@@QAX@Z @203
    ?execGetSystemUserName@AR6GameInfo@@QAEXAAUFFrame@@QAX@Z @204
    ?execGetXYPoint@AR6PlanningCtrl@@QAEXAAUFFrame@@QAX@Z @205
    ?execHudStep@AR6HUD@@QAEXAAUFFrame@@QAX@Z @206
    ?execInitScoreSubmission@AR6GameInfo@@QAEXAAUFFrame@@QAX@Z @207
    ?execInsertToTeam@UR6PlanningInfo@@QAEXAAUFFrame@@QAX@Z @208
    ?execLoadCampaign@UR6FileManagerCampaign@@QAEXAAUFFrame@@QAX@Z @209
    ?execLoadPlanning@UR6FileManagerPlanning@@QAEXAAUFFrame@@QAX@Z @210
    ?execLogoutUpdatePlayersCtrlInfo@AR6GameInfo@@QAEXAAUFFrame@@QAX@Z @211
    ?execNativeLogout@AR6GameInfo@@QAEXAAUFFrame@@QAX@Z @212
    ?execPlanningTrace@AR6PlanningCtrl@@QAEXAAUFFrame@@QAX@Z @213
    ?execSaveCampaign@UR6FileManagerCampaign@@QAEXAAUFFrame@@QAX@Z @214
    ?execSavePlanning@UR6FileManagerPlanning@@QAEXAAUFFrame@@QAX@Z @215
    ?execSetController@AR6GameInfo@@QAEXAAUFFrame@@QAX@Z @216
    ?execSubmissionNotifySendStartMatch@AR6GameInfo@@QAEXAAUFFrame@@QAX@Z @217
    ?execSubmissionSrvRoundFinish@AR6GameInfo@@QAEXAAUFFrame@@QAX@Z @218
    ?execSubmissionSrvRoundStart@AR6GameInfo@@QAEXAAUFFrame@@QAX@Z @219
    ?execSubmissionUpdateLadderStat@AR6GameInfo@@QAEXAAUFFrame@@QAX@Z @220
    ?execUseSound@AR6InstructionSoundVolume@@QAEXAAUFFrame@@QAX@Z @221
    GPackage @223
    _DllMain@12 @222
    autoclassAR6ActionPoint @224
    autoclassAR6GameInfo @225
    autoclassAR6HUD @226
    autoclassAR6InstructionSoundVolume @227
    autoclassAR6MultiPlayerGameInfo @228
    autoclassAR6PlanningCtrl @229
    autoclassAR6SoundVolume @230
    autoclassAR6WaterVolume @231
    autoclassUR6FileManagerCampaign @232
    autoclassUR6FileManagerPlanning @233
    autoclassUR6GameManager @234
    autoclassUR6MissionRoster @235
    autoclassUR6Operative @236
    autoclassUR6PlanningInfo @237
    autoclassUR6PlayerCampaign @238
    autoclassUR6PlayerCustomMission @239
    intAR6GameInfoexecGetSystemUserName @240
    intAR6GameInfoexecInitScoreSubmission @241
    intAR6GameInfoexecLogoutUpdatePlayersCtrlInfo @242
    intAR6GameInfoexecNativeLogout @243
    intAR6GameInfoexecSetController @244
    intAR6GameInfoexecSubmissionNotifySendStartMatch @245
    intAR6GameInfoexecSubmissionSrvRoundFinish @246
    intAR6GameInfoexecSubmissionSrvRoundStart @247
    intAR6GameInfoexecSubmissionUpdateLadderStat @248
    intAR6HUDexecDrawNativeHUD @249
    intAR6HUDexecHudStep @250
    intAR6InstructionSoundVolumeexecUseSound @251
    intAR6PlanningCtrlexecGetClickResult @252
    intAR6PlanningCtrlexecGetXYPoint @253
    intAR6PlanningCtrlexecPlanningTrace @254
    intUR6FileManagerCampaignexecLoadCampaign @255
    intUR6FileManagerCampaignexecSaveCampaign @256
    intUR6FileManagerPlanningexecGetNumberOfFiles @257
    intUR6FileManagerPlanningexecLoadPlanning @258
    intUR6FileManagerPlanningexecSavePlanning @259
    intUR6PlanningInfoexecAddToTeam @260
    intUR6PlanningInfoexecDeletePoint @261
    intUR6PlanningInfoexecFindPathToNextPoint @262
    intUR6PlanningInfoexecInsertToTeam @263
